---
triple:          'arm64-apple-darwin'
binary-path:     sample
relocations:
  - { offsetInCU: 0x5C, offset: 0x5C, size: 0x8, addend: 0x0, symName: __ZNSt3__1L19piecewise_constructE, symObjAddr: 0x2C934, symBinAddr: 0x10002E6D0, symSize: 0x0 }
  - { offsetInCU: 0x1E1B6, offset: 0x1E1B6, size: 0x8, addend: 0x0, symName: __ZNSt3__17advanceB8ue170006INS_21__tree_const_iteratorINS_12__value_typeIlNS_3mapINS_12basic_stringIcNS_11char_traitsIcEENS_9allocatorIcEEEEdNS_4lessIS9_EENS7_INS_4pairIKS9_dEEEEEEEEPNS_11__tree_nodeISH_PvEElEEllvEEvRT_T0_, symObjAddr: 0x7500, symBinAddr: 0x100008B68, symSize: 0x38 }
  - { offsetInCU: 0x1E247, offset: 0x1E247, size: 0x8, addend: 0x0, symName: __ZNSt3__17advanceB8ue170006INS_21__tree_const_iteratorINS_12__value_typeINS_12basic_stringIcNS_11char_traitsIcEENS_9allocatorIcEEEEdEEPNS_11__tree_nodeIS9_PvEElEEllvEEvRT_T0_, symObjAddr: 0x8E58, symBinAddr: 0x10000A4C0, symSize: 0x38 }
  - { offsetInCU: 0x1E583, offset: 0x1E583, size: 0x8, addend: 0x0, symName: __ZNSt3__17advanceB8ue170006IPNS_12basic_stringIcNS_11char_traitsIcEENS_9allocatorIcEEEEllvEEvRT_T0_, symObjAddr: 0xAFD0, symBinAddr: 0x10000C638, symSize: 0x38 }
  - { offsetInCU: 0x1EEFC, offset: 0x1EEFC, size: 0x8, addend: 0x0, symName: __ZNSt3__16chrono13duration_castB8ue170006INS0_8durationIxNS_5ratioILl1ELl1EEEEExNS3_ILl1ELl1000000EEEEENS_9enable_ifIXsr13__is_durationIT_EE5valueES8_E4typeERKNS2_IT0_T1_EE, symObjAddr: 0x1564, symBinAddr: 0x100002BCC, symSize: 0x30 }
  - { offsetInCU: 0x230FF, offset: 0x230FF, size: 0x8, addend: 0x0, symName: __ZNSt3__17advanceB8ue170006IPdllvEEvRT_T0_, symObjAddr: 0x1A9CC, symBinAddr: 0x10001C034, symSize: 0x38 }
  - { offsetInCU: 0x231A2, offset: 0x231A2, size: 0x8, addend: 0x0, symName: __ZNSt3__17advanceB8ue170006INS_21__tree_const_iteratorINS_12__value_typeINS_12basic_stringIcNS_11char_traitsIcEENS_9allocatorIcEEEEPNS_6vectorI3barNS6_ISA_EEEEEEPNS_11__tree_nodeISE_PvEElEEllvEEvRT_T0_, symObjAddr: 0x1CCA0, symBinAddr: 0x10001E308, symSize: 0x38 }
  - { offsetInCU: 0x2344D, offset: 0x2344D, size: 0x8, addend: 0x0, symName: __ZNSt3__1rsB8ue170006IcNS_11char_traitsIcEEEERNS_13basic_istreamIT_T0_EES7_RKNS_8__iom_t9IS4_EE, symObjAddr: 0x2764, symBinAddr: 0x100003DCC, symSize: 0x1C0 }
  - { offsetInCU: 0x250CE, offset: 0x250CE, size: 0x8, addend: 0x0, symName: __ZNSt3__17advanceB8ue170006INS_21__tree_const_iteratorINS_12__value_typeINS_12basic_stringIcNS_11char_traitsIcEENS_9allocatorIcEEEEbEEPNS_11__tree_nodeIS9_PvEElEEllvEEvRT_T0_, symObjAddr: 0x262FC, symBinAddr: 0x100027964, symSize: 0x38 }
  - { offsetInCU: 0x2515F, offset: 0x2515F, size: 0x8, addend: 0x0, symName: __ZNSt3__124__put_character_sequenceB8ue170006IcNS_11char_traitsIcEEEERNS_13basic_ostreamIT_T0_EES7_PKS4_m, symObjAddr: 0x26F14, symBinAddr: 0x10002857C, symSize: 0x1EC }
  - { offsetInCU: 0x267CC, offset: 0x267CC, size: 0x8, addend: 0x0, symName: __ZNSt3__1neB8ue170006IPNS_12basic_stringIcNS_11char_traitsIcEENS_9allocatorIcEEEEEEbRKNS_11__wrap_iterIT_EESC_, symObjAddr: 0x52C, symBinAddr: 0x100001B94, symSize: 0x34 }
  - { offsetInCU: 0x2680F, offset: 0x2680F, size: 0x8, addend: 0x0, symName: __ZNSt3__1eqB8ue170006IcNS_11char_traitsIcEENS_9allocatorIcEEEEbRKNS_12basic_stringIT_T0_T1_EEPKS6_, symObjAddr: 0x1154, symBinAddr: 0x1000027BC, symSize: 0xAC }
  - { offsetInCU: 0x26876, offset: 0x26876, size: 0x8, addend: 0x0, symName: __ZNSt3__1lsB8ue170006INS_11char_traitsIcEEEERNS_13basic_ostreamIcT_EES6_PKc, symObjAddr: 0x22A8, symBinAddr: 0x100003910, symSize: 0x48 }
  - { offsetInCU: 0x268BC, offset: 0x268BC, size: 0x8, addend: 0x0, symName: __ZNSt3__1lsB8ue170006IcNS_11char_traitsIcEENS_9allocatorIcEEEERNS_13basic_ostreamIT_T0_EES9_RKNS_12basic_stringIS6_S7_T1_EE, symObjAddr: 0x22F0, symBinAddr: 0x100003958, symSize: 0x4C }
  - { offsetInCU: 0x26C90, offset: 0x26C90, size: 0x8, addend: 0x0, symName: __ZNSt3__18get_timeB8ue170006IcEENS_8__iom_t9IT_EEP2tmPKS2_, symObjAddr: 0x2924, symBinAddr: 0x100003F8C, symSize: 0x38 }
  - { offsetInCU: 0x26CE1, offset: 0x26CE1, size: 0x8, addend: 0x0, symName: __ZNSt3__1eqB8ue170006IPNS_12basic_stringIcNS_11char_traitsIcEENS_9allocatorIcEEEEEEbRKNS_11__wrap_iterIT_EESC_, symObjAddr: 0x2D90, symBinAddr: 0x1000043F8, symSize: 0x48 }
  - { offsetInCU: 0x26D5B, offset: 0x26D5B, size: 0x8, addend: 0x0, symName: __ZNSt3__116forward_as_tupleB8ue170006IJRKNS_12basic_stringIcNS_11char_traitsIcEENS_9allocatorIcEEEEEEENS_5tupleIJDpOT_EEESC_, symObjAddr: 0x311C, symBinAddr: 0x100004784, symSize: 0x2C }
  - { offsetInCU: 0x26D94, offset: 0x26D94, size: 0x8, addend: 0x0, symName: __ZNSt3__116forward_as_tupleB8ue170006IJEEENS_5tupleIJDpOT_EEES4_, symObjAddr: 0x3148, symBinAddr: 0x1000047B0, symSize: 0x4 }
  - { offsetInCU: 0x26DEB, offset: 0x26DEB, size: 0x8, addend: 0x0, symName: __ZNSt3__1ltB8ue170006IcNS_11char_traitsIcEENS_9allocatorIcEEEEbRKNS_12basic_stringIT_T0_T1_EESB_, symObjAddr: 0x3834, symBinAddr: 0x100004E9C, symSize: 0x38 }
  - { offsetInCU: 0x26E43, offset: 0x26E43, size: 0x8, addend: 0x0, symName: __ZNSt3__13minB8ue170006ImEERKT_S3_S3_, symObjAddr: 0x3B14, symBinAddr: 0x10000517C, symSize: 0x2C }
  - { offsetInCU: 0x26E86, offset: 0x26E86, size: 0x8, addend: 0x0, symName: __ZNSt3__112__to_addressB8ue170006IKcEEPT_S3_, symObjAddr: 0x3C18, symBinAddr: 0x100005280, symSize: 0x14 }
  - { offsetInCU: 0x26EEE, offset: 0x26EEE, size: 0x8, addend: 0x0, symName: __ZNSt3__13minB8ue170006ImNS_6__lessIvvEEEERKT_S5_S5_T0_, symObjAddr: 0x3CE4, symBinAddr: 0x10000534C, symSize: 0x54 }
  - { offsetInCU: 0x26FDC, offset: 0x26FDC, size: 0x8, addend: 0x0, symName: __ZNSt3__117__libcpp_allocateB8ue170006Emm, symObjAddr: 0x4080, symBinAddr: 0x1000056E8, symSize: 0x28 }
  - { offsetInCU: 0x27019, offset: 0x27019, size: 0x8, addend: 0x0, symName: __ZNSt3__121__libcpp_operator_newB8ue170006IJmEEEPvDpT_, symObjAddr: 0x40BC, symBinAddr: 0x100005724, symSize: 0x24 }
  - { offsetInCU: 0x2705D, offset: 0x2705D, size: 0x8, addend: 0x0, symName: __ZNSt3__13getB8ue170006ILm0EJRKNS_12basic_stringIcNS_11char_traitsIcEENS_9allocatorIcEEEEEEERNS_13tuple_elementIXT_ENS_5tupleIJDpT0_EEEE4typeERSD_, symObjAddr: 0x4330, symBinAddr: 0x100005998, symSize: 0x24 }
  - { offsetInCU: 0x270A0, offset: 0x270A0, size: 0x8, addend: 0x0, symName: __ZNSt3__127__tree_balance_after_insertB8ue170006IPNS_16__tree_node_baseIPvEEEEvT_S5_, symObjAddr: 0x43F4, symBinAddr: 0x100005A5C, symSize: 0x32C }
  - { offsetInCU: 0x2711C, offset: 0x2711C, size: 0x8, addend: 0x0, symName: __ZNSt3__120__tree_is_left_childB8ue170006IPNS_16__tree_node_baseIPvEEEEbT_, symObjAddr: 0x4760, symBinAddr: 0x100005DC8, symSize: 0x2C }
  - { offsetInCU: 0x27151, offset: 0x27151, size: 0x8, addend: 0x0, symName: __ZNSt3__118__tree_left_rotateB8ue170006IPNS_16__tree_node_baseIPvEEEEvT_, symObjAddr: 0x478C, symBinAddr: 0x100005DF4, symSize: 0xD8 }
  - { offsetInCU: 0x27193, offset: 0x27193, size: 0x8, addend: 0x0, symName: __ZNSt3__119__tree_right_rotateB8ue170006IPNS_16__tree_node_baseIPvEEEEvT_, symObjAddr: 0x4864, symBinAddr: 0x100005ECC, symSize: 0xCC }
  - { offsetInCU: 0x271D5, offset: 0x271D5, size: 0x8, addend: 0x0, symName: __ZNSt3__119__libcpp_deallocateB8ue170006EPvmm, symObjAddr: 0x4BF4, symBinAddr: 0x10000625C, symSize: 0x30 }
  - { offsetInCU: 0x2721D, offset: 0x2721D, size: 0x8, addend: 0x0, symName: __ZNSt3__127__do_deallocate_handle_sizeB8ue170006IJEEEvPvmDpT_, symObjAddr: 0x4C24, symBinAddr: 0x10000628C, symSize: 0x28 }
  - { offsetInCU: 0x2725B, offset: 0x2725B, size: 0x8, addend: 0x0, symName: __ZNSt3__124__libcpp_operator_deleteB8ue170006IJPvEEEvDpT_, symObjAddr: 0x4C4C, symBinAddr: 0x1000062B4, symSize: 0x24 }
  - { offsetInCU: 0x27338, offset: 0x27338, size: 0x8, addend: 0x0, symName: __ZNSt3__1neB8ue170006ERKNS_20__map_const_iteratorINS_21__tree_const_iteratorINS_12__value_typeIlNS_3mapINS_12basic_stringIcNS_11char_traitsIcEENS_9allocatorIcEEEEdNS_4lessIS9_EENS7_INS_4pairIKS9_dEEEEEEEEPNS_11__tree_nodeISH_PvEElEEEESP_, symObjAddr: 0x6610, symBinAddr: 0x100007C78, symSize: 0x30 }
  - { offsetInCU: 0x27375, offset: 0x27375, size: 0x8, addend: 0x0, symName: __ZNSt3__1neB8ue170006ERKNS_21__tree_const_iteratorINS_12__value_typeIlNS_3mapINS_12basic_stringIcNS_11char_traitsIcEENS_9allocatorIcEEEEdNS_4lessIS8_EENS6_INS_4pairIKS8_dEEEEEEEEPNS_11__tree_nodeISG_PvEElEESN_, symObjAddr: 0x6718, symBinAddr: 0x100007D80, symSize: 0x34 }
  - { offsetInCU: 0x273B2, offset: 0x273B2, size: 0x8, addend: 0x0, symName: __ZNSt3__1eqB8ue170006ERKNS_21__tree_const_iteratorINS_12__value_typeIlNS_3mapINS_12basic_stringIcNS_11char_traitsIcEENS_9allocatorIcEEEEdNS_4lessIS8_EENS6_INS_4pairIKS8_dEEEEEEEEPNS_11__tree_nodeISG_PvEElEESN_, symObjAddr: 0x674C, symBinAddr: 0x100007DB4, symSize: 0x30 }
  - { offsetInCU: 0x27413, offset: 0x27413, size: 0x8, addend: 0x0, symName: __ZNSt3__14nextB8ue170006INS_21__tree_const_iteratorINS_12__value_typeIlNS_3mapINS_12basic_stringIcNS_11char_traitsIcEENS_9allocatorIcEEEEdNS_4lessIS9_EENS7_INS_4pairIKS9_dEEEEEEEEPNS_11__tree_nodeISH_PvEElEEEENS_9enable_ifIXsr29__has_input_iterator_categoryIT_EE5valueESO_E4typeESO_NS_15iterator_traitsISO_E15difference_typeE, symObjAddr: 0x7254, symBinAddr: 0x1000088BC, symSize: 0x3C }
  - { offsetInCU: 0x27456, offset: 0x27456, size: 0x8, addend: 0x0, symName: __ZNSt3__116__tree_prev_iterB8ue170006IPNS_16__tree_node_baseIPvEEPNS_15__tree_end_nodeIS4_EEEET_T0_, symObjAddr: 0x739C, symBinAddr: 0x100008A04, symSize: 0x88 }
  - { offsetInCU: 0x274A2, offset: 0x274A2, size: 0x8, addend: 0x0, symName: __ZNSt3__110__tree_maxB8ue170006IPNS_16__tree_node_baseIPvEEEET_S5_, symObjAddr: 0x7424, symBinAddr: 0x100008A8C, symSize: 0x40 }
  - { offsetInCU: 0x274D7, offset: 0x274D7, size: 0x8, addend: 0x0, symName: __ZNSt3__121__convert_to_integralB8ue170006El, symObjAddr: 0x7538, symBinAddr: 0x100008BA0, symSize: 0x14 }
  - { offsetInCU: 0x27503, offset: 0x27503, size: 0x8, addend: 0x0, symName: __ZNSt3__19__advanceB8ue170006INS_21__tree_const_iteratorINS_12__value_typeIlNS_3mapINS_12basic_stringIcNS_11char_traitsIcEENS_9allocatorIcEEEEdNS_4lessIS9_EENS7_INS_4pairIKS9_dEEEEEEEEPNS_11__tree_nodeISH_PvEElEEEEvRT_NS_15iterator_traitsISN_E15difference_typeENS_26bidirectional_iterator_tagE, symObjAddr: 0x754C, symBinAddr: 0x100008BB4, symSize: 0xA4 }
  - { offsetInCU: 0x2754C, offset: 0x2754C, size: 0x8, addend: 0x0, symName: __ZNSt3__116__tree_next_iterB8ue170006IPNS_15__tree_end_nodeIPNS_16__tree_node_baseIPvEEEES5_EET_T0_, symObjAddr: 0x7628, symBinAddr: 0x100008C90, symSize: 0x80 }
  - { offsetInCU: 0x2758A, offset: 0x2758A, size: 0x8, addend: 0x0, symName: __ZNSt3__110__tree_minB8ue170006IPNS_16__tree_node_baseIPvEEEET_S5_, symObjAddr: 0x76A8, symBinAddr: 0x100008D10, symSize: 0x40 }
  - { offsetInCU: 0x275DD, offset: 0x275DD, size: 0x8, addend: 0x0, symName: __ZNSt3__1neB8ue170006ERKNS_20__map_const_iteratorINS_21__tree_const_iteratorINS_12__value_typeINS_12basic_stringIcNS_11char_traitsIcEENS_9allocatorIcEEEEdEEPNS_11__tree_nodeIS9_PvEElEEEESH_, symObjAddr: 0x8064, symBinAddr: 0x1000096CC, symSize: 0x30 }
  - { offsetInCU: 0x2761A, offset: 0x2761A, size: 0x8, addend: 0x0, symName: __ZNSt3__1neB8ue170006ERKNS_21__tree_const_iteratorINS_12__value_typeINS_12basic_stringIcNS_11char_traitsIcEENS_9allocatorIcEEEEdEEPNS_11__tree_nodeIS8_PvEElEESF_, symObjAddr: 0x816C, symBinAddr: 0x1000097D4, symSize: 0x34 }
  - { offsetInCU: 0x27657, offset: 0x27657, size: 0x8, addend: 0x0, symName: __ZNSt3__1eqB8ue170006ERKNS_21__tree_const_iteratorINS_12__value_typeINS_12basic_stringIcNS_11char_traitsIcEENS_9allocatorIcEEEEdEEPNS_11__tree_nodeIS8_PvEElEESF_, symObjAddr: 0x81A0, symBinAddr: 0x100009808, symSize: 0x30 }
  - { offsetInCU: 0x276B8, offset: 0x276B8, size: 0x8, addend: 0x0, symName: __ZNSt3__14nextB8ue170006INS_21__tree_const_iteratorINS_12__value_typeINS_12basic_stringIcNS_11char_traitsIcEENS_9allocatorIcEEEEdEEPNS_11__tree_nodeIS9_PvEElEEEENS_9enable_ifIXsr29__has_input_iterator_categoryIT_EE5valueESG_E4typeESG_NS_15iterator_traitsISG_E15difference_typeE, symObjAddr: 0x8CA8, symBinAddr: 0x10000A310, symSize: 0x3C }
  - { offsetInCU: 0x276FB, offset: 0x276FB, size: 0x8, addend: 0x0, symName: __ZNSt3__19__advanceB8ue170006INS_21__tree_const_iteratorINS_12__value_typeINS_12basic_stringIcNS_11char_traitsIcEENS_9allocatorIcEEEEdEEPNS_11__tree_nodeIS9_PvEElEEEEvRT_NS_15iterator_traitsISF_E15difference_typeENS_26bidirectional_iterator_tagE, symObjAddr: 0x8E90, symBinAddr: 0x10000A4F8, symSize: 0xA4 }
  - { offsetInCU: 0x277C8, offset: 0x277C8, size: 0x8, addend: 0x0, symName: __ZNSt3__116forward_as_tupleB8ue170006IJRKlEEENS_5tupleIJDpOT_EEES6_, symObjAddr: 0xA08C, symBinAddr: 0x10000B6F4, symSize: 0x2C }
  - { offsetInCU: 0x27801, offset: 0x27801, size: 0x8, addend: 0x0, symName: __ZNSt3__13getB8ue170006ILm0EJRKlEEERNS_13tuple_elementIXT_ENS_5tupleIJDpT0_EEEE4typeERS7_, symObjAddr: 0xA358, symBinAddr: 0x10000B9C0, symSize: 0x24 }
  - { offsetInCU: 0x2788C, offset: 0x2788C, size: 0x8, addend: 0x0, symName: __ZNSt3__18distanceB8ue170006IPNS_12basic_stringIcNS_11char_traitsIcEENS_9allocatorIcEEEEEENS_15iterator_traitsIT_E15difference_typeES9_S9_, symObjAddr: 0xAB50, symBinAddr: 0x10000C1B8, symSize: 0x2C }
  - { offsetInCU: 0x278CF, offset: 0x278CF, size: 0x8, addend: 0x0, symName: __ZNSt3__14nextB8ue170006IPNS_12basic_stringIcNS_11char_traitsIcEENS_9allocatorIcEEEEEENS_9enable_ifIXsr29__has_input_iterator_categoryIT_EE5valueES9_E4typeES9_NS_15iterator_traitsIS9_E15difference_typeE, symObjAddr: 0xABE4, symBinAddr: 0x10000C24C, symSize: 0x34 }
  - { offsetInCU: 0x27912, offset: 0x27912, size: 0x8, addend: 0x0, symName: __ZNSt3__14copyB8ue170006IPNS_12basic_stringIcNS_11char_traitsIcEENS_9allocatorIcEEEES7_EET0_T_S9_S8_, symObjAddr: 0xAC18, symBinAddr: 0x10000C280, symSize: 0x40 }
  - { offsetInCU: 0x2796C, offset: 0x2796C, size: 0x8, addend: 0x0, symName: __ZNSt3__16__copyB8ue170006INS_17_ClassicAlgPolicyEPNS_12basic_stringIcNS_11char_traitsIcEENS_9allocatorIcEEEES8_S8_EENS_4pairIT0_T2_EESA_T1_SB_, symObjAddr: 0xACE4, symBinAddr: 0x10000C34C, symSize: 0x44 }
  - { offsetInCU: 0x279D8, offset: 0x279D8, size: 0x8, addend: 0x0, symName: __ZNSt3__19__advanceB8ue170006IPNS_12basic_stringIcNS_11char_traitsIcEENS_9allocatorIcEEEEEEvRT_NS_15iterator_traitsIS8_E15difference_typeENS_26random_access_iterator_tagE, symObjAddr: 0xB008, symBinAddr: 0x10000C670, symSize: 0x30 }
  - { offsetInCU: 0x27A21, offset: 0x27A21, size: 0x8, addend: 0x0, symName: __ZNSt3__130__uninitialized_allocator_copyB8ue170006INS_9allocatorINS_12basic_stringIcNS_11char_traitsIcEENS1_IcEEEEEEPS6_S8_S8_EET2_RT_T0_T1_S9_, symObjAddr: 0xB074, symBinAddr: 0x10000C6DC, symSize: 0x80 }
  - { offsetInCU: 0x27ABE, offset: 0x27ABE, size: 0x8, addend: 0x0, symName: __ZNSt3__114__unwrap_rangeB8ue170006IPNS_12basic_stringIcNS_11char_traitsIcEENS_9allocatorIcEEEES7_EENS_4pairIT0_S9_EET_SB_, symObjAddr: 0xB194, symBinAddr: 0x10000C7FC, symSize: 0x60 }
  - { offsetInCU: 0x27B0A, offset: 0x27B0A, size: 0x8, addend: 0x0, symName: __ZNSt3__135__uninitialized_allocator_copy_implB8ue170006INS_9allocatorINS_12basic_stringIcNS_11char_traitsIcEENS1_IcEEEEEEPS6_S8_S8_EET2_RT_T0_T1_S9_, symObjAddr: 0xB1F4, symBinAddr: 0x10000C85C, symSize: 0xF4 }
  - { offsetInCU: 0x27BA8, offset: 0x27BA8, size: 0x8, addend: 0x0, symName: __ZNSt3__113__unwrap_iterB8ue170006IPNS_12basic_stringIcNS_11char_traitsIcEENS_9allocatorIcEEEENS_18__unwrap_iter_implIS7_Lb1EEELi0EEEDTclsrT0_8__unwrapclsr3stdE7declvalIT_EEEESB_, symObjAddr: 0xB2E8, symBinAddr: 0x10000C950, symSize: 0x24 }
  - { offsetInCU: 0x27BEC, offset: 0x27BEC, size: 0x8, addend: 0x0, symName: __ZNSt3__113__rewrap_iterB8ue170006IPNS_12basic_stringIcNS_11char_traitsIcEENS_9allocatorIcEEEES7_NS_18__unwrap_iter_implIS7_Lb1EEEEET_SA_T0_, symObjAddr: 0xB30C, symBinAddr: 0x10000C974, symSize: 0x3C }
  - { offsetInCU: 0x27C41, offset: 0x27C41, size: 0x8, addend: 0x0, symName: __ZNSt3__19make_pairB8ue170006IPNS_12basic_stringIcNS_11char_traitsIcEENS_9allocatorIcEEEES7_EENS_4pairINS_18__unwrap_ref_decayIT_E4typeENS9_IT0_E4typeEEEOSA_OSD_, symObjAddr: 0xB348, symBinAddr: 0x10000C9B0, symSize: 0x38 }
  - { offsetInCU: 0x27D64, offset: 0x27D64, size: 0x8, addend: 0x0, symName: __ZNSt3__122__make_exception_guardB8ue170006INS_29_AllocatorDestroyRangeReverseINS_9allocatorINS_12basic_stringIcNS_11char_traitsIcEENS2_IcEEEEEEPS7_EEEENS_28__exception_guard_exceptionsIT_EESC_, symObjAddr: 0xB3F0, symBinAddr: 0x10000CA58, symSize: 0x4C }
  - { offsetInCU: 0x27D9A, offset: 0x27D9A, size: 0x8, addend: 0x0, symName: __ZNSt3__112__to_addressB8ue170006INS_12basic_stringIcNS_11char_traitsIcEENS_9allocatorIcEEEEEEPT_S8_, symObjAddr: 0xB4B4, symBinAddr: 0x10000CB1C, symSize: 0x14 }
  - { offsetInCU: 0x27DCF, offset: 0x27DCF, size: 0x8, addend: 0x0, symName: __ZNSt3__119__allocator_destroyB8ue170006INS_9allocatorINS_12basic_stringIcNS_11char_traitsIcEENS1_IcEEEEEENS_16reverse_iteratorIPS6_EESA_EEvRT_T0_T1_, symObjAddr: 0xB694, symBinAddr: 0x10000CCFC, symSize: 0x70 }
  - { offsetInCU: 0x27E32, offset: 0x27E32, size: 0x8, addend: 0x0, symName: __ZNSt3__1neB8ue170006IPNS_12basic_stringIcNS_11char_traitsIcEENS_9allocatorIcEEEES7_EEbRKNS_16reverse_iteratorIT_EERKNS8_IT0_EE, symObjAddr: 0xB738, symBinAddr: 0x10000CDA0, symSize: 0x48 }
  - { offsetInCU: 0x27E7E, offset: 0x27E7E, size: 0x8, addend: 0x0, symName: __ZNSt3__112__to_addressB8ue170006INS_16reverse_iteratorIPNS_12basic_stringIcNS_11char_traitsIcEENS_9allocatorIcEEEEEEvEEu7__decayIDTclsr19__to_address_helperIT_EE6__callclsr3stdE7declvalIRKSA_EEEEESC_, symObjAddr: 0xB7AC, symBinAddr: 0x10000CE14, symSize: 0x24 }
  - { offsetInCU: 0x27F30, offset: 0x27F30, size: 0x8, addend: 0x0, symName: __ZNSt3__123__dispatch_copy_or_moveB8ue170006INS_17_ClassicAlgPolicyENS_11__copy_loopIS1_EENS_14__copy_trivialEPNS_12basic_stringIcNS_11char_traitsIcEENS_9allocatorIcEEEESB_SB_EENS_4pairIT2_T4_EESD_T3_SE_, symObjAddr: 0xB9B0, symBinAddr: 0x10000D018, symSize: 0x44 }
  - { offsetInCU: 0x27FAE, offset: 0x27FAE, size: 0x8, addend: 0x0, symName: __ZNSt3__121__unwrap_and_dispatchB8ue170006INS_10__overloadINS_11__copy_loopINS_17_ClassicAlgPolicyEEENS_14__copy_trivialEEEPNS_12basic_stringIcNS_11char_traitsIcEENS_9allocatorIcEEEESD_SD_Li0EEENS_4pairIT0_T2_EESF_T1_SG_, symObjAddr: 0xB9F4, symBinAddr: 0x10000D05C, symSize: 0xB4 }
  - { offsetInCU: 0x28097, offset: 0x28097, size: 0x8, addend: 0x0, symName: __ZNSt3__114__rewrap_rangeB8ue170006IPNS_12basic_stringIcNS_11char_traitsIcEENS_9allocatorIcEEEES7_EET_S8_T0_, symObjAddr: 0xBB30, symBinAddr: 0x10000D198, symSize: 0x2C }
  - { offsetInCU: 0x280E3, offset: 0x280E3, size: 0x8, addend: 0x0, symName: __ZNSt3__119__allocate_at_leastB8ue170006INS_9allocatorINS_12basic_stringIcNS_11char_traitsIcEENS1_IcEEEEEEEENS_19__allocation_resultINS_16allocator_traitsIT_E7pointerEEERSA_m, symObjAddr: 0xBF94, symBinAddr: 0x10000D5FC, symSize: 0x40 }
  - { offsetInCU: 0x28327, offset: 0x28327, size: 0x8, addend: 0x0, symName: __ZNSt3__120__throw_length_errorB8ue170006EPKc, symObjAddr: 0xC154, symBinAddr: 0x10000D7BC, symSize: 0x64 }
  - { offsetInCU: 0x28351, offset: 0x28351, size: 0x8, addend: 0x0, symName: __ZNSt3__13maxB8ue170006ImEERKT_S3_S3_, symObjAddr: 0xC294, symBinAddr: 0x10000D8FC, symSize: 0x2C }
  - { offsetInCU: 0x28394, offset: 0x28394, size: 0x8, addend: 0x0, symName: __ZNSt3__13maxB8ue170006ImNS_6__lessIvvEEEERKT_S5_S5_T0_, symObjAddr: 0xC2C0, symBinAddr: 0x10000D928, symSize: 0x54 }
  - { offsetInCU: 0x283EE, offset: 0x283EE, size: 0x8, addend: 0x0, symName: __ZNSt3__110__distanceB8ue170006IPNS_12basic_stringIcNS_11char_traitsIcEENS_9allocatorIcEEEEEENS_15iterator_traitsIT_E15difference_typeES9_S9_NS_26random_access_iterator_tagE, symObjAddr: 0xC314, symBinAddr: 0x10000D97C, symSize: 0x28 }
  - { offsetInCU: 0x28457, offset: 0x28457, size: 0x8, addend: 0x0, symName: __ZNSt3__1neB8ue170006ERKNS_14__map_iteratorINS_15__tree_iteratorINS_12__value_typeIlNS_3mapINS_12basic_stringIcNS_11char_traitsIcEENS_9allocatorIcEEEEdNS_4lessIS9_EENS7_INS_4pairIKS9_dEEEEEEEEPNS_11__tree_nodeISH_PvEElEEEESP_, symObjAddr: 0xDF0C, symBinAddr: 0x10000F574, symSize: 0x30 }
  - { offsetInCU: 0x28CA5, offset: 0x28CA5, size: 0x8, addend: 0x0, symName: __ZNSt3__17getlineB8ue170006IcNS_11char_traitsIcEENS_9allocatorIcEEEERNS_13basic_istreamIT_T0_EES9_RNS_12basic_stringIS6_S7_T1_EE, symObjAddr: 0xE168, symBinAddr: 0x10000F7D0, symSize: 0x5C }
  - { offsetInCU: 0x28CFD, offset: 0x28CFD, size: 0x8, addend: 0x0, symName: __ZNSt3__17replaceB8ue170006INS_11__wrap_iterIPcEEcEEvT_S4_RKT0_S7_, symObjAddr: 0xE1F0, symBinAddr: 0x10000F858, symSize: 0x94 }
  - { offsetInCU: 0x28F38, offset: 0x28F38, size: 0x8, addend: 0x0, symName: __ZNSt3__1rsB8ue170006IcNS_11char_traitsIcEENS_9allocatorIcEEEERNS_13basic_istreamIT_T0_EES9_RNS_12basic_stringIS6_S7_T1_EE, symObjAddr: 0xE434, symBinAddr: 0x10000FA9C, symSize: 0x318 }
  - { offsetInCU: 0x2901D, offset: 0x2901D, size: 0x8, addend: 0x0, symName: __ZNSt3__17getlineB8ue170006IcNS_11char_traitsIcEENS_9allocatorIcEEEERNS_13basic_istreamIT_T0_EES9_RNS_12basic_stringIS6_S7_T1_EES6_, symObjAddr: 0xE9AC, symBinAddr: 0x100010014, symSize: 0x238 }
  - { offsetInCU: 0x29310, offset: 0x29310, size: 0x8, addend: 0x0, symName: __ZNSt3__19use_facetB8ue170006INS_5ctypeIcEEEERKT_RKNS_6localeE, symObjAddr: 0xF198, symBinAddr: 0x100010800, symSize: 0x2C }
  - { offsetInCU: 0x296EE, offset: 0x296EE, size: 0x8, addend: 0x0, symName: __ZNSt3__1neB8ue170006IPcEEbRKNS_11__wrap_iterIT_EES6_, symObjAddr: 0xF24C, symBinAddr: 0x1000108B4, symSize: 0x34 }
  - { offsetInCU: 0x29731, offset: 0x29731, size: 0x8, addend: 0x0, symName: __ZNSt3__1eqB8ue170006IPcEEbRKNS_11__wrap_iterIT_EES6_, symObjAddr: 0xF2B8, symBinAddr: 0x100010920, symSize: 0x48 }
  - { offsetInCU: 0x29774, offset: 0x29774, size: 0x8, addend: 0x0, symName: __ZNSt3__1neB8ue170006ERKNS_15__tree_iteratorINS_12__value_typeIlNS_3mapINS_12basic_stringIcNS_11char_traitsIcEENS_9allocatorIcEEEEdNS_4lessIS8_EENS6_INS_4pairIKS8_dEEEEEEEEPNS_11__tree_nodeISG_PvEElEESN_, symObjAddr: 0xFCC8, symBinAddr: 0x100011330, symSize: 0x34 }
  - { offsetInCU: 0x297B1, offset: 0x297B1, size: 0x8, addend: 0x0, symName: __ZNSt3__1eqB8ue170006ERKNS_15__tree_iteratorINS_12__value_typeIlNS_3mapINS_12basic_stringIcNS_11char_traitsIcEENS_9allocatorIcEEEEdNS_4lessIS8_EENS6_INS_4pairIKS8_dEEEEEEEEPNS_11__tree_nodeISG_PvEElEESN_, symObjAddr: 0xFCFC, symBinAddr: 0x100011364, symSize: 0x30 }
  - { offsetInCU: 0x297EE, offset: 0x297EE, size: 0x8, addend: 0x0, symName: __ZNSt3__112__to_addressB8ue170006IlEEPT_S2_, symObjAddr: 0xFF8C, symBinAddr: 0x1000115F4, symSize: 0x14 }
  - { offsetInCU: 0x29823, offset: 0x29823, size: 0x8, addend: 0x0, symName: __ZNSt3__119__allocate_at_leastB8ue170006INS_9allocatorIlEEEENS_19__allocation_resultINS_16allocator_traitsIT_E7pointerEEERS5_m, symObjAddr: 0x10588, symBinAddr: 0x100011BF0, symSize: 0x40 }
  - { offsetInCU: 0x29866, offset: 0x29866, size: 0x8, addend: 0x0, symName: __ZNSt3__142__uninitialized_allocator_move_if_noexceptB8ue170006INS_9allocatorIlEENS_16reverse_iteratorIPlEES5_lvEET1_RT_T0_S9_S6_, symObjAddr: 0x107F4, symBinAddr: 0x100011E5C, symSize: 0x78 }
  - { offsetInCU: 0x298E3, offset: 0x298E3, size: 0x8, addend: 0x0, symName: __ZNSt3__14swapB8ue170006IPlEENS_9enable_ifIXaasr21is_move_constructibleIT_EE5valuesr18is_move_assignableIS3_EE5valueEvE4typeERS3_S6_, symObjAddr: 0x108B8, symBinAddr: 0x100011F20, symSize: 0x3C }
  - { offsetInCU: 0x29934, offset: 0x29934, size: 0x8, addend: 0x0, symName: __ZNSt3__14moveB8ue170006INS_16reverse_iteratorIPlEES3_EET0_T_S5_S4_, symObjAddr: 0x109E8, symBinAddr: 0x100012050, symSize: 0x78 }
  - { offsetInCU: 0x2998E, offset: 0x2998E, size: 0x8, addend: 0x0, symName: __ZNSt3__16__moveB8ue170006INS_17_ClassicAlgPolicyENS_16reverse_iteratorIPlEES4_S4_EENS_4pairIT0_T2_EES6_T1_S7_, symObjAddr: 0x10A60, symBinAddr: 0x1000120C8, symSize: 0x64 }
  - { offsetInCU: 0x299FA, offset: 0x299FA, size: 0x8, addend: 0x0, symName: __ZNSt3__123__dispatch_copy_or_moveB8ue170006INS_17_ClassicAlgPolicyENS_11__move_loopIS1_EENS_14__move_trivialENS_16reverse_iteratorIPlEES7_S7_EENS_4pairIT2_T4_EES9_T3_SA_, symObjAddr: 0x10AC4, symBinAddr: 0x10001212C, symSize: 0x64 }
  - { offsetInCU: 0x29A78, offset: 0x29A78, size: 0x8, addend: 0x0, symName: __ZNSt3__121__unwrap_and_dispatchB8ue170006INS_10__overloadINS_11__move_loopINS_17_ClassicAlgPolicyEEENS_14__move_trivialEEENS_16reverse_iteratorIPlEES9_S9_Li0EEENS_4pairIT0_T2_EESB_T1_SC_, symObjAddr: 0x10B28, symBinAddr: 0x100012190, symSize: 0x12C }
  - { offsetInCU: 0x29B08, offset: 0x29B08, size: 0x8, addend: 0x0, symName: __ZNSt3__114__unwrap_rangeB8ue170006INS_16reverse_iteratorIPlEES3_EENS_4pairIT0_S5_EET_S7_, symObjAddr: 0x10C54, symBinAddr: 0x1000122BC, symSize: 0x84 }
  - { offsetInCU: 0x29CF8, offset: 0x29CF8, size: 0x8, addend: 0x0, symName: __ZNSt3__113__unwrap_iterB8ue170006INS_16reverse_iteratorIPlEENS_18__unwrap_iter_implIS3_Lb0EEELi0EEEDTclsrT0_8__unwrapclsr3stdE7declvalIT_EEEES7_, symObjAddr: 0x10D78, symBinAddr: 0x1000123E0, symSize: 0x44 }
  - { offsetInCU: 0x29D3C, offset: 0x29D3C, size: 0x8, addend: 0x0, symName: __ZNSt3__19make_pairB8ue170006INS_16reverse_iteratorIPlEES3_EENS_4pairINS_18__unwrap_ref_decayIT_E4typeENS5_IT0_E4typeEEEOS6_OS9_, symObjAddr: 0x10DBC, symBinAddr: 0x100012424, symSize: 0x38 }
  - { offsetInCU: 0x29D8B, offset: 0x29D8B, size: 0x8, addend: 0x0, symName: __ZNSt3__114__rewrap_rangeB8ue170006INS_16reverse_iteratorIPlEES3_EET_S4_T0_, symObjAddr: 0x10DF4, symBinAddr: 0x10001245C, symSize: 0x5C }
  - { offsetInCU: 0x29DD7, offset: 0x29DD7, size: 0x8, addend: 0x0, symName: __ZNSt3__113__rewrap_iterB8ue170006INS_16reverse_iteratorIPlEES3_NS_18__unwrap_iter_implIS3_Lb0EEEEET_S6_T0_, symObjAddr: 0x10E50, symBinAddr: 0x1000124B8, symSize: 0x74 }
  - { offsetInCU: 0x29E2C, offset: 0x29E2C, size: 0x8, addend: 0x0, symName: __ZNSt3__1neB8ue170006IPlS1_EEbRKNS_16reverse_iteratorIT_EERKNS2_IT0_EE, symObjAddr: 0x10EC4, symBinAddr: 0x10001252C, symSize: 0x48 }
  - { offsetInCU: 0x29FC3, offset: 0x29FC3, size: 0x8, addend: 0x0, symName: __ZNSt3__112__to_addressB8ue170006INS_3mapINS_12basic_stringIcNS_11char_traitsIcEENS_9allocatorIcEEEEdNS_4lessIS7_EENS5_INS_4pairIKS7_dEEEEEEEEPT_SG_, symObjAddr: 0x13694, symBinAddr: 0x100014CFC, symSize: 0x14 }
  - { offsetInCU: 0x29FF8, offset: 0x29FF8, size: 0x8, addend: 0x0, symName: __ZNSt3__119__allocate_at_leastB8ue170006INS_9allocatorINS_3mapINS_12basic_stringIcNS_11char_traitsIcEENS1_IcEEEEdNS_4lessIS7_EENS1_INS_4pairIKS7_dEEEEEEEEEENS_19__allocation_resultINS_16allocator_traitsIT_E7pointerEEERSI_m, symObjAddr: 0x13CD8, symBinAddr: 0x100015340, symSize: 0x40 }
  - { offsetInCU: 0x2A03B, offset: 0x2A03B, size: 0x8, addend: 0x0, symName: __ZNSt3__142__uninitialized_allocator_move_if_noexceptB8ue170006INS_9allocatorINS_3mapINS_12basic_stringIcNS_11char_traitsIcEENS1_IcEEEEdNS_4lessIS7_EENS1_INS_4pairIKS7_dEEEEEEEENS_16reverse_iteratorIPSE_EESI_SI_EET2_RT_T0_T1_SJ_, symObjAddr: 0x13F64, symBinAddr: 0x1000155CC, symSize: 0x12C }
  - { offsetInCU: 0x2A0DB, offset: 0x2A0DB, size: 0x8, addend: 0x0, symName: __ZNSt3__14swapB8ue170006IPNS_3mapINS_12basic_stringIcNS_11char_traitsIcEENS_9allocatorIcEEEEdNS_4lessIS7_EENS5_INS_4pairIKS7_dEEEEEEEENS_9enable_ifIXaasr21is_move_constructibleIT_EE5valuesr18is_move_assignableISH_EE5valueEvE4typeERSH_SK_, symObjAddr: 0x140DC, symBinAddr: 0x100015744, symSize: 0x3C }
  - { offsetInCU: 0x2A12C, offset: 0x2A12C, size: 0x8, addend: 0x0, symName: __ZNSt3__122__make_exception_guardB8ue170006INS_29_AllocatorDestroyRangeReverseINS_9allocatorINS_3mapINS_12basic_stringIcNS_11char_traitsIcEENS2_IcEEEEdNS_4lessIS8_EENS2_INS_4pairIKS8_dEEEEEEEENS_16reverse_iteratorIPSF_EEEEEENS_28__exception_guard_exceptionsIT_EESM_, symObjAddr: 0x14228, symBinAddr: 0x100015890, symSize: 0x4C }
  - { offsetInCU: 0x2A162, offset: 0x2A162, size: 0x8, addend: 0x0, symName: __ZNSt3__1neB8ue170006IPNS_3mapINS_12basic_stringIcNS_11char_traitsIcEENS_9allocatorIcEEEEdNS_4lessIS7_EENS5_INS_4pairIKS7_dEEEEEESF_EEbRKNS_16reverse_iteratorIT_EERKNSG_IT0_EE, symObjAddr: 0x142B8, symBinAddr: 0x100015920, symSize: 0x48 }
  - { offsetInCU: 0x2A1AE, offset: 0x2A1AE, size: 0x8, addend: 0x0, symName: __ZNSt3__112__to_addressB8ue170006INS_16reverse_iteratorIPNS_3mapINS_12basic_stringIcNS_11char_traitsIcEENS_9allocatorIcEEEEdNS_4lessIS8_EENS6_INS_4pairIKS8_dEEEEEEEEvEEu7__decayIDTclsr19__to_address_helperIT_EE6__callclsr3stdE7declvalIRKSI_EEEEESK_, symObjAddr: 0x14334, symBinAddr: 0x10001599C, symSize: 0x24 }
  - { offsetInCU: 0x2A20D, offset: 0x2A20D, size: 0x8, addend: 0x0, symName: __ZNSt3__119__allocator_destroyB8ue170006INS_9allocatorINS_3mapINS_12basic_stringIcNS_11char_traitsIcEENS1_IcEEEEdNS_4lessIS7_EENS1_INS_4pairIKS7_dEEEEEEEENS_16reverse_iteratorINSG_IPSE_EEEESJ_EEvRT_T0_T1_, symObjAddr: 0x147AC, symBinAddr: 0x100015E14, symSize: 0x70 }
  - { offsetInCU: 0x2A272, offset: 0x2A272, size: 0x8, addend: 0x0, symName: __ZNSt3__1neB8ue170006INS_16reverse_iteratorIPNS_3mapINS_12basic_stringIcNS_11char_traitsIcEENS_9allocatorIcEEEEdNS_4lessIS8_EENS6_INS_4pairIKS8_dEEEEEEEESH_EEbRKNS1_IT_EERKNS1_IT0_EE, symObjAddr: 0x14858, symBinAddr: 0x100015EC0, symSize: 0x60 }
  - { offsetInCU: 0x2A2BE, offset: 0x2A2BE, size: 0x8, addend: 0x0, symName: __ZNSt3__112__to_addressB8ue170006INS_16reverse_iteratorINS1_IPNS_3mapINS_12basic_stringIcNS_11char_traitsIcEENS_9allocatorIcEEEEdNS_4lessIS8_EENS6_INS_4pairIKS8_dEEEEEEEEEEvEEu7__decayIDTclsr19__to_address_helperIT_EE6__callclsr3stdE7declvalIRKSJ_EEEEESL_, symObjAddr: 0x148E4, symBinAddr: 0x100015F4C, symSize: 0x24 }
  - { offsetInCU: 0x2A36E, offset: 0x2A36E, size: 0x8, addend: 0x0, symName: __ZNSt3__120__throw_out_of_rangeB8ue170006EPKc, symObjAddr: 0x167E0, symBinAddr: 0x100017E48, symSize: 0x64 }
  - { offsetInCU: 0x2A398, offset: 0x2A398, size: 0x8, addend: 0x0, symName: __ZNSt3__111__tree_leafB8ue170006IPNS_16__tree_node_baseIPvEEEET_S5_, symObjAddr: 0x17114, symBinAddr: 0x10001877C, symSize: 0x70 }
  - { offsetInCU: 0x2A3EB, offset: 0x2A3EB, size: 0x8, addend: 0x0, symName: __ZNSt3__112__to_addressB8ue170006IdEEPT_S2_, symObjAddr: 0x1A1E4, symBinAddr: 0x10001B84C, symSize: 0x14 }
  - { offsetInCU: 0x2A453, offset: 0x2A453, size: 0x8, addend: 0x0, symName: __ZNSt3__18distanceB8ue170006IPdEENS_15iterator_traitsIT_E15difference_typeES3_S3_, symObjAddr: 0x1A61C, symBinAddr: 0x10001BC84, symSize: 0x2C }
  - { offsetInCU: 0x2A496, offset: 0x2A496, size: 0x8, addend: 0x0, symName: __ZNSt3__14nextB8ue170006IPdEENS_9enable_ifIXsr29__has_input_iterator_categoryIT_EE5valueES3_E4typeES3_NS_15iterator_traitsIS3_E15difference_typeE, symObjAddr: 0x1A648, symBinAddr: 0x10001BCB0, symSize: 0x34 }
  - { offsetInCU: 0x2A4D9, offset: 0x2A4D9, size: 0x8, addend: 0x0, symName: __ZNSt3__14copyB8ue170006IPdS1_EET0_T_S3_S2_, symObjAddr: 0x1A67C, symBinAddr: 0x10001BCE4, symSize: 0x40 }
  - { offsetInCU: 0x2A533, offset: 0x2A533, size: 0x8, addend: 0x0, symName: __ZNSt3__16__copyB8ue170006INS_17_ClassicAlgPolicyEPdS2_S2_EENS_4pairIT0_T2_EES4_T1_S5_, symObjAddr: 0x1A748, symBinAddr: 0x10001BDB0, symSize: 0x44 }
  - { offsetInCU: 0x2A59F, offset: 0x2A59F, size: 0x8, addend: 0x0, symName: __ZNSt3__19__advanceB8ue170006IPdEEvRT_NS_15iterator_traitsIS2_E15difference_typeENS_26random_access_iterator_tagE, symObjAddr: 0x1AA04, symBinAddr: 0x10001C06C, symSize: 0x28 }
  - { offsetInCU: 0x2A5E8, offset: 0x2A5E8, size: 0x8, addend: 0x0, symName: __ZNSt3__130__uninitialized_allocator_copyB8ue170006INS_9allocatorIdEEPdS3_S3_EET2_RT_T0_T1_S4_, symObjAddr: 0x1AA68, symBinAddr: 0x10001C0D0, symSize: 0x80 }
  - { offsetInCU: 0x2A685, offset: 0x2A685, size: 0x8, addend: 0x0, symName: __ZNSt3__114__unwrap_rangeB8ue170006IPdS1_EENS_4pairIT0_S3_EET_S5_, symObjAddr: 0x1AB58, symBinAddr: 0x10001C1C0, symSize: 0x60 }
  - { offsetInCU: 0x2A6D1, offset: 0x2A6D1, size: 0x8, addend: 0x0, symName: __ZNSt3__135__uninitialized_allocator_copy_implB8ue170006INS_9allocatorIdEEdddLPv0EEEPT2_RT_PT0_S9_S5_, symObjAddr: 0x1ABB8, symBinAddr: 0x10001C220, symSize: 0x38 }
  - { offsetInCU: 0x2A752, offset: 0x2A752, size: 0x8, addend: 0x0, symName: __ZNSt3__113__unwrap_iterB8ue170006IPdNS_18__unwrap_iter_implIS1_Lb1EEELi0EEEDTclsrT0_8__unwrapclsr3stdE7declvalIT_EEEES5_, symObjAddr: 0x1ABF0, symBinAddr: 0x10001C258, symSize: 0x24 }
  - { offsetInCU: 0x2A796, offset: 0x2A796, size: 0x8, addend: 0x0, symName: __ZNSt3__113__rewrap_iterB8ue170006IPdS1_NS_18__unwrap_iter_implIS1_Lb1EEEEET_S4_T0_, symObjAddr: 0x1AC14, symBinAddr: 0x10001C27C, symSize: 0x3C }
  - { offsetInCU: 0x2A7EB, offset: 0x2A7EB, size: 0x8, addend: 0x0, symName: __ZNSt3__19make_pairB8ue170006IPdS1_EENS_4pairINS_18__unwrap_ref_decayIT_E4typeENS3_IT0_E4typeEEEOS4_OS7_, symObjAddr: 0x1AC50, symBinAddr: 0x10001C2B8, symSize: 0x38 }
  - { offsetInCU: 0x2A990, offset: 0x2A990, size: 0x8, addend: 0x0, symName: __ZNSt3__123__dispatch_copy_or_moveB8ue170006INS_17_ClassicAlgPolicyENS_11__copy_loopIS1_EENS_14__copy_trivialEPdS5_S5_EENS_4pairIT2_T4_EES7_T3_S8_, symObjAddr: 0x1AD8C, symBinAddr: 0x10001C3F4, symSize: 0x44 }
  - { offsetInCU: 0x2AA0E, offset: 0x2AA0E, size: 0x8, addend: 0x0, symName: __ZNSt3__121__unwrap_and_dispatchB8ue170006INS_10__overloadINS_11__copy_loopINS_17_ClassicAlgPolicyEEENS_14__copy_trivialEEEPdS7_S7_Li0EEENS_4pairIT0_T2_EES9_T1_SA_, symObjAddr: 0x1ADD0, symBinAddr: 0x10001C438, symSize: 0xB4 }
  - { offsetInCU: 0x2AAE2, offset: 0x2AAE2, size: 0x8, addend: 0x0, symName: __ZNSt3__114__rewrap_rangeB8ue170006IPdS1_EET_S2_T0_, symObjAddr: 0x1AECC, symBinAddr: 0x10001C534, symSize: 0x2C }
  - { offsetInCU: 0x2AB2E, offset: 0x2AB2E, size: 0x8, addend: 0x0, symName: __ZNSt3__119__copy_trivial_implB8ue170006IddEENS_4pairIPT_PT0_EES3_S3_S5_, symObjAddr: 0x1AEF8, symBinAddr: 0x10001C560, symSize: 0x80 }
  - { offsetInCU: 0x2AB96, offset: 0x2AB96, size: 0x8, addend: 0x0, symName: __ZNSt3__119__constexpr_memmoveB8ue170006IddLi0EEEPT_S2_PT0_NS_15__element_countE, symObjAddr: 0x1AF78, symBinAddr: 0x10001C5E0, symSize: 0x64 }
  - { offsetInCU: 0x2AC04, offset: 0x2AC04, size: 0x8, addend: 0x0, symName: __ZNSt3__19make_pairB8ue170006IRPdS1_EENS_4pairINS_18__unwrap_ref_decayIT_E4typeENS4_IT0_E4typeEEEOS5_OS8_, symObjAddr: 0x1AFDC, symBinAddr: 0x10001C644, symSize: 0x38 }
  - { offsetInCU: 0x2AC53, offset: 0x2AC53, size: 0x8, addend: 0x0, symName: __ZNSt3__119__allocate_at_leastB8ue170006INS_9allocatorIdEEEENS_19__allocation_resultINS_16allocator_traitsIT_E7pointerEEERS5_m, symObjAddr: 0x1B258, symBinAddr: 0x10001C8C0, symSize: 0x40 }
  - { offsetInCU: 0x2AC96, offset: 0x2AC96, size: 0x8, addend: 0x0, symName: __ZNSt3__110__distanceB8ue170006IPdEENS_15iterator_traitsIT_E15difference_typeES3_S3_NS_26random_access_iterator_tagE, symObjAddr: 0x1B434, symBinAddr: 0x10001CA9C, symSize: 0x28 }
  - { offsetInCU: 0x2ACE3, offset: 0x2ACE3, size: 0x8, addend: 0x0, symName: __ZNSt3__13maxB8ue170006IiEERKT_S3_S3_, symObjAddr: 0x1BA70, symBinAddr: 0x10001D0D8, symSize: 0x2C }
  - { offsetInCU: 0x2AD26, offset: 0x2AD26, size: 0x8, addend: 0x0, symName: __ZNSt3__1neB8ue170006ERKNS_20__map_const_iteratorINS_21__tree_const_iteratorINS_12__value_typeINS_12basic_stringIcNS_11char_traitsIcEENS_9allocatorIcEEEEPNS_6vectorI3barNS6_ISA_EEEEEEPNS_11__tree_nodeISE_PvEElEEEESM_, symObjAddr: 0x1BF24, symBinAddr: 0x10001D58C, symSize: 0x30 }
  - { offsetInCU: 0x2AD63, offset: 0x2AD63, size: 0x8, addend: 0x0, symName: __ZNSt3__1neB8ue170006ERKNS_21__tree_const_iteratorINS_12__value_typeINS_12basic_stringIcNS_11char_traitsIcEENS_9allocatorIcEEEEPNS_6vectorI3barNS5_IS9_EEEEEEPNS_11__tree_nodeISD_PvEElEESK_, symObjAddr: 0x1C02C, symBinAddr: 0x10001D694, symSize: 0x34 }
  - { offsetInCU: 0x2ADA0, offset: 0x2ADA0, size: 0x8, addend: 0x0, symName: __ZNSt3__1eqB8ue170006ERKNS_21__tree_const_iteratorINS_12__value_typeINS_12basic_stringIcNS_11char_traitsIcEENS_9allocatorIcEEEEPNS_6vectorI3barNS5_IS9_EEEEEEPNS_11__tree_nodeISD_PvEElEESK_, symObjAddr: 0x1C060, symBinAddr: 0x10001D6C8, symSize: 0x30 }
  - { offsetInCU: 0x2ADDD, offset: 0x2ADDD, size: 0x8, addend: 0x0, symName: __ZNSt3__14nextB8ue170006INS_21__tree_const_iteratorINS_12__value_typeINS_12basic_stringIcNS_11char_traitsIcEENS_9allocatorIcEEEEPNS_6vectorI3barNS6_ISA_EEEEEEPNS_11__tree_nodeISE_PvEElEEEENS_9enable_ifIXsr29__has_input_iterator_categoryIT_EE5valueESL_E4typeESL_NS_15iterator_traitsISL_E15difference_typeE, symObjAddr: 0x1CB68, symBinAddr: 0x10001E1D0, symSize: 0x3C }
  - { offsetInCU: 0x2AE20, offset: 0x2AE20, size: 0x8, addend: 0x0, symName: __ZNSt3__19__advanceB8ue170006INS_21__tree_const_iteratorINS_12__value_typeINS_12basic_stringIcNS_11char_traitsIcEENS_9allocatorIcEEEEPNS_6vectorI3barNS6_ISA_EEEEEEPNS_11__tree_nodeISE_PvEElEEEEvRT_NS_15iterator_traitsISK_E15difference_typeENS_26bidirectional_iterator_tagE, symObjAddr: 0x1CCD8, symBinAddr: 0x10001E340, symSize: 0xA4 }
  - { offsetInCU: 0x2AEBA, offset: 0x2AEBA, size: 0x8, addend: 0x0, symName: __ZNSt3__142__uninitialized_allocator_move_if_noexceptB8ue170006INS_9allocatorIdEENS_16reverse_iteratorIPdEES5_dvEET1_RT_T0_S9_S6_, symObjAddr: 0x1DAB0, symBinAddr: 0x10001F118, symSize: 0x78 }
  - { offsetInCU: 0x2AF37, offset: 0x2AF37, size: 0x8, addend: 0x0, symName: __ZNSt3__14swapB8ue170006IPdEENS_9enable_ifIXaasr21is_move_constructibleIT_EE5valuesr18is_move_assignableIS3_EE5valueEvE4typeERS3_S6_, symObjAddr: 0x1DB74, symBinAddr: 0x10001F1DC, symSize: 0x3C }
  - { offsetInCU: 0x2AF88, offset: 0x2AF88, size: 0x8, addend: 0x0, symName: __ZNSt3__14moveB8ue170006INS_16reverse_iteratorIPdEES3_EET0_T_S5_S4_, symObjAddr: 0x1DBB0, symBinAddr: 0x10001F218, symSize: 0x78 }
  - { offsetInCU: 0x2AFE2, offset: 0x2AFE2, size: 0x8, addend: 0x0, symName: __ZNSt3__16__moveB8ue170006INS_17_ClassicAlgPolicyENS_16reverse_iteratorIPdEES4_S4_EENS_4pairIT0_T2_EES6_T1_S7_, symObjAddr: 0x1DC28, symBinAddr: 0x10001F290, symSize: 0x64 }
  - { offsetInCU: 0x2B04E, offset: 0x2B04E, size: 0x8, addend: 0x0, symName: __ZNSt3__123__dispatch_copy_or_moveB8ue170006INS_17_ClassicAlgPolicyENS_11__move_loopIS1_EENS_14__move_trivialENS_16reverse_iteratorIPdEES7_S7_EENS_4pairIT2_T4_EES9_T3_SA_, symObjAddr: 0x1DC8C, symBinAddr: 0x10001F2F4, symSize: 0x64 }
  - { offsetInCU: 0x2B0CC, offset: 0x2B0CC, size: 0x8, addend: 0x0, symName: __ZNSt3__121__unwrap_and_dispatchB8ue170006INS_10__overloadINS_11__move_loopINS_17_ClassicAlgPolicyEEENS_14__move_trivialEEENS_16reverse_iteratorIPdEES9_S9_Li0EEENS_4pairIT0_T2_EESB_T1_SC_, symObjAddr: 0x1DCF0, symBinAddr: 0x10001F358, symSize: 0x12C }
  - { offsetInCU: 0x2B15C, offset: 0x2B15C, size: 0x8, addend: 0x0, symName: __ZNSt3__114__unwrap_rangeB8ue170006INS_16reverse_iteratorIPdEES3_EENS_4pairIT0_S5_EET_S7_, symObjAddr: 0x1DE1C, symBinAddr: 0x10001F484, symSize: 0x84 }
  - { offsetInCU: 0x2B27C, offset: 0x2B27C, size: 0x8, addend: 0x0, symName: __ZNSt3__113__unwrap_iterB8ue170006INS_16reverse_iteratorIPdEENS_18__unwrap_iter_implIS3_Lb0EEELi0EEEDTclsrT0_8__unwrapclsr3stdE7declvalIT_EEEES7_, symObjAddr: 0x1DF40, symBinAddr: 0x10001F5A8, symSize: 0x44 }
  - { offsetInCU: 0x2B2C0, offset: 0x2B2C0, size: 0x8, addend: 0x0, symName: __ZNSt3__19make_pairB8ue170006INS_16reverse_iteratorIPdEES3_EENS_4pairINS_18__unwrap_ref_decayIT_E4typeENS5_IT0_E4typeEEEOS6_OS9_, symObjAddr: 0x1DF84, symBinAddr: 0x10001F5EC, symSize: 0x38 }
  - { offsetInCU: 0x2B30F, offset: 0x2B30F, size: 0x8, addend: 0x0, symName: __ZNSt3__114__rewrap_rangeB8ue170006INS_16reverse_iteratorIPdEES3_EET_S4_T0_, symObjAddr: 0x1DFBC, symBinAddr: 0x10001F624, symSize: 0x5C }
  - { offsetInCU: 0x2B35B, offset: 0x2B35B, size: 0x8, addend: 0x0, symName: __ZNSt3__113__rewrap_iterB8ue170006INS_16reverse_iteratorIPdEES3_NS_18__unwrap_iter_implIS3_Lb0EEEEET_S6_T0_, symObjAddr: 0x1E018, symBinAddr: 0x10001F680, symSize: 0x74 }
  - { offsetInCU: 0x2B3B0, offset: 0x2B3B0, size: 0x8, addend: 0x0, symName: __ZNSt3__1neB8ue170006IPdS1_EEbRKNS_16reverse_iteratorIT_EERKNS2_IT0_EE, symObjAddr: 0x1E08C, symBinAddr: 0x10001F6F4, symSize: 0x48 }
  - { offsetInCU: 0x2B468, offset: 0x2B468, size: 0x8, addend: 0x0, symName: __ZNSt3__13maxB8ue170006IiNS_6__lessIvvEEEERKT_S5_S5_T0_, symObjAddr: 0x1E41C, symBinAddr: 0x10001FA84, symSize: 0x54 }
  - { offsetInCU: 0x2B509, offset: 0x2B509, size: 0x8, addend: 0x0, symName: __ZNSt3__19use_facetB8ue170006INS_8time_getIcNS_19istreambuf_iteratorIcNS_11char_traitsIcEEEEEEEERKT_RKNS_6localeE, symObjAddr: 0x1F040, symBinAddr: 0x1000206A8, symSize: 0x2C }
  - { offsetInCU: 0x2B53E, offset: 0x2B53E, size: 0x8, addend: 0x0, symName: __ZNSt3__118__constexpr_strlenB8ue170006EPKc, symObjAddr: 0x1F16C, symBinAddr: 0x1000207D4, symSize: 0x24 }
  - { offsetInCU: 0x2B56A, offset: 0x2B56A, size: 0x8, addend: 0x0, symName: __ZNSt3__116forward_as_tupleB8ue170006IJNS_12basic_stringIcNS_11char_traitsIcEENS_9allocatorIcEEEEEEENS_5tupleIJDpOT_EEESA_, symObjAddr: 0x1F2E8, symBinAddr: 0x100020950, symSize: 0x2C }
  - { offsetInCU: 0x2B5A3, offset: 0x2B5A3, size: 0x8, addend: 0x0, symName: __ZNSt3__13getB8ue170006ILm0EJONS_12basic_stringIcNS_11char_traitsIcEENS_9allocatorIcEEEEEEERNS_13tuple_elementIXT_ENS_5tupleIJDpT0_EEEE4typeERSC_, symObjAddr: 0x1F588, symBinAddr: 0x100020BF0, symSize: 0x24 }
  - { offsetInCU: 0x2B62E, offset: 0x2B62E, size: 0x8, addend: 0x0, symName: __ZNSt3__112__to_addressB8ue170006I3barEEPT_S3_, symObjAddr: 0x2003C, symBinAddr: 0x1000216A4, symSize: 0x14 }
  - { offsetInCU: 0x2B663, offset: 0x2B663, size: 0x8, addend: 0x0, symName: __ZNSt3__119__allocate_at_leastB8ue170006INS_9allocatorI3barEEEENS_19__allocation_resultINS_16allocator_traitsIT_E7pointerEEERS6_m, symObjAddr: 0x20910, symBinAddr: 0x100021F78, symSize: 0x40 }
  - { offsetInCU: 0x2B6A6, offset: 0x2B6A6, size: 0x8, addend: 0x0, symName: __ZNSt3__142__uninitialized_allocator_move_if_noexceptB8ue170006INS_9allocatorI3barEENS_16reverse_iteratorIPS2_EES6_S2_vEET1_RT_T0_SA_S7_, symObjAddr: 0x20AC8, symBinAddr: 0x100022130, symSize: 0x78 }
  - { offsetInCU: 0x2B723, offset: 0x2B723, size: 0x8, addend: 0x0, symName: __ZNSt3__14swapB8ue170006IP3barEENS_9enable_ifIXaasr21is_move_constructibleIT_EE5valuesr18is_move_assignableIS4_EE5valueEvE4typeERS4_S7_, symObjAddr: 0x20B8C, symBinAddr: 0x1000221F4, symSize: 0x3C }
  - { offsetInCU: 0x2B774, offset: 0x2B774, size: 0x8, addend: 0x0, symName: __ZNSt3__14moveB8ue170006INS_16reverse_iteratorIP3barEES4_EET0_T_S6_S5_, symObjAddr: 0x20C90, symBinAddr: 0x1000222F8, symSize: 0x78 }
  - { offsetInCU: 0x2B7CE, offset: 0x2B7CE, size: 0x8, addend: 0x0, symName: __ZNSt3__16__moveB8ue170006INS_17_ClassicAlgPolicyENS_16reverse_iteratorIP3barEES5_S5_EENS_4pairIT0_T2_EES7_T1_S8_, symObjAddr: 0x20D08, symBinAddr: 0x100022370, symSize: 0x64 }
  - { offsetInCU: 0x2B83A, offset: 0x2B83A, size: 0x8, addend: 0x0, symName: __ZNSt3__123__dispatch_copy_or_moveB8ue170006INS_17_ClassicAlgPolicyENS_11__move_loopIS1_EENS_14__move_trivialENS_16reverse_iteratorIP3barEES8_S8_EENS_4pairIT2_T4_EESA_T3_SB_, symObjAddr: 0x20D6C, symBinAddr: 0x1000223D4, symSize: 0x64 }
  - { offsetInCU: 0x2B8B8, offset: 0x2B8B8, size: 0x8, addend: 0x0, symName: __ZNSt3__121__unwrap_and_dispatchB8ue170006INS_10__overloadINS_11__move_loopINS_17_ClassicAlgPolicyEEENS_14__move_trivialEEENS_16reverse_iteratorIP3barEESA_SA_Li0EEENS_4pairIT0_T2_EESC_T1_SD_, symObjAddr: 0x20DD0, symBinAddr: 0x100022438, symSize: 0x12C }
  - { offsetInCU: 0x2B948, offset: 0x2B948, size: 0x8, addend: 0x0, symName: __ZNSt3__114__unwrap_rangeB8ue170006INS_16reverse_iteratorIP3barEES4_EENS_4pairIT0_S6_EET_S8_, symObjAddr: 0x20EFC, symBinAddr: 0x100022564, symSize: 0x84 }
  - { offsetInCU: 0x2BA68, offset: 0x2BA68, size: 0x8, addend: 0x0, symName: __ZNSt3__113__unwrap_iterB8ue170006INS_16reverse_iteratorIP3barEENS_18__unwrap_iter_implIS4_Lb0EEELi0EEEDTclsrT0_8__unwrapclsr3stdE7declvalIT_EEEES8_, symObjAddr: 0x2101C, symBinAddr: 0x100022684, symSize: 0x44 }
  - { offsetInCU: 0x2BAAC, offset: 0x2BAAC, size: 0x8, addend: 0x0, symName: __ZNSt3__19make_pairB8ue170006INS_16reverse_iteratorIP3barEES4_EENS_4pairINS_18__unwrap_ref_decayIT_E4typeENS6_IT0_E4typeEEEOS7_OSA_, symObjAddr: 0x21060, symBinAddr: 0x1000226C8, symSize: 0x38 }
  - { offsetInCU: 0x2BAFB, offset: 0x2BAFB, size: 0x8, addend: 0x0, symName: __ZNSt3__114__rewrap_rangeB8ue170006INS_16reverse_iteratorIP3barEES4_EET_S5_T0_, symObjAddr: 0x21098, symBinAddr: 0x100022700, symSize: 0x5C }
  - { offsetInCU: 0x2BB47, offset: 0x2BB47, size: 0x8, addend: 0x0, symName: __ZNSt3__113__rewrap_iterB8ue170006INS_16reverse_iteratorIP3barEES4_NS_18__unwrap_iter_implIS4_Lb0EEEEET_S7_T0_, symObjAddr: 0x210F4, symBinAddr: 0x10002275C, symSize: 0x74 }
  - { offsetInCU: 0x2BB9C, offset: 0x2BB9C, size: 0x8, addend: 0x0, symName: __ZNSt3__1neB8ue170006IP3barS2_EEbRKNS_16reverse_iteratorIT_EERKNS3_IT0_EE, symObjAddr: 0x21168, symBinAddr: 0x1000227D0, symSize: 0x48 }
  - { offsetInCU: 0x2BFF9, offset: 0x2BFF9, size: 0x8, addend: 0x0, symName: __ZNSt3__14swapB8ue170006IPPP5eventEENS_9enable_ifIXaasr21is_move_constructibleIT_EE5valuesr18is_move_assignableIS6_EE5valueEvE4typeERS6_S9_, symObjAddr: 0x22A48, symBinAddr: 0x1000240B0, symSize: 0x3C }
  - { offsetInCU: 0x2C04A, offset: 0x2C04A, size: 0x8, addend: 0x0, symName: __ZNSt3__14moveB8ue170006IPPP5eventS4_EET0_T_S6_S5_, symObjAddr: 0x22B78, symBinAddr: 0x1000241E0, symSize: 0x40 }
  - { offsetInCU: 0x2C0A4, offset: 0x2C0A4, size: 0x8, addend: 0x0, symName: __ZNSt3__112__to_addressB8ue170006IPP5eventEEPT_S5_, symObjAddr: 0x22C80, symBinAddr: 0x1000242E8, symSize: 0x14 }
  - { offsetInCU: 0x2C0D9, offset: 0x2C0D9, size: 0x8, addend: 0x0, symName: __ZNSt3__16__moveB8ue170006INS_17_ClassicAlgPolicyEPPP5eventS5_S5_EENS_4pairIT0_T2_EES7_T1_S8_, symObjAddr: 0x22C94, symBinAddr: 0x1000242FC, symSize: 0x44 }
  - { offsetInCU: 0x2C145, offset: 0x2C145, size: 0x8, addend: 0x0, symName: __ZNSt3__123__dispatch_copy_or_moveB8ue170006INS_17_ClassicAlgPolicyENS_11__move_loopIS1_EENS_14__move_trivialEPPP5eventS8_S8_EENS_4pairIT2_T4_EESA_T3_SB_, symObjAddr: 0x22CD8, symBinAddr: 0x100024340, symSize: 0x44 }
  - { offsetInCU: 0x2C1C3, offset: 0x2C1C3, size: 0x8, addend: 0x0, symName: __ZNSt3__121__unwrap_and_dispatchB8ue170006INS_10__overloadINS_11__move_loopINS_17_ClassicAlgPolicyEEENS_14__move_trivialEEEPPP5eventSA_SA_Li0EEENS_4pairIT0_T2_EESC_T1_SD_, symObjAddr: 0x22D1C, symBinAddr: 0x100024384, symSize: 0xB4 }
  - { offsetInCU: 0x2C251, offset: 0x2C251, size: 0x8, addend: 0x0, symName: __ZNSt3__114__unwrap_rangeB8ue170006IPPP5eventS4_EENS_4pairIT0_S6_EET_S8_, symObjAddr: 0x22DD0, symBinAddr: 0x100024438, symSize: 0x60 }
  - { offsetInCU: 0x2C415, offset: 0x2C415, size: 0x8, addend: 0x0, symName: __ZNSt3__113__unwrap_iterB8ue170006IPPP5eventNS_18__unwrap_iter_implIS4_Lb1EEELi0EEEDTclsrT0_8__unwrapclsr3stdE7declvalIT_EEEES8_, symObjAddr: 0x22E78, symBinAddr: 0x1000244E0, symSize: 0x24 }
  - { offsetInCU: 0x2C459, offset: 0x2C459, size: 0x8, addend: 0x0, symName: __ZNSt3__19make_pairB8ue170006IPPP5eventS4_EENS_4pairINS_18__unwrap_ref_decayIT_E4typeENS6_IT0_E4typeEEEOS7_OSA_, symObjAddr: 0x22E9C, symBinAddr: 0x100024504, symSize: 0x38 }
  - { offsetInCU: 0x2C4A8, offset: 0x2C4A8, size: 0x8, addend: 0x0, symName: __ZNSt3__114__rewrap_rangeB8ue170006IPPP5eventS4_EET_S5_T0_, symObjAddr: 0x22ED4, symBinAddr: 0x10002453C, symSize: 0x2C }
  - { offsetInCU: 0x2C4F4, offset: 0x2C4F4, size: 0x8, addend: 0x0, symName: __ZNSt3__113__rewrap_iterB8ue170006IPPP5eventS4_NS_18__unwrap_iter_implIS4_Lb1EEEEET_S7_T0_, symObjAddr: 0x22F00, symBinAddr: 0x100024568, symSize: 0x3C }
  - { offsetInCU: 0x2C549, offset: 0x2C549, size: 0x8, addend: 0x0, symName: __ZNSt3__119__copy_trivial_implB8ue170006IPP5eventS3_EENS_4pairIPT_PT0_EES6_S6_S8_, symObjAddr: 0x22F3C, symBinAddr: 0x1000245A4, symSize: 0x80 }
  - { offsetInCU: 0x2C5B1, offset: 0x2C5B1, size: 0x8, addend: 0x0, symName: __ZNSt3__119__constexpr_memmoveB8ue170006IPP5eventS3_Li0EEEPT_S5_PT0_NS_15__element_countE, symObjAddr: 0x22FBC, symBinAddr: 0x100024624, symSize: 0x64 }
  - { offsetInCU: 0x2C61F, offset: 0x2C61F, size: 0x8, addend: 0x0, symName: __ZNSt3__19make_pairB8ue170006IRPPP5eventS4_EENS_4pairINS_18__unwrap_ref_decayIT_E4typeENS7_IT0_E4typeEEEOS8_OSB_, symObjAddr: 0x23020, symBinAddr: 0x100024688, symSize: 0x38 }
  - { offsetInCU: 0x2C6C1, offset: 0x2C6C1, size: 0x8, addend: 0x0, symName: __ZNSt3__18distanceB8ue170006INS_13move_iteratorIPPP5eventEEEENS_15iterator_traitsIT_E15difference_typeES8_S8_, symObjAddr: 0x23288, symBinAddr: 0x1000248F0, symSize: 0x3C }
  - { offsetInCU: 0x2C704, offset: 0x2C704, size: 0x8, addend: 0x0, symName: __ZNSt3__110__distanceB8ue170006INS_13move_iteratorIPPP5eventEEEENS_15iterator_traitsIT_E15difference_typeES8_S8_NS_26random_access_iterator_tagE, symObjAddr: 0x2348C, symBinAddr: 0x100024AF4, symSize: 0x30 }
  - { offsetInCU: 0x2C751, offset: 0x2C751, size: 0x8, addend: 0x0, symName: __ZNSt3__1miB8ue170006IPPP5eventS4_EEDTmicldtfp_4baseEcldtfp0_4baseEERKNS_13move_iteratorIT_EERKNS6_IT0_EE, symObjAddr: 0x234BC, symBinAddr: 0x100024B24, symSize: 0x48 }
  - { offsetInCU: 0x2C7A0, offset: 0x2C7A0, size: 0x8, addend: 0x0, symName: __ZNSt3__113move_backwardB8ue170006IPPP5eventS4_EET0_T_S6_S5_, symObjAddr: 0x23654, symBinAddr: 0x100024CBC, symSize: 0x40 }
  - { offsetInCU: 0x2C7FA, offset: 0x2C7FA, size: 0x8, addend: 0x0, symName: __ZNSt3__115__move_backwardB8ue170006INS_17_ClassicAlgPolicyEPPP5eventS5_S5_EENS_4pairIT0_T2_EES7_T1_S8_, symObjAddr: 0x23694, symBinAddr: 0x100024CFC, symSize: 0x44 }
  - { offsetInCU: 0x2C866, offset: 0x2C866, size: 0x8, addend: 0x0, symName: __ZNSt3__123__dispatch_copy_or_moveB8ue170006INS_17_ClassicAlgPolicyENS_20__move_backward_loopIS1_EENS_23__move_backward_trivialEPPP5eventS8_S8_EENS_4pairIT2_T4_EESA_T3_SB_, symObjAddr: 0x236D8, symBinAddr: 0x100024D40, symSize: 0x44 }
  - { offsetInCU: 0x2C8E4, offset: 0x2C8E4, size: 0x8, addend: 0x0, symName: __ZNSt3__121__unwrap_and_dispatchB8ue170006INS_10__overloadINS_20__move_backward_loopINS_17_ClassicAlgPolicyEEENS_23__move_backward_trivialEEEPPP5eventSA_SA_Li0EEENS_4pairIT0_T2_EESC_T1_SD_, symObjAddr: 0x2371C, symBinAddr: 0x100024D84, symSize: 0xB4 }
  - { offsetInCU: 0x2C9B8, offset: 0x2C9B8, size: 0x8, addend: 0x0, symName: __ZNSt3__128__copy_backward_trivial_implB8ue170006IPP5eventS3_EENS_4pairIPT_PT0_EES6_S6_S8_, symObjAddr: 0x23818, symBinAddr: 0x100024E80, symSize: 0x90 }
  - { offsetInCU: 0x2CA20, offset: 0x2CA20, size: 0x8, addend: 0x0, symName: __ZNSt3__19make_pairB8ue170006IRPPP5eventS5_EENS_4pairINS_18__unwrap_ref_decayIT_E4typeENS7_IT0_E4typeEEEOS8_OSB_, symObjAddr: 0x238A8, symBinAddr: 0x100024F10, symSize: 0x38 }
  - { offsetInCU: 0x2CA6F, offset: 0x2CA6F, size: 0x8, addend: 0x0, symName: __ZNSt3__112__to_addressB8ue170006IP5eventEEPT_S4_, symObjAddr: 0x23968, symBinAddr: 0x100024FD0, symSize: 0x14 }
  - { offsetInCU: 0x2CAA4, offset: 0x2CAA4, size: 0x8, addend: 0x0, symName: __ZNSt3__119__allocate_at_leastB8ue170006INS_9allocatorIPP5eventEEEENS_19__allocation_resultINS_16allocator_traitsIT_E7pointerEEERS8_m, symObjAddr: 0x23B30, symBinAddr: 0x100025198, symSize: 0x40 }
  - { offsetInCU: 0x2CAE7, offset: 0x2CAE7, size: 0x8, addend: 0x0, symName: __ZNSt3__1neB8ue170006ERKNS_20__map_const_iteratorINS_21__tree_const_iteratorINS_12__value_typeINS_12basic_stringIcNS_11char_traitsIcEENS_9allocatorIcEEEEbEEPNS_11__tree_nodeIS9_PvEElEEEESH_, symObjAddr: 0x25580, symBinAddr: 0x100026BE8, symSize: 0x30 }
  - { offsetInCU: 0x2CB24, offset: 0x2CB24, size: 0x8, addend: 0x0, symName: __ZNSt3__1neB8ue170006ERKNS_21__tree_const_iteratorINS_12__value_typeINS_12basic_stringIcNS_11char_traitsIcEENS_9allocatorIcEEEEbEEPNS_11__tree_nodeIS8_PvEElEESF_, symObjAddr: 0x25688, symBinAddr: 0x100026CF0, symSize: 0x34 }
  - { offsetInCU: 0x2CB61, offset: 0x2CB61, size: 0x8, addend: 0x0, symName: __ZNSt3__1eqB8ue170006ERKNS_21__tree_const_iteratorINS_12__value_typeINS_12basic_stringIcNS_11char_traitsIcEENS_9allocatorIcEEEEbEEPNS_11__tree_nodeIS8_PvEElEESF_, symObjAddr: 0x256BC, symBinAddr: 0x100026D24, symSize: 0x30 }
  - { offsetInCU: 0x2CB9E, offset: 0x2CB9E, size: 0x8, addend: 0x0, symName: __ZNSt3__14nextB8ue170006INS_21__tree_const_iteratorINS_12__value_typeINS_12basic_stringIcNS_11char_traitsIcEENS_9allocatorIcEEEEbEEPNS_11__tree_nodeIS9_PvEElEEEENS_9enable_ifIXsr29__has_input_iterator_categoryIT_EE5valueESG_E4typeESG_NS_15iterator_traitsISG_E15difference_typeE, symObjAddr: 0x261C4, symBinAddr: 0x10002782C, symSize: 0x3C }
  - { offsetInCU: 0x2CBE1, offset: 0x2CBE1, size: 0x8, addend: 0x0, symName: __ZNSt3__19__advanceB8ue170006INS_21__tree_const_iteratorINS_12__value_typeINS_12basic_stringIcNS_11char_traitsIcEENS_9allocatorIcEEEEbEEPNS_11__tree_nodeIS9_PvEElEEEEvRT_NS_15iterator_traitsISF_E15difference_typeENS_26bidirectional_iterator_tagE, symObjAddr: 0x26334, symBinAddr: 0x10002799C, symSize: 0xA4 }
  - { offsetInCU: 0x2CCAE, offset: 0x2CCAE, size: 0x8, addend: 0x0, symName: __ZNSt3__116__pad_and_outputB8ue170006IcNS_11char_traitsIcEEEENS_19ostreambuf_iteratorIT_T0_EES6_PKS4_S8_S8_RNS_8ios_baseES4_, symObjAddr: 0x2711C, symBinAddr: 0x100028784, symSize: 0x240 }
  - { offsetInCU: 0x2CD7D, offset: 0x2CD7D, size: 0x8, addend: 0x0, symName: __ZNSt3__18distanceB8ue170006INS_16__deque_iteratorIP5eventPKS3_RS4_PKS5_lLl512EEEEENS_15iterator_traitsIT_E15difference_typeESB_SB_, symObjAddr: 0x28094, symBinAddr: 0x1000296FC, symSize: 0x4C }
  - { offsetInCU: 0x2CDC0, offset: 0x2CDC0, size: 0x8, addend: 0x0, symName: __ZNSt3__1neB8ue170006ERKNS_5dequeIP5eventNS_9allocatorIS2_EEE13__deque_rangeES8_, symObjAddr: 0x2881C, symBinAddr: 0x100029E84, symSize: 0x34 }
  - { offsetInCU: 0x2CDFD, offset: 0x2CDFD, size: 0x8, addend: 0x0, symName: __ZNSt3__1eqB8ue170006ERKNS_5dequeIP5eventNS_9allocatorIS2_EEE13__deque_rangeES8_, symObjAddr: 0x28F6C, symBinAddr: 0x10002A5D4, symSize: 0x30 }
  - { offsetInCU: 0x2CE3A, offset: 0x2CE3A, size: 0x8, addend: 0x0, symName: __ZNSt3__1eqB8ue170006ERKNS_16__deque_iteratorIP5eventPS2_RS2_PS3_lLl512EEES8_, symObjAddr: 0x28F9C, symBinAddr: 0x10002A604, symSize: 0x30 }
  - { offsetInCU: 0x2CE77, offset: 0x2CE77, size: 0x8, addend: 0x0, symName: __ZNSt3__110__distanceB8ue170006INS_16__deque_iteratorIP5eventPKS3_RS4_PKS5_lLl512EEEEENS_15iterator_traitsIT_E15difference_typeESB_SB_NS_26random_access_iterator_tagE, symObjAddr: 0x29100, symBinAddr: 0x10002A768, symSize: 0x38 }
  - { offsetInCU: 0x2CEC4, offset: 0x2CEC4, size: 0x8, addend: 0x0, symName: __ZNSt3__1miB8ue170006ERKNS_16__deque_iteratorIP5eventPKS2_RS3_PKS4_lLl512EEESA_, symObjAddr: 0x29138, symBinAddr: 0x10002A7A0, symSize: 0xA4 }
  - { offsetInCU: 0x2CF01, offset: 0x2CF01, size: 0x8, addend: 0x0, symName: __ZNSt3__1neB8ue170006ERKNS_16__deque_iteratorIP5eventPKS2_RS3_PKS4_lLl512EEESA_, symObjAddr: 0x291DC, symBinAddr: 0x10002A844, symSize: 0x34 }
  - { offsetInCU: 0x2CF3E, offset: 0x2CF3E, size: 0x8, addend: 0x0, symName: __ZNSt3__1eqB8ue170006ERKNS_16__deque_iteratorIP5eventPKS2_RS3_PKS4_lLl512EEESA_, symObjAddr: 0x29210, symBinAddr: 0x10002A878, symSize: 0x30 }
  - { offsetInCU: 0x2CF7B, offset: 0x2CF7B, size: 0x8, addend: 0x0, symName: __ZNSt3__1neB8ue170006ERKNS_16__deque_iteratorIP5eventPS2_RS2_PS3_lLl512EEES8_, symObjAddr: 0x296B8, symBinAddr: 0x10002AD20, symSize: 0x34 }
  - { offsetInCU: 0x2CFB8, offset: 0x2CFB8, size: 0x8, addend: 0x0, symName: __ZNSt3__112__to_addressB8ue170006I5eventEEPT_S3_, symObjAddr: 0x2A2BC, symBinAddr: 0x10002B924, symSize: 0x14 }
  - { offsetInCU: 0x2CFED, offset: 0x2CFED, size: 0x8, addend: 0x0, symName: __ZNSt3__142__uninitialized_allocator_move_if_noexceptB8ue170006INS_9allocatorINS_12basic_stringIcNS_11char_traitsIcEENS1_IcEEEEEENS_16reverse_iteratorIPS6_EESA_SA_EET2_RT_T0_T1_SB_, symObjAddr: 0x2A8C8, symBinAddr: 0x10002BF30, symSize: 0x11C }
  - { offsetInCU: 0x2D08D, offset: 0x2D08D, size: 0x8, addend: 0x0, symName: __ZNSt3__14swapB8ue170006IPNS_12basic_stringIcNS_11char_traitsIcEENS_9allocatorIcEEEEEENS_9enable_ifIXaasr21is_move_constructibleIT_EE5valuesr18is_move_assignableIS9_EE5valueEvE4typeERS9_SC_, symObjAddr: 0x2A9E4, symBinAddr: 0x10002C04C, symSize: 0x3C }
  - { offsetInCU: 0x2D0DE, offset: 0x2D0DE, size: 0x8, addend: 0x0, symName: __ZNSt3__122__make_exception_guardB8ue170006INS_29_AllocatorDestroyRangeReverseINS_9allocatorINS_12basic_stringIcNS_11char_traitsIcEENS2_IcEEEEEENS_16reverse_iteratorIPS7_EEEEEENS_28__exception_guard_exceptionsIT_EESE_, symObjAddr: 0x2AA20, symBinAddr: 0x10002C088, symSize: 0x4C }
  - { offsetInCU: 0x2D114, offset: 0x2D114, size: 0x8, addend: 0x0, symName: __ZNSt3__119__allocator_destroyB8ue170006INS_9allocatorINS_12basic_stringIcNS_11char_traitsIcEENS1_IcEEEEEENS_16reverse_iteratorINS8_IPS6_EEEESB_EEvRT_T0_T1_, symObjAddr: 0x2AC98, symBinAddr: 0x10002C300, symSize: 0x70 }
  - { offsetInCU: 0x2D179, offset: 0x2D179, size: 0x8, addend: 0x0, symName: __ZNSt3__1neB8ue170006INS_16reverse_iteratorIPNS_12basic_stringIcNS_11char_traitsIcEENS_9allocatorIcEEEEEES9_EEbRKNS1_IT_EERKNS1_IT0_EE, symObjAddr: 0x2AD44, symBinAddr: 0x10002C3AC, symSize: 0x60 }
  - { offsetInCU: 0x2D1C5, offset: 0x2D1C5, size: 0x8, addend: 0x0, symName: __ZNSt3__112__to_addressB8ue170006INS_16reverse_iteratorINS1_IPNS_12basic_stringIcNS_11char_traitsIcEENS_9allocatorIcEEEEEEEEvEEu7__decayIDTclsr19__to_address_helperIT_EE6__callclsr3stdE7declvalIRKSB_EEEEESD_, symObjAddr: 0x2ADA4, symBinAddr: 0x10002C40C, symSize: 0x24 }
  - { offsetInCU: 0x2E559, offset: 0x2E559, size: 0x8, addend: 0x0, symName: __ZSt28__throw_bad_array_new_lengthB8ue170006v, symObjAddr: 0x404C, symBinAddr: 0x1000056B4, symSize: 0x34 }
  - { offsetInCU: 0x319B0, offset: 0x319B0, size: 0x8, addend: 0x0, symName: __ZNKSt3__16chrono15__duration_castINS0_8durationIxNS_5ratioILl1ELl1000000EEEEENS2_IxNS3_ILl1ELl1EEEEES4_Lb1ELb0EEclB8ue170006ERKS5_, symObjAddr: 0xC4A0, symBinAddr: 0x10000DB08, symSize: 0x4C }
  - { offsetInCU: 0x31B64, offset: 0x31B64, size: 0x8, addend: 0x0, symName: __ZNSt3__16vectorIlNS_9allocatorIlEEE26__swap_out_circular_bufferERNS_14__split_bufferIlRS2_EE, symObjAddr: 0x10188, symBinAddr: 0x1000117F0, symSize: 0x110 }
  - { offsetInCU: 0x31BC4, offset: 0x31BC4, size: 0x8, addend: 0x0, symName: __ZNSt3__16vectorINS_3mapINS_12basic_stringIcNS_11char_traitsIcEENS_9allocatorIcEEEEdNS_4lessIS7_EENS5_INS_4pairIKS7_dEEEEEENS5_ISE_EEE26__swap_out_circular_bufferERNS_14__split_bufferISE_RSF_EE, symObjAddr: 0x138C8, symBinAddr: 0x100014F30, symSize: 0x110 }
  - { offsetInCU: 0x3200E, offset: 0x3200E, size: 0x8, addend: 0x0, symName: __ZNSt3__16vectorIdNS_9allocatorIdEEE26__swap_out_circular_bufferERNS_14__split_bufferIdRS2_EE, symObjAddr: 0x1D748, symBinAddr: 0x10001EDB0, symSize: 0x110 }
  - { offsetInCU: 0x32067, offset: 0x32067, size: 0x8, addend: 0x0, symName: __Z3powB8ue170006IdiENSt3__19enable_ifIXaasr3std13is_arithmeticIT_EE5valuesr3std13is_arithmeticIT0_EE5valueENS0_9__promoteIS2_S3_vEEE4type4typeES2_S3_, symObjAddr: 0x1BA9C, symBinAddr: 0x10001D104, symSize: 0x38 }
  - { offsetInCU: 0x322B0, offset: 0x322B0, size: 0x8, addend: 0x0, symName: __ZNSt3__16vectorI3barNS_9allocatorIS1_EEE26__swap_out_circular_bufferERNS_14__split_bufferIS1_RS3_EE, symObjAddr: 0x205A0, symBinAddr: 0x100021C08, symSize: 0x110 }
  - { offsetInCU: 0x32409, offset: 0x32409, size: 0x8, addend: 0x0, symName: __ZNSt3__16vectorINS_12basic_stringIcNS_11char_traitsIcEENS_9allocatorIcEEEENS4_IS6_EEE26__swap_out_circular_bufferERNS_14__split_bufferIS6_RS7_EE, symObjAddr: 0x2A554, symBinAddr: 0x10002BBBC, symSize: 0x110 }
  - { offsetInCU: 0x34827, offset: 0x34827, size: 0x8, addend: 0x0, symName: __ZN9fillEvent23calculate_ib_commissionEf, symObjAddr: 0x0, symBinAddr: 0x100001668, symSize: 0x40 }
  - { offsetInCU: 0x349D5, offset: 0x349D5, size: 0x8, addend: 0x0, symName: __ZN19historicDataHandler15get_latest_barsENSt3__112basic_stringIcNS0_11char_traitsIcEENS0_9allocatorIcEEEEi, symObjAddr: 0x40, symBinAddr: 0x1000016A8, symSize: 0x130 }
  - { offsetInCU: 0x34A37, offset: 0x34A37, size: 0x8, addend: 0x0, symName: __ZNSt3__13mapINS_12basic_stringIcNS_11char_traitsIcEENS_9allocatorIcEEEEPNS_6vectorI3barNS4_IS8_EEEENS_4lessIS6_EENS4_INS_4pairIKS6_SB_EEEEEixERSF_, symObjAddr: 0x170, symBinAddr: 0x1000017D8, symSize: 0x80 }
  - { offsetInCU: 0x34A6E, offset: 0x34A6E, size: 0x8, addend: 0x0, symName: __ZNSt3__16vectorI3barNS_9allocatorIS1_EEEC1B8ue170006Ev, symObjAddr: 0x1F0, symBinAddr: 0x100001858, symSize: 0x2C }
  - { offsetInCU: 0x34A98, offset: 0x34A98, size: 0x8, addend: 0x0, symName: __ZNKSt3__16vectorI3barNS_9allocatorIS1_EEE4sizeB8ue170006Ev, symObjAddr: 0x21C, symBinAddr: 0x100001884, symSize: 0x28 }
  - { offsetInCU: 0x34ABE, offset: 0x34ABE, size: 0x8, addend: 0x0, symName: __ZNSt3__16vectorI3barNS_9allocatorIS1_EEE9push_backB8ue170006ERKS1_, symObjAddr: 0x244, symBinAddr: 0x1000018AC, symSize: 0x6C }
  - { offsetInCU: 0x34AF5, offset: 0x34AF5, size: 0x8, addend: 0x0, symName: __ZNSt3__16vectorI3barNS_9allocatorIS1_EEE2atEm, symObjAddr: 0x2B0, symBinAddr: 0x100001918, symSize: 0x68 }
  - { offsetInCU: 0x34B2C, offset: 0x34B2C, size: 0x8, addend: 0x0, symName: __ZNSt3__16vectorI3barNS_9allocatorIS1_EEED1B8ue170006Ev, symObjAddr: 0x318, symBinAddr: 0x100001980, symSize: 0x2C }
  - { offsetInCU: 0x34B56, offset: 0x34B56, size: 0x8, addend: 0x0, symName: __ZN19historicDataHandler11update_barsEv, symObjAddr: 0x344, symBinAddr: 0x1000019AC, symSize: 0x188 }
  - { offsetInCU: 0x34BF2, offset: 0x34BF2, size: 0x8, addend: 0x0, symName: __ZNSt3__16vectorINS_12basic_stringIcNS_11char_traitsIcEENS_9allocatorIcEEEENS4_IS6_EEE5beginB8ue170006Ev, symObjAddr: 0x4CC, symBinAddr: 0x100001B34, symSize: 0x30 }
  - { offsetInCU: 0x34C1A, offset: 0x34C1A, size: 0x8, addend: 0x0, symName: __ZNSt3__16vectorINS_12basic_stringIcNS_11char_traitsIcEENS_9allocatorIcEEEENS4_IS6_EEE3endB8ue170006Ev, symObjAddr: 0x4FC, symBinAddr: 0x100001B64, symSize: 0x30 }
  - { offsetInCU: 0x34C42, offset: 0x34C42, size: 0x8, addend: 0x0, symName: __ZNKSt3__111__wrap_iterIPNS_12basic_stringIcNS_11char_traitsIcEENS_9allocatorIcEEEEEdeB8ue170006Ev, symObjAddr: 0x560, symBinAddr: 0x100001BC8, symSize: 0x18 }
  - { offsetInCU: 0x34C68, offset: 0x34C68, size: 0x8, addend: 0x0, symName: __ZN19historicDataHandler12_get_new_barENSt3__112basic_stringIcNS0_11char_traitsIcEENS0_9allocatorIcEEEE, symObjAddr: 0x578, symBinAddr: 0x100001BE0, symSize: 0x358 }
  - { offsetInCU: 0x34CED, offset: 0x34CED, size: 0x8, addend: 0x0, symName: __ZNSt3__111__wrap_iterIPNS_12basic_stringIcNS_11char_traitsIcEENS_9allocatorIcEEEEEppB8ue170006Ev, symObjAddr: 0x8D0, symBinAddr: 0x100001F38, symSize: 0x20 }
  - { offsetInCU: 0x34D50, offset: 0x34D50, size: 0x8, addend: 0x0, symName: __ZN11marketEventC1Ev, symObjAddr: 0x8F0, symBinAddr: 0x100001F58, symSize: 0x2C }
  - { offsetInCU: 0x34D7A, offset: 0x34D7A, size: 0x8, addend: 0x0, symName: __ZNSt3__15dequeIP5eventNS_9allocatorIS2_EEE9push_backEOS2_, symObjAddr: 0x91C, symBinAddr: 0x100001F84, symSize: 0xAC }
  - { offsetInCU: 0x34DC0, offset: 0x34DC0, size: 0x8, addend: 0x0, symName: __ZN8strategyC2EP11dataHandlerRNSt3__15dequeIP5eventNS2_9allocatorIS5_EEEE, symObjAddr: 0x9C8, symBinAddr: 0x100002030, symSize: 0xA4 }
  - { offsetInCU: 0x34E08, offset: 0x34E08, size: 0x8, addend: 0x0, symName: __ZN13strategy_baseC2EP11dataHandlerRNSt3__15dequeIP5eventNS2_9allocatorIS5_EEEE, symObjAddr: 0xA6C, symBinAddr: 0x1000020D4, symSize: 0xB0 }
  - { offsetInCU: 0x34E4E, offset: 0x34E4E, size: 0x8, addend: 0x0, symName: __ZN8strategy25_calculate_initial_boughtEv, symObjAddr: 0xB1C, symBinAddr: 0x100002184, symSize: 0x144 }
  - { offsetInCU: 0x34ECE, offset: 0x34ECE, size: 0x8, addend: 0x0, symName: __ZNSt3__13mapINS_12basic_stringIcNS_11char_traitsIcEENS_9allocatorIcEEEEbNS_4lessIS6_EENS4_INS_4pairIKS6_bEEEEEaSB8ue170006EOSD_, symObjAddr: 0xC60, symBinAddr: 0x1000022C8, symSize: 0x34 }
  - { offsetInCU: 0x34F03, offset: 0x34F03, size: 0x8, addend: 0x0, symName: __ZNSt3__13mapINS_12basic_stringIcNS_11char_traitsIcEENS_9allocatorIcEEEEbNS_4lessIS6_EENS4_INS_4pairIKS6_bEEEEED1B8ue170006Ev, symObjAddr: 0xC94, symBinAddr: 0x1000022FC, symSize: 0x2C }
  - { offsetInCU: 0x34F2D, offset: 0x34F2D, size: 0x8, addend: 0x0, symName: __ZN13strategy_baseD2Ev, symObjAddr: 0xCC0, symBinAddr: 0x100002328, symSize: 0x4C }
  - { offsetInCU: 0x34F59, offset: 0x34F59, size: 0x8, addend: 0x0, symName: __ZN8strategyC1EP11dataHandlerRNSt3__15dequeIP5eventNS2_9allocatorIS5_EEEE, symObjAddr: 0xD0C, symBinAddr: 0x100002374, symSize: 0x3C }
  - { offsetInCU: 0x34FA1, offset: 0x34FA1, size: 0x8, addend: 0x0, symName: __ZNSt3__13mapINS_12basic_stringIcNS_11char_traitsIcEENS_9allocatorIcEEEEbNS_4lessIS6_EENS4_INS_4pairIKS6_bEEEEEC1B8ue170006Ev, symObjAddr: 0xD48, symBinAddr: 0x1000023B0, symSize: 0x2C }
  - { offsetInCU: 0x34FCB, offset: 0x34FCB, size: 0x8, addend: 0x0, symName: __ZNSt3__13mapINS_12basic_stringIcNS_11char_traitsIcEENS_9allocatorIcEEEEbNS_4lessIS6_EENS4_INS_4pairIKS6_bEEEEEC1B8ue170006ERKSD_, symObjAddr: 0xD74, symBinAddr: 0x1000023DC, symSize: 0x34 }
  - { offsetInCU: 0x35004, offset: 0x35004, size: 0x8, addend: 0x0, symName: __ZNSt3__13mapINS_12basic_stringIcNS_11char_traitsIcEENS_9allocatorIcEEEEbNS_4lessIS6_EENS4_INS_4pairIKS6_bEEEEEixERSA_, symObjAddr: 0xDA8, symBinAddr: 0x100002410, symSize: 0x80 }
  - { offsetInCU: 0x3503B, offset: 0x3503B, size: 0x8, addend: 0x0, symName: __ZN8strategy17calculate_signalsE5event, symObjAddr: 0xE28, symBinAddr: 0x100002490, symSize: 0x32C }
  - { offsetInCU: 0x350F5, offset: 0x350F5, size: 0x8, addend: 0x0, symName: __ZNSt3__16vectorI3barNS_9allocatorIS1_EEEixB8ue170006Em, symObjAddr: 0x1200, symBinAddr: 0x100002868, symSize: 0x2C }
  - { offsetInCU: 0x35132, offset: 0x35132, size: 0x8, addend: 0x0, symName: __ZNSt3__112basic_stringIcNS_11char_traitsIcEENS_9allocatorIcEEEC1B8ue170006ILi0EEEPKc, symObjAddr: 0x122C, symBinAddr: 0x100002894, symSize: 0x34 }
  - { offsetInCU: 0x35171, offset: 0x35171, size: 0x8, addend: 0x0, symName: __ZN11signalEventC1ENSt3__112basic_stringIcNS0_11char_traitsIcEENS0_9allocatorIcEEEElS6_lS6_, symObjAddr: 0x1260, symBinAddr: 0x1000028C8, symSize: 0x54 }
  - { offsetInCU: 0x3528A, offset: 0x3528A, size: 0x8, addend: 0x0, symName: __ZN25simulatedExecutionHandlerC2ERNSt3__15dequeIP5eventNS0_9allocatorIS3_EEEE, symObjAddr: 0x12B4, symBinAddr: 0x10000291C, symSize: 0x50 }
  - { offsetInCU: 0x352C4, offset: 0x352C4, size: 0x8, addend: 0x0, symName: __ZN16executionHandlerC2Ev, symObjAddr: 0x1304, symBinAddr: 0x10000296C, symSize: 0x24 }
  - { offsetInCU: 0x352F0, offset: 0x352F0, size: 0x8, addend: 0x0, symName: __ZN25simulatedExecutionHandlerC1ERNSt3__15dequeIP5eventNS0_9allocatorIS3_EEEE, symObjAddr: 0x1328, symBinAddr: 0x100002990, symSize: 0x34 }
  - { offsetInCU: 0x3532A, offset: 0x3532A, size: 0x8, addend: 0x0, symName: __ZN25simulatedExecutionHandler13execute_orderE10orderEvent, symObjAddr: 0x135C, symBinAddr: 0x1000029C4, symSize: 0x1E8 }
  - { offsetInCU: 0x353DA, offset: 0x353DA, size: 0x8, addend: 0x0, symName: __ZNKSt3__16chrono10time_pointINS0_12system_clockENS0_8durationIxNS_5ratioILl1ELl1000000EEEEEE16time_since_epochB8ue170006Ev, symObjAddr: 0x1544, symBinAddr: 0x100002BAC, symSize: 0x20 }
  - { offsetInCU: 0x35400, offset: 0x35400, size: 0x8, addend: 0x0, symName: __ZNKSt3__16chrono8durationIxNS_5ratioILl1ELl1EEEE5countB8ue170006Ev, symObjAddr: 0x1594, symBinAddr: 0x100002BFC, symSize: 0x18 }
  - { offsetInCU: 0x35426, offset: 0x35426, size: 0x8, addend: 0x0, symName: __ZN9fillEventC1ENSt3__112basic_stringIcNS0_11char_traitsIcEENS0_9allocatorIcEEEEfS6_iS6_ff, symObjAddr: 0x15AC, symBinAddr: 0x100002C14, symSize: 0x64 }
  - { offsetInCU: 0x3555E, offset: 0x3555E, size: 0x8, addend: 0x0, symName: __ZN5WhileC2EPNSt3__16vectorINS0_12basic_stringIcNS0_11char_traitsIcEENS0_9allocatorIcEEEENS5_IS7_EEEES7_lllS7_, symObjAddr: 0x1610, symBinAddr: 0x100002C78, symSize: 0xD8 }
  - { offsetInCU: 0x355E0, offset: 0x355E0, size: 0x8, addend: 0x0, symName: __ZNSt3__112basic_stringIcNS_11char_traitsIcEENS_9allocatorIcEEEC1B8ue170006Ev, symObjAddr: 0x16E8, symBinAddr: 0x100002D50, symSize: 0x2C }
  - { offsetInCU: 0x3560A, offset: 0x3560A, size: 0x8, addend: 0x0, symName: __ZN5WhileC1EPNSt3__16vectorINS0_12basic_stringIcNS0_11char_traitsIcEENS0_9allocatorIcEEEENS5_IS7_EEEES7_lllS7_, symObjAddr: 0x1714, symBinAddr: 0x100002D7C, symSize: 0x5C }
  - { offsetInCU: 0x3568C, offset: 0x3568C, size: 0x8, addend: 0x0, symName: __ZN5While10while_loopEv, symObjAddr: 0x1770, symBinAddr: 0x100002DD8, symSize: 0x85C }
  - { offsetInCU: 0x3572B, offset: 0x3572B, size: 0x8, addend: 0x0, symName: __ZNSt3__15dequeIP5eventNS_9allocatorIS2_EEEC1B8ue170006Ev, symObjAddr: 0x1FCC, symBinAddr: 0x100003634, symSize: 0x2C }
  - { offsetInCU: 0x35755, offset: 0x35755, size: 0x8, addend: 0x0, symName: __ZNSt3__15dequeIP5eventNS_9allocatorIS2_EEEC1ERKS5_, symObjAddr: 0x1FF8, symBinAddr: 0x100003660, symSize: 0x34 }
  - { offsetInCU: 0x35790, offset: 0x35790, size: 0x8, addend: 0x0, symName: __ZN19historicDataHandlerC1ERNSt3__15dequeIP5eventNS0_9allocatorIS3_EEEEllPNS0_6vectorINS0_12basic_stringIcNS0_11char_traitsIcEENS4_IcEEEENS4_ISD_EEEESD_, symObjAddr: 0x202C, symBinAddr: 0x100003694, symSize: 0x54 }
  - { offsetInCU: 0x35801, offset: 0x35801, size: 0x8, addend: 0x0, symName: __ZN14naivePortfolioC1EP11dataHandlerRNSt3__15dequeIP5eventNS2_9allocatorIS5_EEEEll, symObjAddr: 0x2080, symBinAddr: 0x1000036E8, symSize: 0x4C }
  - { offsetInCU: 0x35863, offset: 0x35863, size: 0x8, addend: 0x0, symName: __ZN10MPortfolioC1EP11dataHandlerRNSt3__15dequeIP5eventNS2_9allocatorIS5_EEEEll, symObjAddr: 0x20CC, symBinAddr: 0x100003734, symSize: 0x4C }
  - { offsetInCU: 0x358C5, offset: 0x358C5, size: 0x8, addend: 0x0, symName: __ZN10MRStrategyC1EP11dataHandlerRNSt3__15dequeIP5eventNS2_9allocatorIS5_EEEEi, symObjAddr: 0x2118, symBinAddr: 0x100003780, symSize: 0x44 }
  - { offsetInCU: 0x35919, offset: 0x35919, size: 0x8, addend: 0x0, symName: __ZNKSt3__15dequeIP5eventNS_9allocatorIS2_EEE4sizeB8ue170006Ev, symObjAddr: 0x215C, symBinAddr: 0x1000037C4, symSize: 0x28 }
  - { offsetInCU: 0x3593F, offset: 0x3593F, size: 0x8, addend: 0x0, symName: __ZNSt3__15dequeIP5eventNS_9allocatorIS2_EEE5frontEv, symObjAddr: 0x2184, symBinAddr: 0x1000037EC, symSize: 0x50 }
  - { offsetInCU: 0x35967, offset: 0x35967, size: 0x8, addend: 0x0, symName: __ZNSt3__15dequeIP5eventNS_9allocatorIS2_EEE9pop_frontEv, symObjAddr: 0x21D4, symBinAddr: 0x10000383C, symSize: 0xD4 }
  - { offsetInCU: 0x359BC, offset: 0x359BC, size: 0x8, addend: 0x0, symName: __ZN5eventC1ERKS_, symObjAddr: 0x233C, symBinAddr: 0x1000039A4, symSize: 0x34 }
  - { offsetInCU: 0x359F1, offset: 0x359F1, size: 0x8, addend: 0x0, symName: __ZN5eventD1Ev, symObjAddr: 0x2370, symBinAddr: 0x1000039D8, symSize: 0x2C }
  - { offsetInCU: 0x35A26, offset: 0x35A26, size: 0x8, addend: 0x0, symName: __ZN11signalEventC1ERKS_, symObjAddr: 0x239C, symBinAddr: 0x100003A04, symSize: 0x34 }
  - { offsetInCU: 0x35A5B, offset: 0x35A5B, size: 0x8, addend: 0x0, symName: __ZN11signalEventD1Ev, symObjAddr: 0x23D0, symBinAddr: 0x100003A38, symSize: 0x2C }
  - { offsetInCU: 0x35A92, offset: 0x35A92, size: 0x8, addend: 0x0, symName: __ZN10orderEventC1ERKS_, symObjAddr: 0x23FC, symBinAddr: 0x100003A64, symSize: 0x34 }
  - { offsetInCU: 0x35AC7, offset: 0x35AC7, size: 0x8, addend: 0x0, symName: __ZN10orderEventD1Ev, symObjAddr: 0x2430, symBinAddr: 0x100003A98, symSize: 0x2C }
  - { offsetInCU: 0x35AFE, offset: 0x35AFE, size: 0x8, addend: 0x0, symName: __ZN9fillEventC1ERKS_, symObjAddr: 0x245C, symBinAddr: 0x100003AC4, symSize: 0x34 }
  - { offsetInCU: 0x35B33, offset: 0x35B33, size: 0x8, addend: 0x0, symName: __ZN9fillEventD1Ev, symObjAddr: 0x2490, symBinAddr: 0x100003AF8, symSize: 0x2C }
  - { offsetInCU: 0x35B5F, offset: 0x35B5F, size: 0x8, addend: 0x0, symName: __ZNSt3__13mapINS_12basic_stringIcNS_11char_traitsIcEENS_9allocatorIcEEEEdNS_4lessIS6_EENS4_INS_4pairIKS6_dEEEEEixEOS6_, symObjAddr: 0x24BC, symBinAddr: 0x100003B24, symSize: 0x80 }
  - { offsetInCU: 0x35B96, offset: 0x35B96, size: 0x8, addend: 0x0, symName: __ZN19historicDataHandlerD1Ev, symObjAddr: 0x253C, symBinAddr: 0x100003BA4, symSize: 0x2C }
  - { offsetInCU: 0x35BC0, offset: 0x35BC0, size: 0x8, addend: 0x0, symName: __ZNSt3__15dequeIP5eventNS_9allocatorIS2_EEED1B8ue170006Ev, symObjAddr: 0x2568, symBinAddr: 0x100003BD0, symSize: 0x2C }
  - { offsetInCU: 0x35BE9, offset: 0x35BE9, size: 0x8, addend: 0x0, symName: __Z1tNSt3__112basic_stringIcNS_11char_traitsIcEENS_9allocatorIcEEEE, symObjAddr: 0x2594, symBinAddr: 0x100003BFC, symSize: 0xD4 }
  - { offsetInCU: 0x35C9F, offset: 0x35C9F, size: 0x8, addend: 0x0, symName: __ZNSt3__119basic_istringstreamIcNS_11char_traitsIcEENS_9allocatorIcEEEC1B8ue170006ERKNS_12basic_stringIcS2_S4_EEj, symObjAddr: 0x2668, symBinAddr: 0x100003CD0, symSize: 0xFC }
  - { offsetInCU: 0x35CED, offset: 0x35CED, size: 0x8, addend: 0x0, symName: __ZNSt3__119basic_istringstreamIcNS_11char_traitsIcEENS_9allocatorIcEEED1Ev, symObjAddr: 0x295C, symBinAddr: 0x100003FC4, symSize: 0x40 }
  - { offsetInCU: 0x35D1A, offset: 0x35D1A, size: 0x8, addend: 0x0, symName: _main, symObjAddr: 0x299C, symBinAddr: 0x100004004, symSize: 0x2A8 }
  - { offsetInCU: 0x35D7F, offset: 0x35D7F, size: 0x8, addend: 0x0, symName: __ZNSt3__15dequeI5eventNS_9allocatorIS1_EEEC1B8ue170006Ev, symObjAddr: 0x2C44, symBinAddr: 0x1000042AC, symSize: 0x2C }
  - { offsetInCU: 0x35DA9, offset: 0x35DA9, size: 0x8, addend: 0x0, symName: __ZNSt3__16vectorINS_12basic_stringIcNS_11char_traitsIcEENS_9allocatorIcEEEENS4_IS6_EEEC1B8ue170006Ev, symObjAddr: 0x2C70, symBinAddr: 0x1000042D8, symSize: 0x2C }
  - { offsetInCU: 0x35DD3, offset: 0x35DD3, size: 0x8, addend: 0x0, symName: __ZNSt3__16vectorINS_12basic_stringIcNS_11char_traitsIcEENS_9allocatorIcEEEENS4_IS6_EEE9push_backB8ue170006EOS6_, symObjAddr: 0x2C9C, symBinAddr: 0x100004304, symSize: 0x6C }
  - { offsetInCU: 0x35E0A, offset: 0x35E0A, size: 0x8, addend: 0x0, symName: __ZN5WhileD1Ev, symObjAddr: 0x2D08, symBinAddr: 0x100004370, symSize: 0x2C }
  - { offsetInCU: 0x35E36, offset: 0x35E36, size: 0x8, addend: 0x0, symName: __ZNSt3__16vectorINS_12basic_stringIcNS_11char_traitsIcEENS_9allocatorIcEEEENS4_IS6_EEED1B8ue170006Ev, symObjAddr: 0x2D34, symBinAddr: 0x10000439C, symSize: 0x2C }
  - { offsetInCU: 0x35E60, offset: 0x35E60, size: 0x8, addend: 0x0, symName: __ZN19historicDataHandlerD0Ev, symObjAddr: 0x2D60, symBinAddr: 0x1000043C8, symSize: 0x30 }
  - { offsetInCU: 0x35E8A, offset: 0x35E8A, size: 0x8, addend: 0x0, symName: __ZNKSt3__111__wrap_iterIPNS_12basic_stringIcNS_11char_traitsIcEENS_9allocatorIcEEEEE4baseB8ue170006Ev, symObjAddr: 0x2DD8, symBinAddr: 0x100004440, symSize: 0x18 }
  - { offsetInCU: 0x35EB0, offset: 0x35EB0, size: 0x8, addend: 0x0, symName: __ZNSt3__13mapINS_12basic_stringIcNS_11char_traitsIcEENS_9allocatorIcEEEEiNS_4lessIS6_EENS4_INS_4pairIKS6_iEEEEEixERSA_, symObjAddr: 0x2DF0, symBinAddr: 0x100004458, symSize: 0x80 }
  - { offsetInCU: 0x35EE7, offset: 0x35EE7, size: 0x8, addend: 0x0, symName: __ZNKSt3__16vectorIlNS_9allocatorIlEEE4sizeB8ue170006Ev, symObjAddr: 0x2E70, symBinAddr: 0x1000044D8, symSize: 0x28 }
  - { offsetInCU: 0x35F0D, offset: 0x35F0D, size: 0x8, addend: 0x0, symName: __ZNSt3__13mapINS_12basic_stringIcNS_11char_traitsIcEENS_9allocatorIcEEEENS0_IlNS0_IS6_dNS_4lessIS6_EENS4_INS_4pairIKS6_dEEEEEENS7_IlEENS4_INS9_IKlSD_EEEEEES8_NS4_INS9_ISA_SI_EEEEEixERSA_, symObjAddr: 0x2E98, symBinAddr: 0x100004500, symSize: 0x80 }
  - { offsetInCU: 0x35F44, offset: 0x35F44, size: 0x8, addend: 0x0, symName: __ZNSt3__13mapIlNS0_INS_12basic_stringIcNS_11char_traitsIcEENS_9allocatorIcEEEEdNS_4lessIS6_EENS4_INS_4pairIKS6_dEEEEEENS7_IlEENS4_INS9_IKlSD_EEEEEC1B8ue170006ERKSI_, symObjAddr: 0x2F18, symBinAddr: 0x100004580, symSize: 0x34 }
  - { offsetInCU: 0x35F7D, offset: 0x35F7D, size: 0x8, addend: 0x0, symName: __ZNSt3__16vectorIlNS_9allocatorIlEEEixB8ue170006Em, symObjAddr: 0x2F4C, symBinAddr: 0x1000045B4, symSize: 0x24 }
  - { offsetInCU: 0x35FB4, offset: 0x35FB4, size: 0x8, addend: 0x0, symName: __ZNSt3__13mapIlNS0_INS_12basic_stringIcNS_11char_traitsIcEENS_9allocatorIcEEEEdNS_4lessIS6_EENS4_INS_4pairIKS6_dEEEEEENS7_IlEENS4_INS9_IKlSD_EEEEEixERSF_, symObjAddr: 0x2F70, symBinAddr: 0x1000045D8, symSize: 0x80 }
  - { offsetInCU: 0x35FEB, offset: 0x35FEB, size: 0x8, addend: 0x0, symName: __ZNSt3__13mapIlNS0_INS_12basic_stringIcNS_11char_traitsIcEENS_9allocatorIcEEEEdNS_4lessIS6_EENS4_INS_4pairIKS6_dEEEEEENS7_IlEENS4_INS9_IKlSD_EEEEED1B8ue170006Ev, symObjAddr: 0x2FF0, symBinAddr: 0x100004658, symSize: 0x2C }
  - { offsetInCU: 0x3602D, offset: 0x3602D, size: 0x8, addend: 0x0, symName: __ZNSt3__16__treeINS_12__value_typeINS_12basic_stringIcNS_11char_traitsIcEENS_9allocatorIcEEEEiEENS_19__map_value_compareIS7_S8_NS_4lessIS7_EELb1EEENS5_IS8_EEE25__emplace_unique_key_argsIS7_JRKNS_21piecewise_construct_tENS_5tupleIJRKS7_EEENSJ_IJEEEEEENS_4pairINS_15__tree_iteratorIS8_PNS_11__tree_nodeIS8_PvEElEEbEERKT_DpOT0_, symObjAddr: 0x301C, symBinAddr: 0x100004684, symSize: 0x100 }
  - { offsetInCU: 0x36103, offset: 0x36103, size: 0x8, addend: 0x0, symName: __ZNKSt3__115__tree_iteratorINS_12__value_typeINS_12basic_stringIcNS_11char_traitsIcEENS_9allocatorIcEEEEiEEPNS_11__tree_nodeIS8_PvEElEptB8ue170006Ev, symObjAddr: 0x314C, symBinAddr: 0x1000047B4, symSize: 0x2C }
  - { offsetInCU: 0x36129, offset: 0x36129, size: 0x8, addend: 0x0, symName: __ZNSt3__112__value_typeINS_12basic_stringIcNS_11char_traitsIcEENS_9allocatorIcEEEEiE11__get_valueB8ue170006Ev, symObjAddr: 0x3178, symBinAddr: 0x1000047E0, symSize: 0x14 }
  - { offsetInCU: 0x3614F, offset: 0x3614F, size: 0x8, addend: 0x0, symName: __ZNSt3__16__treeINS_12__value_typeINS_12basic_stringIcNS_11char_traitsIcEENS_9allocatorIcEEEEiEENS_19__map_value_compareIS7_S8_NS_4lessIS7_EELb1EEENS5_IS8_EEE12__find_equalIS7_EERPNS_16__tree_node_baseIPvEERPNS_15__tree_end_nodeISJ_EERKT_, symObjAddr: 0x318C, symBinAddr: 0x1000047F4, symSize: 0x184 }
  - { offsetInCU: 0x361BC, offset: 0x361BC, size: 0x8, addend: 0x0, symName: __ZNSt3__16__treeINS_12__value_typeINS_12basic_stringIcNS_11char_traitsIcEENS_9allocatorIcEEEEiEENS_19__map_value_compareIS7_S8_NS_4lessIS7_EELb1EEENS5_IS8_EEE16__construct_nodeIJRKNS_21piecewise_construct_tENS_5tupleIJRKS7_EEENSJ_IJEEEEEENS_10unique_ptrINS_11__tree_nodeIS8_PvEENS_22__tree_node_destructorINS5_ISR_EEEEEEDpOT_, symObjAddr: 0x3310, symBinAddr: 0x100004978, symSize: 0x120 }
  - { offsetInCU: 0x36245, offset: 0x36245, size: 0x8, addend: 0x0, symName: __ZNSt3__16__treeINS_12__value_typeINS_12basic_stringIcNS_11char_traitsIcEENS_9allocatorIcEEEEiEENS_19__map_value_compareIS7_S8_NS_4lessIS7_EELb1EEENS5_IS8_EEE16__insert_node_atEPNS_15__tree_end_nodeIPNS_16__tree_node_baseIPvEEEERSJ_SJ_, symObjAddr: 0x3430, symBinAddr: 0x100004A98, symSize: 0xCC }
  - { offsetInCU: 0x3629A, offset: 0x3629A, size: 0x8, addend: 0x0, symName: __ZNKSt3__110unique_ptrINS_11__tree_nodeINS_12__value_typeINS_12basic_stringIcNS_11char_traitsIcEENS_9allocatorIcEEEEiEEPvEENS_22__tree_node_destructorINS6_ISB_EEEEE3getB8ue170006Ev, symObjAddr: 0x34FC, symBinAddr: 0x100004B64, symSize: 0x28 }
  - { offsetInCU: 0x362C0, offset: 0x362C0, size: 0x8, addend: 0x0, symName: __ZNSt3__110unique_ptrINS_11__tree_nodeINS_12__value_typeINS_12basic_stringIcNS_11char_traitsIcEENS_9allocatorIcEEEEiEEPvEENS_22__tree_node_destructorINS6_ISB_EEEEE7releaseB8ue170006Ev, symObjAddr: 0x3524, symBinAddr: 0x100004B8C, symSize: 0x44 }
  - { offsetInCU: 0x362F5, offset: 0x362F5, size: 0x8, addend: 0x0, symName: __ZNSt3__110unique_ptrINS_11__tree_nodeINS_12__value_typeINS_12basic_stringIcNS_11char_traitsIcEENS_9allocatorIcEEEEiEEPvEENS_22__tree_node_destructorINS6_ISB_EEEEED1B8ue170006Ev, symObjAddr: 0x3568, symBinAddr: 0x100004BD0, symSize: 0x2C }
  - { offsetInCU: 0x3631F, offset: 0x3631F, size: 0x8, addend: 0x0, symName: __ZNSt3__115__tree_iteratorINS_12__value_typeINS_12basic_stringIcNS_11char_traitsIcEENS_9allocatorIcEEEEiEEPNS_11__tree_nodeIS8_PvEElEC1B8ue170006ESC_, symObjAddr: 0x3594, symBinAddr: 0x100004BFC, symSize: 0x34 }
  - { offsetInCU: 0x3635E, offset: 0x3635E, size: 0x8, addend: 0x0, symName: __ZNSt3__14pairINS_15__tree_iteratorINS_12__value_typeINS_12basic_stringIcNS_11char_traitsIcEENS_9allocatorIcEEEEiEEPNS_11__tree_nodeIS9_PvEElEEbEC1B8ue170006ISE_RbLSB_0EEEOT_OT0_, symObjAddr: 0x35C8, symBinAddr: 0x100004C30, symSize: 0x3C }
  - { offsetInCU: 0x363BC, offset: 0x363BC, size: 0x8, addend: 0x0, symName: __ZNKSt3__16__treeINS_12__value_typeINS_12basic_stringIcNS_11char_traitsIcEENS_9allocatorIcEEEEiEENS_19__map_value_compareIS7_S8_NS_4lessIS7_EELb1EEENS5_IS8_EEE6__rootB8ue170006Ev, symObjAddr: 0x3604, symBinAddr: 0x100004C6C, symSize: 0x28 }
  - { offsetInCU: 0x363E2, offset: 0x363E2, size: 0x8, addend: 0x0, symName: __ZNKSt3__16__treeINS_12__value_typeINS_12basic_stringIcNS_11char_traitsIcEENS_9allocatorIcEEEEiEENS_19__map_value_compareIS7_S8_NS_4lessIS7_EELb1EEENS5_IS8_EEE10__root_ptrB8ue170006Ev, symObjAddr: 0x362C, symBinAddr: 0x100004C94, symSize: 0x24 }
  - { offsetInCU: 0x36408, offset: 0x36408, size: 0x8, addend: 0x0, symName: __ZNSt3__16__treeINS_12__value_typeINS_12basic_stringIcNS_11char_traitsIcEENS_9allocatorIcEEEEiEENS_19__map_value_compareIS7_S8_NS_4lessIS7_EELb1EEENS5_IS8_EEE10value_compB8ue170006Ev, symObjAddr: 0x3650, symBinAddr: 0x100004CB8, symSize: 0x28 }
  - { offsetInCU: 0x3642E, offset: 0x3642E, size: 0x8, addend: 0x0, symName: __ZNKSt3__119__map_value_compareINS_12basic_stringIcNS_11char_traitsIcEENS_9allocatorIcEEEENS_12__value_typeIS6_iEENS_4lessIS6_EELb1EEclB8ue170006ERKS6_RKS8_, symObjAddr: 0x3678, symBinAddr: 0x100004CE0, symSize: 0x50 }
  - { offsetInCU: 0x36472, offset: 0x36472, size: 0x8, addend: 0x0, symName: __ZNKSt3__119__map_value_compareINS_12basic_stringIcNS_11char_traitsIcEENS_9allocatorIcEEEENS_12__value_typeIS6_iEENS_4lessIS6_EELb1EEclB8ue170006ERKS8_RKS6_, symObjAddr: 0x36C8, symBinAddr: 0x100004D30, symSize: 0x48 }
  - { offsetInCU: 0x364B6, offset: 0x364B6, size: 0x8, addend: 0x0, symName: __ZNSt3__16__treeINS_12__value_typeINS_12basic_stringIcNS_11char_traitsIcEENS_9allocatorIcEEEEiEENS_19__map_value_compareIS7_S8_NS_4lessIS7_EELb1EEENS5_IS8_EEE10__end_nodeB8ue170006Ev, symObjAddr: 0x3710, symBinAddr: 0x100004D78, symSize: 0x2C }
  - { offsetInCU: 0x364DC, offset: 0x364DC, size: 0x8, addend: 0x0, symName: __ZNKSt3__16__treeINS_12__value_typeINS_12basic_stringIcNS_11char_traitsIcEENS_9allocatorIcEEEEiEENS_19__map_value_compareIS7_S8_NS_4lessIS7_EELb1EEENS5_IS8_EEE10__end_nodeB8ue170006Ev, symObjAddr: 0x373C, symBinAddr: 0x100004DA4, symSize: 0x2C }
  - { offsetInCU: 0x36502, offset: 0x36502, size: 0x8, addend: 0x0, symName: __ZNSt3__114pointer_traitsIPNS_15__tree_end_nodeIPNS_16__tree_node_baseIPvEEEEE10pointer_toB8ue170006ERS6_, symObjAddr: 0x3768, symBinAddr: 0x100004DD0, symSize: 0x14 }
  - { offsetInCU: 0x36525, offset: 0x36525, size: 0x8, addend: 0x0, symName: __ZNKSt3__117__compressed_pairINS_15__tree_end_nodeIPNS_16__tree_node_baseIPvEEEENS_9allocatorINS_11__tree_nodeINS_12__value_typeINS_12basic_stringIcNS_11char_traitsIcEENS7_IcEEEEiEES3_EEEEE5firstB8ue170006Ev, symObjAddr: 0x377C, symBinAddr: 0x100004DE4, symSize: 0x24 }
  - { offsetInCU: 0x3654B, offset: 0x3654B, size: 0x8, addend: 0x0, symName: __ZNKSt3__122__compressed_pair_elemINS_15__tree_end_nodeIPNS_16__tree_node_baseIPvEEEELi0ELb0EE5__getB8ue170006Ev, symObjAddr: 0x37A0, symBinAddr: 0x100004E08, symSize: 0x14 }
  - { offsetInCU: 0x36571, offset: 0x36571, size: 0x8, addend: 0x0, symName: __ZNSt3__117__compressed_pairImNS_19__map_value_compareINS_12basic_stringIcNS_11char_traitsIcEENS_9allocatorIcEEEENS_12__value_typeIS7_iEENS_4lessIS7_EELb1EEEE6secondB8ue170006Ev, symObjAddr: 0x37B4, symBinAddr: 0x100004E1C, symSize: 0x24 }
  - { offsetInCU: 0x36597, offset: 0x36597, size: 0x8, addend: 0x0, symName: __ZNSt3__122__compressed_pair_elemINS_19__map_value_compareINS_12basic_stringIcNS_11char_traitsIcEENS_9allocatorIcEEEENS_12__value_typeIS7_iEENS_4lessIS7_EELb1EEELi1ELb1EE5__getB8ue170006Ev, symObjAddr: 0x37D8, symBinAddr: 0x100004E40, symSize: 0x14 }
  - { offsetInCU: 0x365BD, offset: 0x365BD, size: 0x8, addend: 0x0, symName: __ZNKSt3__14lessINS_12basic_stringIcNS_11char_traitsIcEENS_9allocatorIcEEEEEclB8ue170006ERKS6_S9_, symObjAddr: 0x37EC, symBinAddr: 0x100004E54, symSize: 0x34 }
  - { offsetInCU: 0x36601, offset: 0x36601, size: 0x8, addend: 0x0, symName: __ZNKSt3__112__value_typeINS_12basic_stringIcNS_11char_traitsIcEENS_9allocatorIcEEEEiE11__get_valueB8ue170006Ev, symObjAddr: 0x3820, symBinAddr: 0x100004E88, symSize: 0x14 }
  - { offsetInCU: 0x36627, offset: 0x36627, size: 0x8, addend: 0x0, symName: __ZNKSt3__112basic_stringIcNS_11char_traitsIcEENS_9allocatorIcEEE7compareB8ue170006ERKS5_, symObjAddr: 0x386C, symBinAddr: 0x100004ED4, symSize: 0x4C }
  - { offsetInCU: 0x3665E, offset: 0x3665E, size: 0x8, addend: 0x0, symName: __ZNKSt3__112basic_stringIcNS_11char_traitsIcEENS_9allocatorIcEEE7compareINS_17basic_string_viewIcS2_EELi0EEEiRKT_, symObjAddr: 0x38B8, symBinAddr: 0x100004F20, symSize: 0x12C }
  - { offsetInCU: 0x366E1, offset: 0x366E1, size: 0x8, addend: 0x0, symName: __ZNKSt3__112basic_stringIcNS_11char_traitsIcEENS_9allocatorIcEEEcvNS_17basic_string_viewIcS2_EEB8ue170006Ev, symObjAddr: 0x39E4, symBinAddr: 0x10000504C, symSize: 0x50 }
  - { offsetInCU: 0x36707, offset: 0x36707, size: 0x8, addend: 0x0, symName: __ZNKSt3__112basic_stringIcNS_11char_traitsIcEENS_9allocatorIcEEE4sizeB8ue170006Ev, symObjAddr: 0x3A34, symBinAddr: 0x10000509C, symSize: 0x54 }
  - { offsetInCU: 0x3672D, offset: 0x3672D, size: 0x8, addend: 0x0, symName: __ZNKSt3__117basic_string_viewIcNS_11char_traitsIcEEE4sizeB8ue170006Ev, symObjAddr: 0x3A88, symBinAddr: 0x1000050F0, symSize: 0x18 }
  - { offsetInCU: 0x36753, offset: 0x36753, size: 0x8, addend: 0x0, symName: __ZNSt3__111char_traitsIcE7compareB8ue170006EPKcS3_m, symObjAddr: 0x3AA0, symBinAddr: 0x100005108, symSize: 0x34 }
  - { offsetInCU: 0x36792, offset: 0x36792, size: 0x8, addend: 0x0, symName: __ZNKSt3__112basic_stringIcNS_11char_traitsIcEENS_9allocatorIcEEE4dataB8ue170006Ev, symObjAddr: 0x3AD4, symBinAddr: 0x10000513C, symSize: 0x28 }
  - { offsetInCU: 0x367B8, offset: 0x367B8, size: 0x8, addend: 0x0, symName: __ZNKSt3__117basic_string_viewIcNS_11char_traitsIcEEE4dataB8ue170006Ev, symObjAddr: 0x3AFC, symBinAddr: 0x100005164, symSize: 0x18 }
  - { offsetInCU: 0x367DE, offset: 0x367DE, size: 0x8, addend: 0x0, symName: __ZNKSt3__112basic_stringIcNS_11char_traitsIcEENS_9allocatorIcEEE9__is_longB8ue170006Ev, symObjAddr: 0x3B4C, symBinAddr: 0x1000051B4, symSize: 0x38 }
  - { offsetInCU: 0x36804, offset: 0x36804, size: 0x8, addend: 0x0, symName: __ZNKSt3__112basic_stringIcNS_11char_traitsIcEENS_9allocatorIcEEE15__get_long_sizeB8ue170006Ev, symObjAddr: 0x3B84, symBinAddr: 0x1000051EC, symSize: 0x28 }
  - { offsetInCU: 0x3682A, offset: 0x3682A, size: 0x8, addend: 0x0, symName: __ZNKSt3__112basic_stringIcNS_11char_traitsIcEENS_9allocatorIcEEE16__get_short_sizeB8ue170006Ev, symObjAddr: 0x3BAC, symBinAddr: 0x100005214, symSize: 0x34 }
  - { offsetInCU: 0x36850, offset: 0x36850, size: 0x8, addend: 0x0, symName: __ZNKSt3__117__compressed_pairINS_12basic_stringIcNS_11char_traitsIcEENS_9allocatorIcEEE5__repES5_E5firstB8ue170006Ev, symObjAddr: 0x3BE0, symBinAddr: 0x100005248, symSize: 0x24 }
  - { offsetInCU: 0x36876, offset: 0x36876, size: 0x8, addend: 0x0, symName: __ZNKSt3__122__compressed_pair_elemINS_12basic_stringIcNS_11char_traitsIcEENS_9allocatorIcEEE5__repELi0ELb0EE5__getB8ue170006Ev, symObjAddr: 0x3C04, symBinAddr: 0x10000526C, symSize: 0x14 }
  - { offsetInCU: 0x3689C, offset: 0x3689C, size: 0x8, addend: 0x0, symName: __ZNKSt3__112basic_stringIcNS_11char_traitsIcEENS_9allocatorIcEEE13__get_pointerB8ue170006Ev, symObjAddr: 0x3C2C, symBinAddr: 0x100005294, symSize: 0x54 }
  - { offsetInCU: 0x368C2, offset: 0x368C2, size: 0x8, addend: 0x0, symName: __ZNKSt3__112basic_stringIcNS_11char_traitsIcEENS_9allocatorIcEEE18__get_long_pointerB8ue170006Ev, symObjAddr: 0x3C80, symBinAddr: 0x1000052E8, symSize: 0x28 }
  - { offsetInCU: 0x368E8, offset: 0x368E8, size: 0x8, addend: 0x0, symName: __ZNKSt3__112basic_stringIcNS_11char_traitsIcEENS_9allocatorIcEEE19__get_short_pointerB8ue170006Ev, symObjAddr: 0x3CA8, symBinAddr: 0x100005310, symSize: 0x28 }
  - { offsetInCU: 0x3690E, offset: 0x3690E, size: 0x8, addend: 0x0, symName: __ZNSt3__114pointer_traitsIPKcE10pointer_toB8ue170006ERS1_, symObjAddr: 0x3CD0, symBinAddr: 0x100005338, symSize: 0x14 }
  - { offsetInCU: 0x3693C, offset: 0x3693C, size: 0x8, addend: 0x0, symName: __ZNKSt3__16__lessIvvEclB8ue170006ImmEEbRKT_RKT0_, symObjAddr: 0x3D38, symBinAddr: 0x1000053A0, symSize: 0x34 }
  - { offsetInCU: 0x36990, offset: 0x36990, size: 0x8, addend: 0x0, symName: __ZNSt3__117basic_string_viewIcNS_11char_traitsIcEEEC1B8ue170006EPKcm, symObjAddr: 0x3D6C, symBinAddr: 0x1000053D4, symSize: 0x3C }
  - { offsetInCU: 0x369D8, offset: 0x369D8, size: 0x8, addend: 0x0, symName: __ZNSt3__117basic_string_viewIcNS_11char_traitsIcEEEC2B8ue170006EPKcm, symObjAddr: 0x3DA8, symBinAddr: 0x100005410, symSize: 0x2C }
  - { offsetInCU: 0x36A20, offset: 0x36A20, size: 0x8, addend: 0x0, symName: __ZNSt3__117__compressed_pairINS_15__tree_end_nodeIPNS_16__tree_node_baseIPvEEEENS_9allocatorINS_11__tree_nodeINS_12__value_typeINS_12basic_stringIcNS_11char_traitsIcEENS7_IcEEEEiEES3_EEEEE5firstB8ue170006Ev, symObjAddr: 0x3DD4, symBinAddr: 0x10000543C, symSize: 0x24 }
  - { offsetInCU: 0x36A46, offset: 0x36A46, size: 0x8, addend: 0x0, symName: __ZNSt3__122__compressed_pair_elemINS_15__tree_end_nodeIPNS_16__tree_node_baseIPvEEEELi0ELb0EE5__getB8ue170006Ev, symObjAddr: 0x3DF8, symBinAddr: 0x100005460, symSize: 0x14 }
  - { offsetInCU: 0x36A6C, offset: 0x36A6C, size: 0x8, addend: 0x0, symName: __ZNSt3__16__treeINS_12__value_typeINS_12basic_stringIcNS_11char_traitsIcEENS_9allocatorIcEEEEiEENS_19__map_value_compareIS7_S8_NS_4lessIS7_EELb1EEENS5_IS8_EEE12__node_allocB8ue170006Ev, symObjAddr: 0x3E0C, symBinAddr: 0x100005474, symSize: 0x28 }
  - { offsetInCU: 0x36A92, offset: 0x36A92, size: 0x8, addend: 0x0, symName: __ZNSt3__116allocator_traitsINS_9allocatorINS_11__tree_nodeINS_12__value_typeINS_12basic_stringIcNS_11char_traitsIcEENS1_IcEEEEiEEPvEEEEE8allocateB8ue170006ERSC_m, symObjAddr: 0x3E34, symBinAddr: 0x10000549C, symSize: 0x2C }
  - { offsetInCU: 0x36AC5, offset: 0x36AC5, size: 0x8, addend: 0x0, symName: __ZNSt3__122__tree_node_destructorINS_9allocatorINS_11__tree_nodeINS_12__value_typeINS_12basic_stringIcNS_11char_traitsIcEENS1_IcEEEEiEEPvEEEEEC1B8ue170006ERSC_b, symObjAddr: 0x3E60, symBinAddr: 0x1000054C8, symSize: 0x48 }
  - { offsetInCU: 0x36B13, offset: 0x36B13, size: 0x8, addend: 0x0, symName: __ZNSt3__110unique_ptrINS_11__tree_nodeINS_12__value_typeINS_12basic_stringIcNS_11char_traitsIcEENS_9allocatorIcEEEEiEEPvEENS_22__tree_node_destructorINS6_ISB_EEEEEC1B8ue170006ILb1EvEEPSB_NS_16__dependent_typeINS_27__unique_ptr_deleter_sfinaeISE_EEXT_EE20__good_rval_ref_typeE, symObjAddr: 0x3EA8, symBinAddr: 0x100005510, symSize: 0x3C }
  - { offsetInCU: 0x36B64, offset: 0x36B64, size: 0x8, addend: 0x0, symName: __ZNSt3__116allocator_traitsINS_9allocatorINS_11__tree_nodeINS_12__value_typeINS_12basic_stringIcNS_11char_traitsIcEENS1_IcEEEEiEEPvEEEEE9constructB8ue170006INS_4pairIKS8_iEEJRKNS_21piecewise_construct_tENS_5tupleIJRSG_EEENSL_IJEEEEvEEvRSC_PT_DpOT0_, symObjAddr: 0x3EE4, symBinAddr: 0x10000554C, symSize: 0x44 }
  - { offsetInCU: 0x36BE3, offset: 0x36BE3, size: 0x8, addend: 0x0, symName: __ZNSt3__122__tree_key_value_typesINS_12__value_typeINS_12basic_stringIcNS_11char_traitsIcEENS_9allocatorIcEEEEiEEE9__get_ptrB8ue170006ERS8_, symObjAddr: 0x3F28, symBinAddr: 0x100005590, symSize: 0x24 }
  - { offsetInCU: 0x36C07, offset: 0x36C07, size: 0x8, addend: 0x0, symName: __ZNKSt3__110unique_ptrINS_11__tree_nodeINS_12__value_typeINS_12basic_stringIcNS_11char_traitsIcEENS_9allocatorIcEEEEiEEPvEENS_22__tree_node_destructorINS6_ISB_EEEEEptB8ue170006Ev, symObjAddr: 0x3F4C, symBinAddr: 0x1000055B4, symSize: 0x28 }
  - { offsetInCU: 0x36C2D, offset: 0x36C2D, size: 0x8, addend: 0x0, symName: __ZNSt3__110unique_ptrINS_11__tree_nodeINS_12__value_typeINS_12basic_stringIcNS_11char_traitsIcEENS_9allocatorIcEEEEiEEPvEENS_22__tree_node_destructorINS6_ISB_EEEEE11get_deleterB8ue170006Ev, symObjAddr: 0x3F74, symBinAddr: 0x1000055DC, symSize: 0x24 }
  - { offsetInCU: 0x36C53, offset: 0x36C53, size: 0x8, addend: 0x0, symName: __ZNSt3__117__compressed_pairINS_15__tree_end_nodeIPNS_16__tree_node_baseIPvEEEENS_9allocatorINS_11__tree_nodeINS_12__value_typeINS_12basic_stringIcNS_11char_traitsIcEENS7_IcEEEEiEES3_EEEEE6secondB8ue170006Ev, symObjAddr: 0x3F98, symBinAddr: 0x100005600, symSize: 0x24 }
  - { offsetInCU: 0x36C79, offset: 0x36C79, size: 0x8, addend: 0x0, symName: __ZNSt3__122__compressed_pair_elemINS_9allocatorINS_11__tree_nodeINS_12__value_typeINS_12basic_stringIcNS_11char_traitsIcEENS1_IcEEEEiEEPvEEEELi1ELb1EE5__getB8ue170006Ev, symObjAddr: 0x3FBC, symBinAddr: 0x100005624, symSize: 0x14 }
  - { offsetInCU: 0x36C9F, offset: 0x36C9F, size: 0x8, addend: 0x0, symName: __ZNSt3__19allocatorINS_11__tree_nodeINS_12__value_typeINS_12basic_stringIcNS_11char_traitsIcEENS0_IcEEEEiEEPvEEE8allocateB8ue170006Em, symObjAddr: 0x3FD0, symBinAddr: 0x100005638, symSize: 0x58 }
  - { offsetInCU: 0x36CDE, offset: 0x36CDE, size: 0x8, addend: 0x0, symName: __ZNSt3__116allocator_traitsINS_9allocatorINS_11__tree_nodeINS_12__value_typeINS_12basic_stringIcNS_11char_traitsIcEENS1_IcEEEEiEEPvEEEEE8max_sizeB8ue170006ISC_vEEmRKSC_, symObjAddr: 0x4028, symBinAddr: 0x100005690, symSize: 0x24 }
  - { offsetInCU: 0x36D0C, offset: 0x36D0C, size: 0x8, addend: 0x0, symName: __ZNKSt3__19allocatorINS_11__tree_nodeINS_12__value_typeINS_12basic_stringIcNS_11char_traitsIcEENS0_IcEEEEiEEPvEEE8max_sizeB8ue170006Ev, symObjAddr: 0x40A8, symBinAddr: 0x100005710, symSize: 0x14 }
  - { offsetInCU: 0x36D32, offset: 0x36D32, size: 0x8, addend: 0x0, symName: __ZNSt3__122__tree_node_destructorINS_9allocatorINS_11__tree_nodeINS_12__value_typeINS_12basic_stringIcNS_11char_traitsIcEENS1_IcEEEEiEEPvEEEEEC2B8ue170006ERSC_b, symObjAddr: 0x40E0, symBinAddr: 0x100005748, symSize: 0x38 }
  - { offsetInCU: 0x36D7A, offset: 0x36D7A, size: 0x8, addend: 0x0, symName: __ZNSt3__110unique_ptrINS_11__tree_nodeINS_12__value_typeINS_12basic_stringIcNS_11char_traitsIcEENS_9allocatorIcEEEEiEEPvEENS_22__tree_node_destructorINS6_ISB_EEEEEC2B8ue170006ILb1EvEEPSB_NS_16__dependent_typeINS_27__unique_ptr_deleter_sfinaeISE_EEXT_EE20__good_rval_ref_typeE, symObjAddr: 0x4118, symBinAddr: 0x100005780, symSize: 0x48 }
  - { offsetInCU: 0x36DCB, offset: 0x36DCB, size: 0x8, addend: 0x0, symName: __ZNSt3__117__compressed_pairIPNS_11__tree_nodeINS_12__value_typeINS_12basic_stringIcNS_11char_traitsIcEENS_9allocatorIcEEEEiEEPvEENS_22__tree_node_destructorINS6_ISB_EEEEEC1B8ue170006IRSC_SF_EEOT_OT0_, symObjAddr: 0x4160, symBinAddr: 0x1000057C8, symSize: 0x3C }
  - { offsetInCU: 0x36E23, offset: 0x36E23, size: 0x8, addend: 0x0, symName: __ZNSt3__117__compressed_pairIPNS_11__tree_nodeINS_12__value_typeINS_12basic_stringIcNS_11char_traitsIcEENS_9allocatorIcEEEEiEEPvEENS_22__tree_node_destructorINS6_ISB_EEEEEC2B8ue170006IRSC_SF_EEOT_OT0_, symObjAddr: 0x419C, symBinAddr: 0x100005804, symSize: 0x48 }
  - { offsetInCU: 0x36E7B, offset: 0x36E7B, size: 0x8, addend: 0x0, symName: __ZNSt3__122__compressed_pair_elemIPNS_11__tree_nodeINS_12__value_typeINS_12basic_stringIcNS_11char_traitsIcEENS_9allocatorIcEEEEiEEPvEELi0ELb0EEC2B8ue170006IRSC_vEEOT_, symObjAddr: 0x41E4, symBinAddr: 0x10000584C, symSize: 0x24 }
  - { offsetInCU: 0x36EBD, offset: 0x36EBD, size: 0x8, addend: 0x0, symName: __ZNSt3__122__compressed_pair_elemINS_22__tree_node_destructorINS_9allocatorINS_11__tree_nodeINS_12__value_typeINS_12basic_stringIcNS_11char_traitsIcEENS2_IcEEEEiEEPvEEEEEELi1ELb0EEC2B8ue170006ISE_vEEOT_, symObjAddr: 0x4208, symBinAddr: 0x100005870, symSize: 0x24 }
  - { offsetInCU: 0x36EFF, offset: 0x36EFF, size: 0x8, addend: 0x0, symName: __ZNSt3__19allocatorINS_11__tree_nodeINS_12__value_typeINS_12basic_stringIcNS_11char_traitsIcEENS0_IcEEEEiEEPvEEE9constructB8ue170006INS_4pairIKS7_iEEJRKNS_21piecewise_construct_tENS_5tupleIJRSE_EEENSJ_IJEEEEEEvPT_DpOT0_, symObjAddr: 0x422C, symBinAddr: 0x100005894, symSize: 0x44 }
  - { offsetInCU: 0x36F7B, offset: 0x36F7B, size: 0x8, addend: 0x0, symName: __ZNSt3__14pairIKNS_12basic_stringIcNS_11char_traitsIcEENS_9allocatorIcEEEEiEC1B8ue170006IJRS7_EJEEENS_21piecewise_construct_tENS_5tupleIJDpT_EEENSC_IJDpT0_EEE, symObjAddr: 0x4270, symBinAddr: 0x1000058D8, symSize: 0x3C }
  - { offsetInCU: 0x36FE2, offset: 0x36FE2, size: 0x8, addend: 0x0, symName: __ZNSt3__14pairIKNS_12basic_stringIcNS_11char_traitsIcEENS_9allocatorIcEEEEiEC1B8ue170006IJRS7_EJEJLm0EEJEEENS_21piecewise_construct_tERNS_5tupleIJDpT_EEERNSC_IJDpT0_EEENS_15__tuple_indicesIJXspT1_EEEENSL_IJXspT2_EEEE, symObjAddr: 0x42AC, symBinAddr: 0x100005914, symSize: 0x3C }
  - { offsetInCU: 0x3706F, offset: 0x3706F, size: 0x8, addend: 0x0, symName: __ZNSt3__14pairIKNS_12basic_stringIcNS_11char_traitsIcEENS_9allocatorIcEEEEiEC2B8ue170006IJRS7_EJEJLm0EEJEEENS_21piecewise_construct_tERNS_5tupleIJDpT_EEERNSC_IJDpT0_EEENS_15__tuple_indicesIJXspT1_EEEENSL_IJXspT2_EEEE, symObjAddr: 0x42E8, symBinAddr: 0x100005950, symSize: 0x48 }
  - { offsetInCU: 0x370FC, offset: 0x370FC, size: 0x8, addend: 0x0, symName: __ZNSt3__112__tuple_leafILm0ERKNS_12basic_stringIcNS_11char_traitsIcEENS_9allocatorIcEEEELb0EE3getB8ue170006Ev, symObjAddr: 0x4354, symBinAddr: 0x1000059BC, symSize: 0x18 }
  - { offsetInCU: 0x37122, offset: 0x37122, size: 0x8, addend: 0x0, symName: __ZNKSt3__117__compressed_pairIPNS_11__tree_nodeINS_12__value_typeINS_12basic_stringIcNS_11char_traitsIcEENS_9allocatorIcEEEEiEEPvEENS_22__tree_node_destructorINS6_ISB_EEEEE5firstB8ue170006Ev, symObjAddr: 0x436C, symBinAddr: 0x1000059D4, symSize: 0x24 }
  - { offsetInCU: 0x37148, offset: 0x37148, size: 0x8, addend: 0x0, symName: __ZNKSt3__122__compressed_pair_elemIPNS_11__tree_nodeINS_12__value_typeINS_12basic_stringIcNS_11char_traitsIcEENS_9allocatorIcEEEEiEEPvEELi0ELb0EE5__getB8ue170006Ev, symObjAddr: 0x4390, symBinAddr: 0x1000059F8, symSize: 0x14 }
  - { offsetInCU: 0x3716E, offset: 0x3716E, size: 0x8, addend: 0x0, symName: __ZNSt3__117__compressed_pairIPNS_11__tree_nodeINS_12__value_typeINS_12basic_stringIcNS_11char_traitsIcEENS_9allocatorIcEEEEiEEPvEENS_22__tree_node_destructorINS6_ISB_EEEEE6secondB8ue170006Ev, symObjAddr: 0x43A4, symBinAddr: 0x100005A0C, symSize: 0x28 }
  - { offsetInCU: 0x37194, offset: 0x37194, size: 0x8, addend: 0x0, symName: __ZNSt3__122__compressed_pair_elemINS_22__tree_node_destructorINS_9allocatorINS_11__tree_nodeINS_12__value_typeINS_12basic_stringIcNS_11char_traitsIcEENS2_IcEEEEiEEPvEEEEEELi1ELb0EE5__getB8ue170006Ev, symObjAddr: 0x43CC, symBinAddr: 0x100005A34, symSize: 0x14 }
  - { offsetInCU: 0x371BA, offset: 0x371BA, size: 0x8, addend: 0x0, symName: __ZNSt3__16__treeINS_12__value_typeINS_12basic_stringIcNS_11char_traitsIcEENS_9allocatorIcEEEEiEENS_19__map_value_compareIS7_S8_NS_4lessIS7_EELb1EEENS5_IS8_EEE12__begin_nodeB8ue170006Ev, symObjAddr: 0x43E0, symBinAddr: 0x100005A48, symSize: 0x14 }
  - { offsetInCU: 0x371E0, offset: 0x371E0, size: 0x8, addend: 0x0, symName: __ZNSt3__16__treeINS_12__value_typeINS_12basic_stringIcNS_11char_traitsIcEENS_9allocatorIcEEEEiEENS_19__map_value_compareIS7_S8_NS_4lessIS7_EELb1EEENS5_IS8_EEE4sizeB8ue170006Ev, symObjAddr: 0x4720, symBinAddr: 0x100005D88, symSize: 0x28 }
  - { offsetInCU: 0x37206, offset: 0x37206, size: 0x8, addend: 0x0, symName: __ZNKSt3__116__tree_node_baseIPvE15__parent_unsafeB8ue170006Ev, symObjAddr: 0x4748, symBinAddr: 0x100005DB0, symSize: 0x18 }
  - { offsetInCU: 0x3722C, offset: 0x3722C, size: 0x8, addend: 0x0, symName: __ZNSt3__116__tree_node_baseIPvE12__set_parentB8ue170006EPS2_, symObjAddr: 0x4930, symBinAddr: 0x100005F98, symSize: 0x20 }
  - { offsetInCU: 0x37261, offset: 0x37261, size: 0x8, addend: 0x0, symName: __ZNSt3__117__compressed_pairImNS_19__map_value_compareINS_12basic_stringIcNS_11char_traitsIcEENS_9allocatorIcEEEENS_12__value_typeIS7_iEENS_4lessIS7_EELb1EEEE5firstB8ue170006Ev, symObjAddr: 0x4950, symBinAddr: 0x100005FB8, symSize: 0x24 }
  - { offsetInCU: 0x37287, offset: 0x37287, size: 0x8, addend: 0x0, symName: __ZNSt3__122__compressed_pair_elemImLi0ELb0EE5__getB8ue170006Ev, symObjAddr: 0x4974, symBinAddr: 0x100005FDC, symSize: 0x14 }
  - { offsetInCU: 0x372AD, offset: 0x372AD, size: 0x8, addend: 0x0, symName: __ZNSt3__117__compressed_pairIPNS_11__tree_nodeINS_12__value_typeINS_12basic_stringIcNS_11char_traitsIcEENS_9allocatorIcEEEEiEEPvEENS_22__tree_node_destructorINS6_ISB_EEEEE5firstB8ue170006Ev, symObjAddr: 0x4988, symBinAddr: 0x100005FF0, symSize: 0x24 }
  - { offsetInCU: 0x372D3, offset: 0x372D3, size: 0x8, addend: 0x0, symName: __ZNSt3__122__compressed_pair_elemIPNS_11__tree_nodeINS_12__value_typeINS_12basic_stringIcNS_11char_traitsIcEENS_9allocatorIcEEEEiEEPvEELi0ELb0EE5__getB8ue170006Ev, symObjAddr: 0x49AC, symBinAddr: 0x100006014, symSize: 0x14 }
  - { offsetInCU: 0x372F9, offset: 0x372F9, size: 0x8, addend: 0x0, symName: __ZNSt3__110unique_ptrINS_11__tree_nodeINS_12__value_typeINS_12basic_stringIcNS_11char_traitsIcEENS_9allocatorIcEEEEiEEPvEENS_22__tree_node_destructorINS6_ISB_EEEEED2B8ue170006Ev, symObjAddr: 0x49C0, symBinAddr: 0x100006028, symSize: 0x30 }
  - { offsetInCU: 0x37323, offset: 0x37323, size: 0x8, addend: 0x0, symName: __ZNSt3__110unique_ptrINS_11__tree_nodeINS_12__value_typeINS_12basic_stringIcNS_11char_traitsIcEENS_9allocatorIcEEEEiEEPvEENS_22__tree_node_destructorINS6_ISB_EEEEE5resetB8ue170006EPSB_, symObjAddr: 0x49F0, symBinAddr: 0x100006058, symSize: 0x78 }
  - { offsetInCU: 0x37367, offset: 0x37367, size: 0x8, addend: 0x0, symName: __ZNSt3__122__tree_node_destructorINS_9allocatorINS_11__tree_nodeINS_12__value_typeINS_12basic_stringIcNS_11char_traitsIcEENS1_IcEEEEiEEPvEEEEEclB8ue170006EPSB_, symObjAddr: 0x4A68, symBinAddr: 0x1000060D0, symSize: 0x98 }
  - { offsetInCU: 0x3739C, offset: 0x3739C, size: 0x8, addend: 0x0, symName: __ZNSt3__116allocator_traitsINS_9allocatorINS_11__tree_nodeINS_12__value_typeINS_12basic_stringIcNS_11char_traitsIcEENS1_IcEEEEiEEPvEEEEE7destroyB8ue170006INS_4pairIKS8_iEEvvEEvRSC_PT_, symObjAddr: 0x4B00, symBinAddr: 0x100006168, symSize: 0x28 }
  - { offsetInCU: 0x373D6, offset: 0x373D6, size: 0x8, addend: 0x0, symName: __ZNSt3__116allocator_traitsINS_9allocatorINS_11__tree_nodeINS_12__value_typeINS_12basic_stringIcNS_11char_traitsIcEENS1_IcEEEEiEEPvEEEEE10deallocateB8ue170006ERSC_PSB_m, symObjAddr: 0x4B28, symBinAddr: 0x100006190, symSize: 0x34 }
  - { offsetInCU: 0x37418, offset: 0x37418, size: 0x8, addend: 0x0, symName: __ZNSt3__14pairIKNS_12basic_stringIcNS_11char_traitsIcEENS_9allocatorIcEEEEiED1Ev, symObjAddr: 0x4B5C, symBinAddr: 0x1000061C4, symSize: 0x2C }
  - { offsetInCU: 0x37444, offset: 0x37444, size: 0x8, addend: 0x0, symName: __ZNSt3__14pairIKNS_12basic_stringIcNS_11char_traitsIcEENS_9allocatorIcEEEEiED2Ev, symObjAddr: 0x4B88, symBinAddr: 0x1000061F0, symSize: 0x2C }
  - { offsetInCU: 0x37470, offset: 0x37470, size: 0x8, addend: 0x0, symName: __ZNSt3__19allocatorINS_11__tree_nodeINS_12__value_typeINS_12basic_stringIcNS_11char_traitsIcEENS0_IcEEEEiEEPvEEE10deallocateB8ue170006EPSA_m, symObjAddr: 0x4BB4, symBinAddr: 0x10000621C, symSize: 0x40 }
  - { offsetInCU: 0x374B2, offset: 0x374B2, size: 0x8, addend: 0x0, symName: __ZNSt3__115__tree_iteratorINS_12__value_typeINS_12basic_stringIcNS_11char_traitsIcEENS_9allocatorIcEEEEiEEPNS_11__tree_nodeIS8_PvEElEC2B8ue170006ESC_, symObjAddr: 0x4C70, symBinAddr: 0x1000062D8, symSize: 0x20 }
  - { offsetInCU: 0x374EB, offset: 0x374EB, size: 0x8, addend: 0x0, symName: __ZNSt3__14pairINS_15__tree_iteratorINS_12__value_typeINS_12basic_stringIcNS_11char_traitsIcEENS_9allocatorIcEEEEiEEPNS_11__tree_nodeIS9_PvEElEEbEC2B8ue170006ISE_RbLSB_0EEEOT_OT0_, symObjAddr: 0x4C90, symBinAddr: 0x1000062F8, symSize: 0x38 }
  - { offsetInCU: 0x37549, offset: 0x37549, size: 0x8, addend: 0x0, symName: __ZNSt3__15tupleIJRKNS_12basic_stringIcNS_11char_traitsIcEENS_9allocatorIcEEEEEEC1B8ue170006INS_4_AndELi0EEES8_, symObjAddr: 0x4CC8, symBinAddr: 0x100006330, symSize: 0x34 }
  - { offsetInCU: 0x37591, offset: 0x37591, size: 0x8, addend: 0x0, symName: __ZNSt3__15tupleIJRKNS_12basic_stringIcNS_11char_traitsIcEENS_9allocatorIcEEEEEEC2B8ue170006INS_4_AndELi0EEES8_, symObjAddr: 0x4CFC, symBinAddr: 0x100006364, symSize: 0x34 }
  - { offsetInCU: 0x375D9, offset: 0x375D9, size: 0x8, addend: 0x0, symName: __ZNSt3__112__tuple_implINS_15__tuple_indicesIJLm0EEEEJRKNS_12basic_stringIcNS_11char_traitsIcEENS_9allocatorIcEEEEEEC1B8ue170006IJLm0EEJSA_EJEJEJSA_EEENS1_IJXspT_EEEENS_13__tuple_typesIJDpT0_EEENS1_IJXspT1_EEEENSE_IJDpT2_EEEDpOT3_, symObjAddr: 0x4D30, symBinAddr: 0x100006398, symSize: 0x34 }
  - { offsetInCU: 0x3766A, offset: 0x3766A, size: 0x8, addend: 0x0, symName: __ZNSt3__112__tuple_implINS_15__tuple_indicesIJLm0EEEEJRKNS_12basic_stringIcNS_11char_traitsIcEENS_9allocatorIcEEEEEEC2B8ue170006IJLm0EEJSA_EJEJEJSA_EEENS1_IJXspT_EEEENS_13__tuple_typesIJDpT0_EEENS1_IJXspT1_EEEENSE_IJDpT2_EEEDpOT3_, symObjAddr: 0x4D64, symBinAddr: 0x1000063CC, symSize: 0x34 }
  - { offsetInCU: 0x376FB, offset: 0x376FB, size: 0x8, addend: 0x0, symName: __ZNSt3__112__tuple_leafILm0ERKNS_12basic_stringIcNS_11char_traitsIcEENS_9allocatorIcEEEELb0EEC2B8ue170006IS8_vEEOT_, symObjAddr: 0x4D98, symBinAddr: 0x100006400, symSize: 0x20 }
  - { offsetInCU: 0x3773E, offset: 0x3773E, size: 0x8, addend: 0x0, symName: __ZNSt3__114pointer_traitsIPNS_12__value_typeINS_12basic_stringIcNS_11char_traitsIcEENS_9allocatorIcEEEEiEEE10pointer_toB8ue170006ERS8_, symObjAddr: 0x4DB8, symBinAddr: 0x100006420, symSize: 0x14 }
  - { offsetInCU: 0x37761, offset: 0x37761, size: 0x8, addend: 0x0, symName: __ZNKSt3__115__tree_iteratorINS_12__value_typeINS_12basic_stringIcNS_11char_traitsIcEENS_9allocatorIcEEEEiEEPNS_11__tree_nodeIS8_PvEElE8__get_npB8ue170006Ev, symObjAddr: 0x4DCC, symBinAddr: 0x100006434, symSize: 0x18 }
  - { offsetInCU: 0x37787, offset: 0x37787, size: 0x8, addend: 0x0, symName: __ZNSt3__16__treeINS_12__value_typeINS_12basic_stringIcNS_11char_traitsIcEENS_9allocatorIcEEEENS_3mapIlNS8_IS7_dNS_4lessIS7_EENS5_INS_4pairIKS7_dEEEEEENS9_IlEENS5_INSB_IKlSF_EEEEEEEENS_19__map_value_compareIS7_SL_SA_Lb1EEENS5_ISL_EEE25__emplace_unique_key_argsIS7_JRKNS_21piecewise_construct_tENS_5tupleIJRSC_EEENSU_IJEEEEEENSB_INS_15__tree_iteratorISL_PNS_11__tree_nodeISL_PvEElEEbEERKT_DpOT0_, symObjAddr: 0x4DE4, symBinAddr: 0x10000644C, symSize: 0x100 }
  - { offsetInCU: 0x3785D, offset: 0x3785D, size: 0x8, addend: 0x0, symName: __ZNKSt3__115__tree_iteratorINS_12__value_typeINS_12basic_stringIcNS_11char_traitsIcEENS_9allocatorIcEEEENS_3mapIlNS8_IS7_dNS_4lessIS7_EENS5_INS_4pairIKS7_dEEEEEENS9_IlEENS5_INSB_IKlSF_EEEEEEEEPNS_11__tree_nodeISL_PvEElEptB8ue170006Ev, symObjAddr: 0x4EE4, symBinAddr: 0x10000654C, symSize: 0x2C }
  - { offsetInCU: 0x37883, offset: 0x37883, size: 0x8, addend: 0x0, symName: __ZNSt3__112__value_typeINS_12basic_stringIcNS_11char_traitsIcEENS_9allocatorIcEEEENS_3mapIlNS7_IS6_dNS_4lessIS6_EENS4_INS_4pairIKS6_dEEEEEENS8_IlEENS4_INSA_IKlSE_EEEEEEE11__get_valueB8ue170006Ev, symObjAddr: 0x4F10, symBinAddr: 0x100006578, symSize: 0x14 }
  - { offsetInCU: 0x378A9, offset: 0x378A9, size: 0x8, addend: 0x0, symName: __ZNSt3__16__treeINS_12__value_typeINS_12basic_stringIcNS_11char_traitsIcEENS_9allocatorIcEEEENS_3mapIlNS8_IS7_dNS_4lessIS7_EENS5_INS_4pairIKS7_dEEEEEENS9_IlEENS5_INSB_IKlSF_EEEEEEEENS_19__map_value_compareIS7_SL_SA_Lb1EEENS5_ISL_EEE12__find_equalIS7_EERPNS_16__tree_node_baseIPvEERPNS_15__tree_end_nodeISU_EERKT_, symObjAddr: 0x4F24, symBinAddr: 0x10000658C, symSize: 0x184 }
  - { offsetInCU: 0x37916, offset: 0x37916, size: 0x8, addend: 0x0, symName: __ZNSt3__16__treeINS_12__value_typeINS_12basic_stringIcNS_11char_traitsIcEENS_9allocatorIcEEEENS_3mapIlNS8_IS7_dNS_4lessIS7_EENS5_INS_4pairIKS7_dEEEEEENS9_IlEENS5_INSB_IKlSF_EEEEEEEENS_19__map_value_compareIS7_SL_SA_Lb1EEENS5_ISL_EEE16__construct_nodeIJRKNS_21piecewise_construct_tENS_5tupleIJRSC_EEENSU_IJEEEEEENS_10unique_ptrINS_11__tree_nodeISL_PvEENS_22__tree_node_destructorINS5_IS11_EEEEEEDpOT_, symObjAddr: 0x50A8, symBinAddr: 0x100006710, symSize: 0x120 }
  - { offsetInCU: 0x3799F, offset: 0x3799F, size: 0x8, addend: 0x0, symName: __ZNSt3__16__treeINS_12__value_typeINS_12basic_stringIcNS_11char_traitsIcEENS_9allocatorIcEEEENS_3mapIlNS8_IS7_dNS_4lessIS7_EENS5_INS_4pairIKS7_dEEEEEENS9_IlEENS5_INSB_IKlSF_EEEEEEEENS_19__map_value_compareIS7_SL_SA_Lb1EEENS5_ISL_EEE16__insert_node_atEPNS_15__tree_end_nodeIPNS_16__tree_node_baseIPvEEEERSU_SU_, symObjAddr: 0x51C8, symBinAddr: 0x100006830, symSize: 0xCC }
  - { offsetInCU: 0x379F4, offset: 0x379F4, size: 0x8, addend: 0x0, symName: __ZNKSt3__110unique_ptrINS_11__tree_nodeINS_12__value_typeINS_12basic_stringIcNS_11char_traitsIcEENS_9allocatorIcEEEENS_3mapIlNS9_IS8_dNS_4lessIS8_EENS6_INS_4pairIKS8_dEEEEEENSA_IlEENS6_INSC_IKlSG_EEEEEEEEPvEENS_22__tree_node_destructorINS6_ISO_EEEEE3getB8ue170006Ev, symObjAddr: 0x5294, symBinAddr: 0x1000068FC, symSize: 0x28 }
  - { offsetInCU: 0x37A1A, offset: 0x37A1A, size: 0x8, addend: 0x0, symName: __ZNSt3__110unique_ptrINS_11__tree_nodeINS_12__value_typeINS_12basic_stringIcNS_11char_traitsIcEENS_9allocatorIcEEEENS_3mapIlNS9_IS8_dNS_4lessIS8_EENS6_INS_4pairIKS8_dEEEEEENSA_IlEENS6_INSC_IKlSG_EEEEEEEEPvEENS_22__tree_node_destructorINS6_ISO_EEEEE7releaseB8ue170006Ev, symObjAddr: 0x52BC, symBinAddr: 0x100006924, symSize: 0x44 }
  - { offsetInCU: 0x37A4F, offset: 0x37A4F, size: 0x8, addend: 0x0, symName: __ZNSt3__110unique_ptrINS_11__tree_nodeINS_12__value_typeINS_12basic_stringIcNS_11char_traitsIcEENS_9allocatorIcEEEENS_3mapIlNS9_IS8_dNS_4lessIS8_EENS6_INS_4pairIKS8_dEEEEEENSA_IlEENS6_INSC_IKlSG_EEEEEEEEPvEENS_22__tree_node_destructorINS6_ISO_EEEEED1B8ue170006Ev, symObjAddr: 0x5300, symBinAddr: 0x100006968, symSize: 0x2C }
  - { offsetInCU: 0x37A79, offset: 0x37A79, size: 0x8, addend: 0x0, symName: __ZNSt3__115__tree_iteratorINS_12__value_typeINS_12basic_stringIcNS_11char_traitsIcEENS_9allocatorIcEEEENS_3mapIlNS8_IS7_dNS_4lessIS7_EENS5_INS_4pairIKS7_dEEEEEENS9_IlEENS5_INSB_IKlSF_EEEEEEEEPNS_11__tree_nodeISL_PvEElEC1B8ue170006ESP_, symObjAddr: 0x532C, symBinAddr: 0x100006994, symSize: 0x34 }
  - { offsetInCU: 0x37AB8, offset: 0x37AB8, size: 0x8, addend: 0x0, symName: __ZNSt3__14pairINS_15__tree_iteratorINS_12__value_typeINS_12basic_stringIcNS_11char_traitsIcEENS_9allocatorIcEEEENS_3mapIlNS9_IS8_dNS_4lessIS8_EENS6_INS0_IKS8_dEEEEEENSA_IlEENS6_INS0_IKlSF_EEEEEEEEPNS_11__tree_nodeISL_PvEElEEbEC1B8ue170006ISQ_RbLSN_0EEEOT_OT0_, symObjAddr: 0x5360, symBinAddr: 0x1000069C8, symSize: 0x3C }
  - { offsetInCU: 0x37B16, offset: 0x37B16, size: 0x8, addend: 0x0, symName: __ZNKSt3__16__treeINS_12__value_typeINS_12basic_stringIcNS_11char_traitsIcEENS_9allocatorIcEEEENS_3mapIlNS8_IS7_dNS_4lessIS7_EENS5_INS_4pairIKS7_dEEEEEENS9_IlEENS5_INSB_IKlSF_EEEEEEEENS_19__map_value_compareIS7_SL_SA_Lb1EEENS5_ISL_EEE6__rootB8ue170006Ev, symObjAddr: 0x539C, symBinAddr: 0x100006A04, symSize: 0x28 }
  - { offsetInCU: 0x37B3C, offset: 0x37B3C, size: 0x8, addend: 0x0, symName: __ZNKSt3__16__treeINS_12__value_typeINS_12basic_stringIcNS_11char_traitsIcEENS_9allocatorIcEEEENS_3mapIlNS8_IS7_dNS_4lessIS7_EENS5_INS_4pairIKS7_dEEEEEENS9_IlEENS5_INSB_IKlSF_EEEEEEEENS_19__map_value_compareIS7_SL_SA_Lb1EEENS5_ISL_EEE10__root_ptrB8ue170006Ev, symObjAddr: 0x53C4, symBinAddr: 0x100006A2C, symSize: 0x24 }
  - { offsetInCU: 0x37B62, offset: 0x37B62, size: 0x8, addend: 0x0, symName: __ZNSt3__16__treeINS_12__value_typeINS_12basic_stringIcNS_11char_traitsIcEENS_9allocatorIcEEEENS_3mapIlNS8_IS7_dNS_4lessIS7_EENS5_INS_4pairIKS7_dEEEEEENS9_IlEENS5_INSB_IKlSF_EEEEEEEENS_19__map_value_compareIS7_SL_SA_Lb1EEENS5_ISL_EEE10value_compB8ue170006Ev, symObjAddr: 0x53E8, symBinAddr: 0x100006A50, symSize: 0x28 }
  - { offsetInCU: 0x37B88, offset: 0x37B88, size: 0x8, addend: 0x0, symName: __ZNKSt3__119__map_value_compareINS_12basic_stringIcNS_11char_traitsIcEENS_9allocatorIcEEEENS_12__value_typeIS6_NS_3mapIlNS8_IS6_dNS_4lessIS6_EENS4_INS_4pairIKS6_dEEEEEENS9_IlEENS4_INSB_IKlSF_EEEEEEEESA_Lb1EEclB8ue170006ERSC_RKSL_, symObjAddr: 0x5410, symBinAddr: 0x100006A78, symSize: 0x50 }
  - { offsetInCU: 0x37BCC, offset: 0x37BCC, size: 0x8, addend: 0x0, symName: __ZNKSt3__119__map_value_compareINS_12basic_stringIcNS_11char_traitsIcEENS_9allocatorIcEEEENS_12__value_typeIS6_NS_3mapIlNS8_IS6_dNS_4lessIS6_EENS4_INS_4pairIKS6_dEEEEEENS9_IlEENS4_INSB_IKlSF_EEEEEEEESA_Lb1EEclB8ue170006ERKSL_RSC_, symObjAddr: 0x5460, symBinAddr: 0x100006AC8, symSize: 0x48 }
  - { offsetInCU: 0x37C10, offset: 0x37C10, size: 0x8, addend: 0x0, symName: __ZNSt3__16__treeINS_12__value_typeINS_12basic_stringIcNS_11char_traitsIcEENS_9allocatorIcEEEENS_3mapIlNS8_IS7_dNS_4lessIS7_EENS5_INS_4pairIKS7_dEEEEEENS9_IlEENS5_INSB_IKlSF_EEEEEEEENS_19__map_value_compareIS7_SL_SA_Lb1EEENS5_ISL_EEE10__end_nodeB8ue170006Ev, symObjAddr: 0x54A8, symBinAddr: 0x100006B10, symSize: 0x2C }
  - { offsetInCU: 0x37C36, offset: 0x37C36, size: 0x8, addend: 0x0, symName: __ZNKSt3__16__treeINS_12__value_typeINS_12basic_stringIcNS_11char_traitsIcEENS_9allocatorIcEEEENS_3mapIlNS8_IS7_dNS_4lessIS7_EENS5_INS_4pairIKS7_dEEEEEENS9_IlEENS5_INSB_IKlSF_EEEEEEEENS_19__map_value_compareIS7_SL_SA_Lb1EEENS5_ISL_EEE10__end_nodeB8ue170006Ev, symObjAddr: 0x54D4, symBinAddr: 0x100006B3C, symSize: 0x2C }
  - { offsetInCU: 0x37C5C, offset: 0x37C5C, size: 0x8, addend: 0x0, symName: __ZNKSt3__117__compressed_pairINS_15__tree_end_nodeIPNS_16__tree_node_baseIPvEEEENS_9allocatorINS_11__tree_nodeINS_12__value_typeINS_12basic_stringIcNS_11char_traitsIcEENS7_IcEEEENS_3mapIlNSF_ISE_dNS_4lessISE_EENS7_INS_4pairIKSE_dEEEEEENSG_IlEENS7_INSI_IKlSM_EEEEEEEES3_EEEEE5firstB8ue170006Ev, symObjAddr: 0x5500, symBinAddr: 0x100006B68, symSize: 0x24 }
  - { offsetInCU: 0x37C82, offset: 0x37C82, size: 0x8, addend: 0x0, symName: __ZNSt3__117__compressed_pairImNS_19__map_value_compareINS_12basic_stringIcNS_11char_traitsIcEENS_9allocatorIcEEEENS_12__value_typeIS7_NS_3mapIlNS9_IS7_dNS_4lessIS7_EENS5_INS_4pairIKS7_dEEEEEENSA_IlEENS5_INSC_IKlSG_EEEEEEEESB_Lb1EEEE6secondB8ue170006Ev, symObjAddr: 0x5524, symBinAddr: 0x100006B8C, symSize: 0x24 }
  - { offsetInCU: 0x37CA8, offset: 0x37CA8, size: 0x8, addend: 0x0, symName: __ZNSt3__122__compressed_pair_elemINS_19__map_value_compareINS_12basic_stringIcNS_11char_traitsIcEENS_9allocatorIcEEEENS_12__value_typeIS7_NS_3mapIlNS9_IS7_dNS_4lessIS7_EENS5_INS_4pairIKS7_dEEEEEENSA_IlEENS5_INSC_IKlSG_EEEEEEEESB_Lb1EEELi1ELb1EE5__getB8ue170006Ev, symObjAddr: 0x5548, symBinAddr: 0x100006BB0, symSize: 0x14 }
  - { offsetInCU: 0x37CCE, offset: 0x37CCE, size: 0x8, addend: 0x0, symName: __ZNKSt3__112__value_typeINS_12basic_stringIcNS_11char_traitsIcEENS_9allocatorIcEEEENS_3mapIlNS7_IS6_dNS_4lessIS6_EENS4_INS_4pairIKS6_dEEEEEENS8_IlEENS4_INSA_IKlSE_EEEEEEE11__get_valueB8ue170006Ev, symObjAddr: 0x555C, symBinAddr: 0x100006BC4, symSize: 0x14 }
  - { offsetInCU: 0x37CF4, offset: 0x37CF4, size: 0x8, addend: 0x0, symName: __ZNSt3__117__compressed_pairINS_15__tree_end_nodeIPNS_16__tree_node_baseIPvEEEENS_9allocatorINS_11__tree_nodeINS_12__value_typeINS_12basic_stringIcNS_11char_traitsIcEENS7_IcEEEENS_3mapIlNSF_ISE_dNS_4lessISE_EENS7_INS_4pairIKSE_dEEEEEENSG_IlEENS7_INSI_IKlSM_EEEEEEEES3_EEEEE5firstB8ue170006Ev, symObjAddr: 0x5570, symBinAddr: 0x100006BD8, symSize: 0x24 }
  - { offsetInCU: 0x37D1A, offset: 0x37D1A, size: 0x8, addend: 0x0, symName: __ZNSt3__16__treeINS_12__value_typeINS_12basic_stringIcNS_11char_traitsIcEENS_9allocatorIcEEEENS_3mapIlNS8_IS7_dNS_4lessIS7_EENS5_INS_4pairIKS7_dEEEEEENS9_IlEENS5_INSB_IKlSF_EEEEEEEENS_19__map_value_compareIS7_SL_SA_Lb1EEENS5_ISL_EEE12__node_allocB8ue170006Ev, symObjAddr: 0x5594, symBinAddr: 0x100006BFC, symSize: 0x28 }
  - { offsetInCU: 0x37D40, offset: 0x37D40, size: 0x8, addend: 0x0, symName: __ZNSt3__116allocator_traitsINS_9allocatorINS_11__tree_nodeINS_12__value_typeINS_12basic_stringIcNS_11char_traitsIcEENS1_IcEEEENS_3mapIlNS9_IS8_dNS_4lessIS8_EENS1_INS_4pairIKS8_dEEEEEENSA_IlEENS1_INSC_IKlSG_EEEEEEEEPvEEEEE8allocateB8ue170006ERSP_m, symObjAddr: 0x55BC, symBinAddr: 0x100006C24, symSize: 0x2C }
  - { offsetInCU: 0x37D73, offset: 0x37D73, size: 0x8, addend: 0x0, symName: __ZNSt3__122__tree_node_destructorINS_9allocatorINS_11__tree_nodeINS_12__value_typeINS_12basic_stringIcNS_11char_traitsIcEENS1_IcEEEENS_3mapIlNS9_IS8_dNS_4lessIS8_EENS1_INS_4pairIKS8_dEEEEEENSA_IlEENS1_INSC_IKlSG_EEEEEEEEPvEEEEEC1B8ue170006ERSP_b, symObjAddr: 0x55E8, symBinAddr: 0x100006C50, symSize: 0x48 }
  - { offsetInCU: 0x37DC1, offset: 0x37DC1, size: 0x8, addend: 0x0, symName: __ZNSt3__110unique_ptrINS_11__tree_nodeINS_12__value_typeINS_12basic_stringIcNS_11char_traitsIcEENS_9allocatorIcEEEENS_3mapIlNS9_IS8_dNS_4lessIS8_EENS6_INS_4pairIKS8_dEEEEEENSA_IlEENS6_INSC_IKlSG_EEEEEEEEPvEENS_22__tree_node_destructorINS6_ISO_EEEEEC1B8ue170006ILb1EvEEPSO_NS_16__dependent_typeINS_27__unique_ptr_deleter_sfinaeISR_EEXT_EE20__good_rval_ref_typeE, symObjAddr: 0x5630, symBinAddr: 0x100006C98, symSize: 0x3C }
  - { offsetInCU: 0x37E12, offset: 0x37E12, size: 0x8, addend: 0x0, symName: __ZNSt3__116allocator_traitsINS_9allocatorINS_11__tree_nodeINS_12__value_typeINS_12basic_stringIcNS_11char_traitsIcEENS1_IcEEEENS_3mapIlNS9_IS8_dNS_4lessIS8_EENS1_INS_4pairIKS8_dEEEEEENSA_IlEENS1_INSC_IKlSG_EEEEEEEEPvEEEEE9constructB8ue170006INSC_ISD_SL_EEJRKNS_21piecewise_construct_tENS_5tupleIJRSD_EEENSW_IJEEEEvEEvRSP_PT_DpOT0_, symObjAddr: 0x566C, symBinAddr: 0x100006CD4, symSize: 0x44 }
  - { offsetInCU: 0x37E91, offset: 0x37E91, size: 0x8, addend: 0x0, symName: __ZNSt3__122__tree_key_value_typesINS_12__value_typeINS_12basic_stringIcNS_11char_traitsIcEENS_9allocatorIcEEEENS_3mapIlNS8_IS7_dNS_4lessIS7_EENS5_INS_4pairIKS7_dEEEEEENS9_IlEENS5_INSB_IKlSF_EEEEEEEEE9__get_ptrB8ue170006ERSL_, symObjAddr: 0x56B0, symBinAddr: 0x100006D18, symSize: 0x24 }
  - { offsetInCU: 0x37EB5, offset: 0x37EB5, size: 0x8, addend: 0x0, symName: __ZNKSt3__110unique_ptrINS_11__tree_nodeINS_12__value_typeINS_12basic_stringIcNS_11char_traitsIcEENS_9allocatorIcEEEENS_3mapIlNS9_IS8_dNS_4lessIS8_EENS6_INS_4pairIKS8_dEEEEEENSA_IlEENS6_INSC_IKlSG_EEEEEEEEPvEENS_22__tree_node_destructorINS6_ISO_EEEEEptB8ue170006Ev, symObjAddr: 0x56D4, symBinAddr: 0x100006D3C, symSize: 0x28 }
  - { offsetInCU: 0x37EDB, offset: 0x37EDB, size: 0x8, addend: 0x0, symName: __ZNSt3__110unique_ptrINS_11__tree_nodeINS_12__value_typeINS_12basic_stringIcNS_11char_traitsIcEENS_9allocatorIcEEEENS_3mapIlNS9_IS8_dNS_4lessIS8_EENS6_INS_4pairIKS8_dEEEEEENSA_IlEENS6_INSC_IKlSG_EEEEEEEEPvEENS_22__tree_node_destructorINS6_ISO_EEEEE11get_deleterB8ue170006Ev, symObjAddr: 0x56FC, symBinAddr: 0x100006D64, symSize: 0x24 }
  - { offsetInCU: 0x37F01, offset: 0x37F01, size: 0x8, addend: 0x0, symName: __ZNSt3__117__compressed_pairINS_15__tree_end_nodeIPNS_16__tree_node_baseIPvEEEENS_9allocatorINS_11__tree_nodeINS_12__value_typeINS_12basic_stringIcNS_11char_traitsIcEENS7_IcEEEENS_3mapIlNSF_ISE_dNS_4lessISE_EENS7_INS_4pairIKSE_dEEEEEENSG_IlEENS7_INSI_IKlSM_EEEEEEEES3_EEEEE6secondB8ue170006Ev, symObjAddr: 0x5720, symBinAddr: 0x100006D88, symSize: 0x24 }
  - { offsetInCU: 0x37F27, offset: 0x37F27, size: 0x8, addend: 0x0, symName: __ZNSt3__122__compressed_pair_elemINS_9allocatorINS_11__tree_nodeINS_12__value_typeINS_12basic_stringIcNS_11char_traitsIcEENS1_IcEEEENS_3mapIlNS9_IS8_dNS_4lessIS8_EENS1_INS_4pairIKS8_dEEEEEENSA_IlEENS1_INSC_IKlSG_EEEEEEEEPvEEEELi1ELb1EE5__getB8ue170006Ev, symObjAddr: 0x5744, symBinAddr: 0x100006DAC, symSize: 0x14 }
  - { offsetInCU: 0x37F4D, offset: 0x37F4D, size: 0x8, addend: 0x0, symName: __ZNSt3__19allocatorINS_11__tree_nodeINS_12__value_typeINS_12basic_stringIcNS_11char_traitsIcEENS0_IcEEEENS_3mapIlNS8_IS7_dNS_4lessIS7_EENS0_INS_4pairIKS7_dEEEEEENS9_IlEENS0_INSB_IKlSF_EEEEEEEEPvEEE8allocateB8ue170006Em, symObjAddr: 0x5758, symBinAddr: 0x100006DC0, symSize: 0x5C }
  - { offsetInCU: 0x37F8C, offset: 0x37F8C, size: 0x8, addend: 0x0, symName: __ZNSt3__116allocator_traitsINS_9allocatorINS_11__tree_nodeINS_12__value_typeINS_12basic_stringIcNS_11char_traitsIcEENS1_IcEEEENS_3mapIlNS9_IS8_dNS_4lessIS8_EENS1_INS_4pairIKS8_dEEEEEENSA_IlEENS1_INSC_IKlSG_EEEEEEEEPvEEEEE8max_sizeB8ue170006ISP_vEEmRKSP_, symObjAddr: 0x57B4, symBinAddr: 0x100006E1C, symSize: 0x24 }
  - { offsetInCU: 0x37FBA, offset: 0x37FBA, size: 0x8, addend: 0x0, symName: __ZNKSt3__19allocatorINS_11__tree_nodeINS_12__value_typeINS_12basic_stringIcNS_11char_traitsIcEENS0_IcEEEENS_3mapIlNS8_IS7_dNS_4lessIS7_EENS0_INS_4pairIKS7_dEEEEEENS9_IlEENS0_INSB_IKlSF_EEEEEEEEPvEEE8max_sizeB8ue170006Ev, symObjAddr: 0x57D8, symBinAddr: 0x100006E40, symSize: 0x18 }
  - { offsetInCU: 0x37FE0, offset: 0x37FE0, size: 0x8, addend: 0x0, symName: __ZNSt3__122__tree_node_destructorINS_9allocatorINS_11__tree_nodeINS_12__value_typeINS_12basic_stringIcNS_11char_traitsIcEENS1_IcEEEENS_3mapIlNS9_IS8_dNS_4lessIS8_EENS1_INS_4pairIKS8_dEEEEEENSA_IlEENS1_INSC_IKlSG_EEEEEEEEPvEEEEEC2B8ue170006ERSP_b, symObjAddr: 0x57F0, symBinAddr: 0x100006E58, symSize: 0x38 }
  - { offsetInCU: 0x38028, offset: 0x38028, size: 0x8, addend: 0x0, symName: __ZNSt3__110unique_ptrINS_11__tree_nodeINS_12__value_typeINS_12basic_stringIcNS_11char_traitsIcEENS_9allocatorIcEEEENS_3mapIlNS9_IS8_dNS_4lessIS8_EENS6_INS_4pairIKS8_dEEEEEENSA_IlEENS6_INSC_IKlSG_EEEEEEEEPvEENS_22__tree_node_destructorINS6_ISO_EEEEEC2B8ue170006ILb1EvEEPSO_NS_16__dependent_typeINS_27__unique_ptr_deleter_sfinaeISR_EEXT_EE20__good_rval_ref_typeE, symObjAddr: 0x5828, symBinAddr: 0x100006E90, symSize: 0x48 }
  - { offsetInCU: 0x38079, offset: 0x38079, size: 0x8, addend: 0x0, symName: __ZNSt3__117__compressed_pairIPNS_11__tree_nodeINS_12__value_typeINS_12basic_stringIcNS_11char_traitsIcEENS_9allocatorIcEEEENS_3mapIlNS9_IS8_dNS_4lessIS8_EENS6_INS_4pairIKS8_dEEEEEENSA_IlEENS6_INSC_IKlSG_EEEEEEEEPvEENS_22__tree_node_destructorINS6_ISO_EEEEEC1B8ue170006IRSP_SS_EEOT_OT0_, symObjAddr: 0x5870, symBinAddr: 0x100006ED8, symSize: 0x3C }
  - { offsetInCU: 0x380D1, offset: 0x380D1, size: 0x8, addend: 0x0, symName: __ZNSt3__117__compressed_pairIPNS_11__tree_nodeINS_12__value_typeINS_12basic_stringIcNS_11char_traitsIcEENS_9allocatorIcEEEENS_3mapIlNS9_IS8_dNS_4lessIS8_EENS6_INS_4pairIKS8_dEEEEEENSA_IlEENS6_INSC_IKlSG_EEEEEEEEPvEENS_22__tree_node_destructorINS6_ISO_EEEEEC2B8ue170006IRSP_SS_EEOT_OT0_, symObjAddr: 0x58AC, symBinAddr: 0x100006F14, symSize: 0x48 }
  - { offsetInCU: 0x38129, offset: 0x38129, size: 0x8, addend: 0x0, symName: __ZNSt3__122__compressed_pair_elemIPNS_11__tree_nodeINS_12__value_typeINS_12basic_stringIcNS_11char_traitsIcEENS_9allocatorIcEEEENS_3mapIlNS9_IS8_dNS_4lessIS8_EENS6_INS_4pairIKS8_dEEEEEENSA_IlEENS6_INSC_IKlSG_EEEEEEEEPvEELi0ELb0EEC2B8ue170006IRSP_vEEOT_, symObjAddr: 0x58F4, symBinAddr: 0x100006F5C, symSize: 0x24 }
  - { offsetInCU: 0x3816B, offset: 0x3816B, size: 0x8, addend: 0x0, symName: __ZNSt3__122__compressed_pair_elemINS_22__tree_node_destructorINS_9allocatorINS_11__tree_nodeINS_12__value_typeINS_12basic_stringIcNS_11char_traitsIcEENS2_IcEEEENS_3mapIlNSA_IS9_dNS_4lessIS9_EENS2_INS_4pairIKS9_dEEEEEENSB_IlEENS2_INSD_IKlSH_EEEEEEEEPvEEEEEELi1ELb0EEC2B8ue170006ISR_vEEOT_, symObjAddr: 0x5918, symBinAddr: 0x100006F80, symSize: 0x24 }
  - { offsetInCU: 0x381AD, offset: 0x381AD, size: 0x8, addend: 0x0, symName: __ZNSt3__19allocatorINS_11__tree_nodeINS_12__value_typeINS_12basic_stringIcNS_11char_traitsIcEENS0_IcEEEENS_3mapIlNS8_IS7_dNS_4lessIS7_EENS0_INS_4pairIKS7_dEEEEEENS9_IlEENS0_INSB_IKlSF_EEEEEEEEPvEEE9constructB8ue170006INSB_ISC_SK_EEJRKNS_21piecewise_construct_tENS_5tupleIJRSC_EEENSU_IJEEEEEEvPT_DpOT0_, symObjAddr: 0x593C, symBinAddr: 0x100006FA4, symSize: 0x44 }
  - { offsetInCU: 0x38229, offset: 0x38229, size: 0x8, addend: 0x0, symName: __ZNSt3__14pairIKNS_12basic_stringIcNS_11char_traitsIcEENS_9allocatorIcEEEENS_3mapIlNS8_IS6_dNS_4lessIS6_EENS4_INS0_IS7_dEEEEEENS9_IlEENS4_INS0_IKlSD_EEEEEEEC1B8ue170006IJRS7_EJEEENS_21piecewise_construct_tENS_5tupleIJDpT_EEENSN_IJDpT0_EEE, symObjAddr: 0x5980, symBinAddr: 0x100006FE8, symSize: 0x3C }
  - { offsetInCU: 0x38290, offset: 0x38290, size: 0x8, addend: 0x0, symName: __ZNSt3__14pairIKNS_12basic_stringIcNS_11char_traitsIcEENS_9allocatorIcEEEENS_3mapIlNS8_IS6_dNS_4lessIS6_EENS4_INS0_IS7_dEEEEEENS9_IlEENS4_INS0_IKlSD_EEEEEEEC1B8ue170006IJRS7_EJEJLm0EEJEEENS_21piecewise_construct_tERNS_5tupleIJDpT_EEERNSN_IJDpT0_EEENS_15__tuple_indicesIJXspT1_EEEENSW_IJXspT2_EEEE, symObjAddr: 0x59BC, symBinAddr: 0x100007024, symSize: 0x3C }
  - { offsetInCU: 0x3831D, offset: 0x3831D, size: 0x8, addend: 0x0, symName: __ZNSt3__14pairIKNS_12basic_stringIcNS_11char_traitsIcEENS_9allocatorIcEEEENS_3mapIlNS8_IS6_dNS_4lessIS6_EENS4_INS0_IS7_dEEEEEENS9_IlEENS4_INS0_IKlSD_EEEEEEEC2B8ue170006IJRS7_EJEJLm0EEJEEENS_21piecewise_construct_tERNS_5tupleIJDpT_EEERNSN_IJDpT0_EEENS_15__tuple_indicesIJXspT1_EEEENSW_IJXspT2_EEEE, symObjAddr: 0x59F8, symBinAddr: 0x100007060, symSize: 0x50 }
  - { offsetInCU: 0x383AA, offset: 0x383AA, size: 0x8, addend: 0x0, symName: __ZNSt3__13mapIlNS0_INS_12basic_stringIcNS_11char_traitsIcEENS_9allocatorIcEEEEdNS_4lessIS6_EENS4_INS_4pairIKS6_dEEEEEENS7_IlEENS4_INS9_IKlSD_EEEEEC1B8ue170006Ev, symObjAddr: 0x5A48, symBinAddr: 0x1000070B0, symSize: 0x2C }
  - { offsetInCU: 0x383D4, offset: 0x383D4, size: 0x8, addend: 0x0, symName: __ZNSt3__13mapIlNS0_INS_12basic_stringIcNS_11char_traitsIcEENS_9allocatorIcEEEEdNS_4lessIS6_EENS4_INS_4pairIKS6_dEEEEEENS7_IlEENS4_INS9_IKlSD_EEEEEC2B8ue170006Ev, symObjAddr: 0x5A74, symBinAddr: 0x1000070DC, symSize: 0x40 }
  - { offsetInCU: 0x383FE, offset: 0x383FE, size: 0x8, addend: 0x0, symName: __ZNSt3__119__map_value_compareIlNS_12__value_typeIlNS_3mapINS_12basic_stringIcNS_11char_traitsIcEENS_9allocatorIcEEEEdNS_4lessIS8_EENS6_INS_4pairIKS8_dEEEEEEEENS9_IlEELb1EEC1B8ue170006ESH_, symObjAddr: 0x5AB4, symBinAddr: 0x10000711C, symSize: 0x2C }
  - { offsetInCU: 0x38437, offset: 0x38437, size: 0x8, addend: 0x0, symName: __ZNSt3__16__treeINS_12__value_typeIlNS_3mapINS_12basic_stringIcNS_11char_traitsIcEENS_9allocatorIcEEEEdNS_4lessIS8_EENS6_INS_4pairIKS8_dEEEEEEEENS_19__map_value_compareIlSG_NS9_IlEELb1EEENS6_ISG_EEEC1ERKSJ_, symObjAddr: 0x5AE0, symBinAddr: 0x100007148, symSize: 0x34 }
  - { offsetInCU: 0x38472, offset: 0x38472, size: 0x8, addend: 0x0, symName: __ZNSt3__119__map_value_compareIlNS_12__value_typeIlNS_3mapINS_12basic_stringIcNS_11char_traitsIcEENS_9allocatorIcEEEEdNS_4lessIS8_EENS6_INS_4pairIKS8_dEEEEEEEENS9_IlEELb1EEC2B8ue170006ESH_, symObjAddr: 0x5B14, symBinAddr: 0x10000717C, symSize: 0x14 }
  - { offsetInCU: 0x384AB, offset: 0x384AB, size: 0x8, addend: 0x0, symName: __ZNSt3__16__treeINS_12__value_typeIlNS_3mapINS_12basic_stringIcNS_11char_traitsIcEENS_9allocatorIcEEEEdNS_4lessIS8_EENS6_INS_4pairIKS8_dEEEEEEEENS_19__map_value_compareIlSG_NS9_IlEELb1EEENS6_ISG_EEEC2ERKSJ_, symObjAddr: 0x5B28, symBinAddr: 0x100007190, symSize: 0x7C }
  - { offsetInCU: 0x384E6, offset: 0x384E6, size: 0x8, addend: 0x0, symName: __ZNSt3__117__compressed_pairINS_15__tree_end_nodeIPNS_16__tree_node_baseIPvEEEENS_9allocatorINS_11__tree_nodeINS_12__value_typeIlNS_3mapINS_12basic_stringIcNS_11char_traitsIcEENS7_IcEEEEdNS_4lessISF_EENS7_INS_4pairIKSF_dEEEEEEEES3_EEEEEC1B8ue170006ILb1EvEEv, symObjAddr: 0x5BA4, symBinAddr: 0x10000720C, symSize: 0x2C }
  - { offsetInCU: 0x38521, offset: 0x38521, size: 0x8, addend: 0x0, symName: __ZNSt3__117__compressed_pairImNS_19__map_value_compareIlNS_12__value_typeIlNS_3mapINS_12basic_stringIcNS_11char_traitsIcEENS_9allocatorIcEEEEdNS_4lessIS9_EENS7_INS_4pairIKS9_dEEEEEEEENSA_IlEELb1EEEEC1B8ue170006IiRKSJ_EEOT_OT0_, symObjAddr: 0x5BD0, symBinAddr: 0x100007238, symSize: 0x3C }
  - { offsetInCU: 0x38579, offset: 0x38579, size: 0x8, addend: 0x0, symName: __ZNSt3__16__treeINS_12__value_typeIlNS_3mapINS_12basic_stringIcNS_11char_traitsIcEENS_9allocatorIcEEEEdNS_4lessIS8_EENS6_INS_4pairIKS8_dEEEEEEEENS_19__map_value_compareIlSG_NS9_IlEELb1EEENS6_ISG_EEE10__end_nodeB8ue170006Ev, symObjAddr: 0x5C0C, symBinAddr: 0x100007274, symSize: 0x2C }
  - { offsetInCU: 0x3859F, offset: 0x3859F, size: 0x8, addend: 0x0, symName: __ZNSt3__16__treeINS_12__value_typeIlNS_3mapINS_12basic_stringIcNS_11char_traitsIcEENS_9allocatorIcEEEEdNS_4lessIS8_EENS6_INS_4pairIKS8_dEEEEEEEENS_19__map_value_compareIlSG_NS9_IlEELb1EEENS6_ISG_EEE12__begin_nodeB8ue170006Ev, symObjAddr: 0x5C38, symBinAddr: 0x1000072A0, symSize: 0x14 }
  - { offsetInCU: 0x385C5, offset: 0x385C5, size: 0x8, addend: 0x0, symName: __ZNSt3__117__compressed_pairINS_15__tree_end_nodeIPNS_16__tree_node_baseIPvEEEENS_9allocatorINS_11__tree_nodeINS_12__value_typeIlNS_3mapINS_12basic_stringIcNS_11char_traitsIcEENS7_IcEEEEdNS_4lessISF_EENS7_INS_4pairIKSF_dEEEEEEEES3_EEEEEC2B8ue170006ILb1EvEEv, symObjAddr: 0x5C4C, symBinAddr: 0x1000072B4, symSize: 0x34 }
  - { offsetInCU: 0x385FA, offset: 0x385FA, size: 0x8, addend: 0x0, symName: __ZNSt3__122__compressed_pair_elemINS_15__tree_end_nodeIPNS_16__tree_node_baseIPvEEEELi0ELb0EEC2B8ue170006ENS_16__value_init_tagE, symObjAddr: 0x5C80, symBinAddr: 0x1000072E8, symSize: 0x2C }
  - { offsetInCU: 0x3862E, offset: 0x3862E, size: 0x8, addend: 0x0, symName: __ZNSt3__122__compressed_pair_elemINS_9allocatorINS_11__tree_nodeINS_12__value_typeIlNS_3mapINS_12basic_stringIcNS_11char_traitsIcEENS1_IcEEEEdNS_4lessIS9_EENS1_INS_4pairIKS9_dEEEEEEEEPvEEEELi1ELb1EEC2B8ue170006ENS_16__value_init_tagE, symObjAddr: 0x5CAC, symBinAddr: 0x100007314, symSize: 0x2C }
  - { offsetInCU: 0x38662, offset: 0x38662, size: 0x8, addend: 0x0, symName: __ZNSt3__115__tree_end_nodeIPNS_16__tree_node_baseIPvEEEC1B8ue170006Ev, symObjAddr: 0x5CD8, symBinAddr: 0x100007340, symSize: 0x2C }
  - { offsetInCU: 0x3868C, offset: 0x3868C, size: 0x8, addend: 0x0, symName: __ZNSt3__115__tree_end_nodeIPNS_16__tree_node_baseIPvEEEC2B8ue170006Ev, symObjAddr: 0x5D04, symBinAddr: 0x10000736C, symSize: 0x18 }
  - { offsetInCU: 0x386B6, offset: 0x386B6, size: 0x8, addend: 0x0, symName: __ZNSt3__19allocatorINS_11__tree_nodeINS_12__value_typeIlNS_3mapINS_12basic_stringIcNS_11char_traitsIcEENS0_IcEEEEdNS_4lessIS8_EENS0_INS_4pairIKS8_dEEEEEEEEPvEEEC2B8ue170006Ev, symObjAddr: 0x5D1C, symBinAddr: 0x100007384, symSize: 0x2C }
  - { offsetInCU: 0x386E0, offset: 0x386E0, size: 0x8, addend: 0x0, symName: __ZNSt3__116__non_trivial_ifILb1ENS_9allocatorINS_11__tree_nodeINS_12__value_typeIlNS_3mapINS_12basic_stringIcNS_11char_traitsIcEENS1_IcEEEEdNS_4lessIS9_EENS1_INS_4pairIKS9_dEEEEEEEEPvEEEEEC2B8ue170006Ev, symObjAddr: 0x5D48, symBinAddr: 0x1000073B0, symSize: 0x14 }
  - { offsetInCU: 0x3870A, offset: 0x3870A, size: 0x8, addend: 0x0, symName: __ZNSt3__117__compressed_pairImNS_19__map_value_compareIlNS_12__value_typeIlNS_3mapINS_12basic_stringIcNS_11char_traitsIcEENS_9allocatorIcEEEEdNS_4lessIS9_EENS7_INS_4pairIKS9_dEEEEEEEENSA_IlEELb1EEEEC2B8ue170006IiRKSJ_EEOT_OT0_, symObjAddr: 0x5D5C, symBinAddr: 0x1000073C4, symSize: 0x44 }
  - { offsetInCU: 0x38762, offset: 0x38762, size: 0x8, addend: 0x0, symName: __ZNSt3__122__compressed_pair_elemImLi0ELb0EEC2B8ue170006IivEEOT_, symObjAddr: 0x5DA0, symBinAddr: 0x100007408, symSize: 0x24 }
  - { offsetInCU: 0x387A4, offset: 0x387A4, size: 0x8, addend: 0x0, symName: __ZNSt3__122__compressed_pair_elemINS_19__map_value_compareIlNS_12__value_typeIlNS_3mapINS_12basic_stringIcNS_11char_traitsIcEENS_9allocatorIcEEEEdNS_4lessIS9_EENS7_INS_4pairIKS9_dEEEEEEEENSA_IlEELb1EEELi1ELb1EEC2B8ue170006IRKSJ_vEEOT_, symObjAddr: 0x5DC4, symBinAddr: 0x10000742C, symSize: 0x18 }
  - { offsetInCU: 0x387E6, offset: 0x387E6, size: 0x8, addend: 0x0, symName: __ZNSt3__117__compressed_pairINS_15__tree_end_nodeIPNS_16__tree_node_baseIPvEEEENS_9allocatorINS_11__tree_nodeINS_12__value_typeIlNS_3mapINS_12basic_stringIcNS_11char_traitsIcEENS7_IcEEEEdNS_4lessISF_EENS7_INS_4pairIKSF_dEEEEEEEES3_EEEEE5firstB8ue170006Ev, symObjAddr: 0x5DDC, symBinAddr: 0x100007444, symSize: 0x24 }
  - { offsetInCU: 0x3880C, offset: 0x3880C, size: 0x8, addend: 0x0, symName: __ZNKSt3__117__compressed_pairIPNS_11__tree_nodeINS_12__value_typeINS_12basic_stringIcNS_11char_traitsIcEENS_9allocatorIcEEEENS_3mapIlNS9_IS8_dNS_4lessIS8_EENS6_INS_4pairIKS8_dEEEEEENSA_IlEENS6_INSC_IKlSG_EEEEEEEEPvEENS_22__tree_node_destructorINS6_ISO_EEEEE5firstB8ue170006Ev, symObjAddr: 0x5E00, symBinAddr: 0x100007468, symSize: 0x24 }
  - { offsetInCU: 0x38832, offset: 0x38832, size: 0x8, addend: 0x0, symName: __ZNKSt3__122__compressed_pair_elemIPNS_11__tree_nodeINS_12__value_typeINS_12basic_stringIcNS_11char_traitsIcEENS_9allocatorIcEEEENS_3mapIlNS9_IS8_dNS_4lessIS8_EENS6_INS_4pairIKS8_dEEEEEENSA_IlEENS6_INSC_IKlSG_EEEEEEEEPvEELi0ELb0EE5__getB8ue170006Ev, symObjAddr: 0x5E24, symBinAddr: 0x10000748C, symSize: 0x14 }
  - { offsetInCU: 0x38858, offset: 0x38858, size: 0x8, addend: 0x0, symName: __ZNSt3__117__compressed_pairIPNS_11__tree_nodeINS_12__value_typeINS_12basic_stringIcNS_11char_traitsIcEENS_9allocatorIcEEEENS_3mapIlNS9_IS8_dNS_4lessIS8_EENS6_INS_4pairIKS8_dEEEEEENSA_IlEENS6_INSC_IKlSG_EEEEEEEEPvEENS_22__tree_node_destructorINS6_ISO_EEEEE6secondB8ue170006Ev, symObjAddr: 0x5E38, symBinAddr: 0x1000074A0, symSize: 0x28 }
  - { offsetInCU: 0x3887E, offset: 0x3887E, size: 0x8, addend: 0x0, symName: __ZNSt3__122__compressed_pair_elemINS_22__tree_node_destructorINS_9allocatorINS_11__tree_nodeINS_12__value_typeINS_12basic_stringIcNS_11char_traitsIcEENS2_IcEEEENS_3mapIlNSA_IS9_dNS_4lessIS9_EENS2_INS_4pairIKS9_dEEEEEENSB_IlEENS2_INSD_IKlSH_EEEEEEEEPvEEEEEELi1ELb0EE5__getB8ue170006Ev, symObjAddr: 0x5E60, symBinAddr: 0x1000074C8, symSize: 0x14 }
  - { offsetInCU: 0x388A4, offset: 0x388A4, size: 0x8, addend: 0x0, symName: __ZNSt3__16__treeINS_12__value_typeINS_12basic_stringIcNS_11char_traitsIcEENS_9allocatorIcEEEENS_3mapIlNS8_IS7_dNS_4lessIS7_EENS5_INS_4pairIKS7_dEEEEEENS9_IlEENS5_INSB_IKlSF_EEEEEEEENS_19__map_value_compareIS7_SL_SA_Lb1EEENS5_ISL_EEE12__begin_nodeB8ue170006Ev, symObjAddr: 0x5E74, symBinAddr: 0x1000074DC, symSize: 0x14 }
  - { offsetInCU: 0x388CA, offset: 0x388CA, size: 0x8, addend: 0x0, symName: __ZNSt3__16__treeINS_12__value_typeINS_12basic_stringIcNS_11char_traitsIcEENS_9allocatorIcEEEENS_3mapIlNS8_IS7_dNS_4lessIS7_EENS5_INS_4pairIKS7_dEEEEEENS9_IlEENS5_INSB_IKlSF_EEEEEEEENS_19__map_value_compareIS7_SL_SA_Lb1EEENS5_ISL_EEE4sizeB8ue170006Ev, symObjAddr: 0x5E88, symBinAddr: 0x1000074F0, symSize: 0x28 }
  - { offsetInCU: 0x388F0, offset: 0x388F0, size: 0x8, addend: 0x0, symName: __ZNSt3__117__compressed_pairImNS_19__map_value_compareINS_12basic_stringIcNS_11char_traitsIcEENS_9allocatorIcEEEENS_12__value_typeIS7_NS_3mapIlNS9_IS7_dNS_4lessIS7_EENS5_INS_4pairIKS7_dEEEEEENSA_IlEENS5_INSC_IKlSG_EEEEEEEESB_Lb1EEEE5firstB8ue170006Ev, symObjAddr: 0x5EB0, symBinAddr: 0x100007518, symSize: 0x24 }
  - { offsetInCU: 0x38916, offset: 0x38916, size: 0x8, addend: 0x0, symName: __ZNSt3__117__compressed_pairIPNS_11__tree_nodeINS_12__value_typeINS_12basic_stringIcNS_11char_traitsIcEENS_9allocatorIcEEEENS_3mapIlNS9_IS8_dNS_4lessIS8_EENS6_INS_4pairIKS8_dEEEEEENSA_IlEENS6_INSC_IKlSG_EEEEEEEEPvEENS_22__tree_node_destructorINS6_ISO_EEEEE5firstB8ue170006Ev, symObjAddr: 0x5ED4, symBinAddr: 0x10000753C, symSize: 0x24 }
  - { offsetInCU: 0x3893C, offset: 0x3893C, size: 0x8, addend: 0x0, symName: __ZNSt3__122__compressed_pair_elemIPNS_11__tree_nodeINS_12__value_typeINS_12basic_stringIcNS_11char_traitsIcEENS_9allocatorIcEEEENS_3mapIlNS9_IS8_dNS_4lessIS8_EENS6_INS_4pairIKS8_dEEEEEENSA_IlEENS6_INSC_IKlSG_EEEEEEEEPvEELi0ELb0EE5__getB8ue170006Ev, symObjAddr: 0x5EF8, symBinAddr: 0x100007560, symSize: 0x14 }
  - { offsetInCU: 0x38962, offset: 0x38962, size: 0x8, addend: 0x0, symName: __ZNSt3__110unique_ptrINS_11__tree_nodeINS_12__value_typeINS_12basic_stringIcNS_11char_traitsIcEENS_9allocatorIcEEEENS_3mapIlNS9_IS8_dNS_4lessIS8_EENS6_INS_4pairIKS8_dEEEEEENSA_IlEENS6_INSC_IKlSG_EEEEEEEEPvEENS_22__tree_node_destructorINS6_ISO_EEEEED2B8ue170006Ev, symObjAddr: 0x5F0C, symBinAddr: 0x100007574, symSize: 0x30 }
  - { offsetInCU: 0x3898C, offset: 0x3898C, size: 0x8, addend: 0x0, symName: __ZNSt3__110unique_ptrINS_11__tree_nodeINS_12__value_typeINS_12basic_stringIcNS_11char_traitsIcEENS_9allocatorIcEEEENS_3mapIlNS9_IS8_dNS_4lessIS8_EENS6_INS_4pairIKS8_dEEEEEENSA_IlEENS6_INSC_IKlSG_EEEEEEEEPvEENS_22__tree_node_destructorINS6_ISO_EEEEE5resetB8ue170006EPSO_, symObjAddr: 0x5F3C, symBinAddr: 0x1000075A4, symSize: 0x78 }
  - { offsetInCU: 0x389D0, offset: 0x389D0, size: 0x8, addend: 0x0, symName: __ZNSt3__122__tree_node_destructorINS_9allocatorINS_11__tree_nodeINS_12__value_typeINS_12basic_stringIcNS_11char_traitsIcEENS1_IcEEEENS_3mapIlNS9_IS8_dNS_4lessIS8_EENS1_INS_4pairIKS8_dEEEEEENSA_IlEENS1_INSC_IKlSG_EEEEEEEEPvEEEEEclB8ue170006EPSO_, symObjAddr: 0x5FB4, symBinAddr: 0x10000761C, symSize: 0x98 }
  - { offsetInCU: 0x38A05, offset: 0x38A05, size: 0x8, addend: 0x0, symName: __ZNSt3__116allocator_traitsINS_9allocatorINS_11__tree_nodeINS_12__value_typeINS_12basic_stringIcNS_11char_traitsIcEENS1_IcEEEENS_3mapIlNS9_IS8_dNS_4lessIS8_EENS1_INS_4pairIKS8_dEEEEEENSA_IlEENS1_INSC_IKlSG_EEEEEEEEPvEEEEE7destroyB8ue170006INSC_ISD_SL_EEvvEEvRSP_PT_, symObjAddr: 0x604C, symBinAddr: 0x1000076B4, symSize: 0x28 }
  - { offsetInCU: 0x38A3F, offset: 0x38A3F, size: 0x8, addend: 0x0, symName: __ZNSt3__116allocator_traitsINS_9allocatorINS_11__tree_nodeINS_12__value_typeINS_12basic_stringIcNS_11char_traitsIcEENS1_IcEEEENS_3mapIlNS9_IS8_dNS_4lessIS8_EENS1_INS_4pairIKS8_dEEEEEENSA_IlEENS1_INSC_IKlSG_EEEEEEEEPvEEEEE10deallocateB8ue170006ERSP_PSO_m, symObjAddr: 0x6074, symBinAddr: 0x1000076DC, symSize: 0x34 }
  - { offsetInCU: 0x38A81, offset: 0x38A81, size: 0x8, addend: 0x0, symName: __ZNSt3__14pairIKNS_12basic_stringIcNS_11char_traitsIcEENS_9allocatorIcEEEENS_3mapIlNS8_IS6_dNS_4lessIS6_EENS4_INS0_IS7_dEEEEEENS9_IlEENS4_INS0_IKlSD_EEEEEEED1Ev, symObjAddr: 0x60A8, symBinAddr: 0x100007710, symSize: 0x2C }
  - { offsetInCU: 0x38AAD, offset: 0x38AAD, size: 0x8, addend: 0x0, symName: __ZNSt3__14pairIKNS_12basic_stringIcNS_11char_traitsIcEENS_9allocatorIcEEEENS_3mapIlNS8_IS6_dNS_4lessIS6_EENS4_INS0_IS7_dEEEEEENS9_IlEENS4_INS0_IKlSD_EEEEEEED2Ev, symObjAddr: 0x60D4, symBinAddr: 0x10000773C, symSize: 0x38 }
  - { offsetInCU: 0x38AD9, offset: 0x38AD9, size: 0x8, addend: 0x0, symName: __ZNSt3__19allocatorINS_11__tree_nodeINS_12__value_typeINS_12basic_stringIcNS_11char_traitsIcEENS0_IcEEEENS_3mapIlNS8_IS7_dNS_4lessIS7_EENS0_INS_4pairIKS7_dEEEEEENS9_IlEENS0_INSB_IKlSF_EEEEEEEEPvEEE10deallocateB8ue170006EPSN_m, symObjAddr: 0x610C, symBinAddr: 0x100007774, symSize: 0x44 }
  - { offsetInCU: 0x38B1B, offset: 0x38B1B, size: 0x8, addend: 0x0, symName: __ZNSt3__115__tree_iteratorINS_12__value_typeINS_12basic_stringIcNS_11char_traitsIcEENS_9allocatorIcEEEENS_3mapIlNS8_IS7_dNS_4lessIS7_EENS5_INS_4pairIKS7_dEEEEEENS9_IlEENS5_INSB_IKlSF_EEEEEEEEPNS_11__tree_nodeISL_PvEElEC2B8ue170006ESP_, symObjAddr: 0x6150, symBinAddr: 0x1000077B8, symSize: 0x20 }
  - { offsetInCU: 0x38B54, offset: 0x38B54, size: 0x8, addend: 0x0, symName: __ZNSt3__14pairINS_15__tree_iteratorINS_12__value_typeINS_12basic_stringIcNS_11char_traitsIcEENS_9allocatorIcEEEENS_3mapIlNS9_IS8_dNS_4lessIS8_EENS6_INS0_IKS8_dEEEEEENSA_IlEENS6_INS0_IKlSF_EEEEEEEEPNS_11__tree_nodeISL_PvEElEEbEC2B8ue170006ISQ_RbLSN_0EEEOT_OT0_, symObjAddr: 0x6170, symBinAddr: 0x1000077D8, symSize: 0x38 }
  - { offsetInCU: 0x38BB2, offset: 0x38BB2, size: 0x8, addend: 0x0, symName: __ZNSt3__114pointer_traitsIPNS_12__value_typeINS_12basic_stringIcNS_11char_traitsIcEENS_9allocatorIcEEEENS_3mapIlNS8_IS7_dNS_4lessIS7_EENS5_INS_4pairIKS7_dEEEEEENS9_IlEENS5_INSB_IKlSF_EEEEEEEEE10pointer_toB8ue170006ERSL_, symObjAddr: 0x61A8, symBinAddr: 0x100007810, symSize: 0x14 }
  - { offsetInCU: 0x38BD5, offset: 0x38BD5, size: 0x8, addend: 0x0, symName: __ZNKSt3__115__tree_iteratorINS_12__value_typeINS_12basic_stringIcNS_11char_traitsIcEENS_9allocatorIcEEEENS_3mapIlNS8_IS7_dNS_4lessIS7_EENS5_INS_4pairIKS7_dEEEEEENS9_IlEENS5_INSB_IKlSF_EEEEEEEEPNS_11__tree_nodeISL_PvEElE8__get_npB8ue170006Ev, symObjAddr: 0x61BC, symBinAddr: 0x100007824, symSize: 0x18 }
  - { offsetInCU: 0x38BFB, offset: 0x38BFB, size: 0x8, addend: 0x0, symName: __ZNSt3__13mapIlNS0_INS_12basic_stringIcNS_11char_traitsIcEENS_9allocatorIcEEEEdNS_4lessIS6_EENS4_INS_4pairIKS6_dEEEEEENS7_IlEENS4_INS9_IKlSD_EEEEEC2B8ue170006ERKSI_, symObjAddr: 0x61D4, symBinAddr: 0x10000783C, symSize: 0x88 }
  - { offsetInCU: 0x38C34, offset: 0x38C34, size: 0x8, addend: 0x0, symName: __ZNSt3__16__treeINS_12__value_typeIlNS_3mapINS_12basic_stringIcNS_11char_traitsIcEENS_9allocatorIcEEEEdNS_4lessIS8_EENS6_INS_4pairIKS8_dEEEEEEEENS_19__map_value_compareIlSG_NS9_IlEELb1EEENS6_ISG_EEEC1ERKSL_, symObjAddr: 0x625C, symBinAddr: 0x1000078C4, symSize: 0x34 }
  - { offsetInCU: 0x38C6F, offset: 0x38C6F, size: 0x8, addend: 0x0, symName: __ZNSt3__13mapIlNS0_INS_12basic_stringIcNS_11char_traitsIcEENS_9allocatorIcEEEEdNS_4lessIS6_EENS4_INS_4pairIKS6_dEEEEEENS7_IlEENS4_INS9_IKlSD_EEEEE6insertB8ue170006INS_20__map_const_iteratorINS_21__tree_const_iteratorINS_12__value_typeIlSD_EEPNS_11__tree_nodeISN_PvEElEEEEEEvT_SU_, symObjAddr: 0x6290, symBinAddr: 0x1000078F8, symSize: 0x8C }
  - { offsetInCU: 0x38CD9, offset: 0x38CD9, size: 0x8, addend: 0x0, symName: __ZNKSt3__13mapIlNS0_INS_12basic_stringIcNS_11char_traitsIcEENS_9allocatorIcEEEEdNS_4lessIS6_EENS4_INS_4pairIKS6_dEEEEEENS7_IlEENS4_INS9_IKlSD_EEEEE5beginB8ue170006Ev, symObjAddr: 0x631C, symBinAddr: 0x100007984, symSize: 0x38 }
  - { offsetInCU: 0x38CFF, offset: 0x38CFF, size: 0x8, addend: 0x0, symName: __ZNKSt3__13mapIlNS0_INS_12basic_stringIcNS_11char_traitsIcEENS_9allocatorIcEEEEdNS_4lessIS6_EENS4_INS_4pairIKS6_dEEEEEENS7_IlEENS4_INS9_IKlSD_EEEEE3endB8ue170006Ev, symObjAddr: 0x6354, symBinAddr: 0x1000079BC, symSize: 0x38 }
  - { offsetInCU: 0x38D25, offset: 0x38D25, size: 0x8, addend: 0x0, symName: __ZNSt3__16__treeINS_12__value_typeIlNS_3mapINS_12basic_stringIcNS_11char_traitsIcEENS_9allocatorIcEEEEdNS_4lessIS8_EENS6_INS_4pairIKS8_dEEEEEEEENS_19__map_value_compareIlSG_NS9_IlEELb1EEENS6_ISG_EEED1Ev, symObjAddr: 0x638C, symBinAddr: 0x1000079F4, symSize: 0x2C }
  - { offsetInCU: 0x38D51, offset: 0x38D51, size: 0x8, addend: 0x0, symName: __ZNSt3__16__treeINS_12__value_typeIlNS_3mapINS_12basic_stringIcNS_11char_traitsIcEENS_9allocatorIcEEEEdNS_4lessIS8_EENS6_INS_4pairIKS8_dEEEEEEEENS_19__map_value_compareIlSG_NS9_IlEELb1EEENS6_ISG_EEEC2ERKSL_, symObjAddr: 0x63B8, symBinAddr: 0x100007A20, symSize: 0x9C }
  - { offsetInCU: 0x38D97, offset: 0x38D97, size: 0x8, addend: 0x0, symName: __ZNSt3__116allocator_traitsINS_9allocatorINS_11__tree_nodeINS_12__value_typeIlNS_3mapINS_12basic_stringIcNS_11char_traitsIcEENS1_IcEEEEdNS_4lessIS9_EENS1_INS_4pairIKS9_dEEEEEEEEPvEEEEE37select_on_container_copy_constructionB8ue170006ISK_vvEESK_RKSK_, symObjAddr: 0x6454, symBinAddr: 0x100007ABC, symSize: 0x10 }
  - { offsetInCU: 0x38DC6, offset: 0x38DC6, size: 0x8, addend: 0x0, symName: __ZNKSt3__16__treeINS_12__value_typeIlNS_3mapINS_12basic_stringIcNS_11char_traitsIcEENS_9allocatorIcEEEEdNS_4lessIS8_EENS6_INS_4pairIKS8_dEEEEEEEENS_19__map_value_compareIlSG_NS9_IlEELb1EEENS6_ISG_EEE12__node_allocB8ue170006Ev, symObjAddr: 0x6464, symBinAddr: 0x100007ACC, symSize: 0x28 }
  - { offsetInCU: 0x38DF8, offset: 0x38DF8, size: 0x8, addend: 0x0, symName: __ZNSt3__117__compressed_pairINS_15__tree_end_nodeIPNS_16__tree_node_baseIPvEEEENS_9allocatorINS_11__tree_nodeINS_12__value_typeIlNS_3mapINS_12basic_stringIcNS_11char_traitsIcEENS7_IcEEEEdNS_4lessISF_EENS7_INS_4pairIKSF_dEEEEEEEES3_EEEEEC1B8ue170006INS_18__default_init_tagESP_EEOT_OT0_, symObjAddr: 0x648C, symBinAddr: 0x100007AF4, symSize: 0x3C }
  - { offsetInCU: 0x38E50, offset: 0x38E50, size: 0x8, addend: 0x0, symName: __ZNKSt3__16__treeINS_12__value_typeIlNS_3mapINS_12basic_stringIcNS_11char_traitsIcEENS_9allocatorIcEEEEdNS_4lessIS8_EENS6_INS_4pairIKS8_dEEEEEEEENS_19__map_value_compareIlSG_NS9_IlEELb1EEENS6_ISG_EEE10value_compB8ue170006Ev, symObjAddr: 0x64C8, symBinAddr: 0x100007B30, symSize: 0x28 }
  - { offsetInCU: 0x38E76, offset: 0x38E76, size: 0x8, addend: 0x0, symName: __ZNKSt3__117__compressed_pairINS_15__tree_end_nodeIPNS_16__tree_node_baseIPvEEEENS_9allocatorINS_11__tree_nodeINS_12__value_typeIlNS_3mapINS_12basic_stringIcNS_11char_traitsIcEENS7_IcEEEEdNS_4lessISF_EENS7_INS_4pairIKSF_dEEEEEEEES3_EEEEE6secondB8ue170006Ev, symObjAddr: 0x64F0, symBinAddr: 0x100007B58, symSize: 0x24 }
  - { offsetInCU: 0x38E9C, offset: 0x38E9C, size: 0x8, addend: 0x0, symName: __ZNKSt3__122__compressed_pair_elemINS_9allocatorINS_11__tree_nodeINS_12__value_typeIlNS_3mapINS_12basic_stringIcNS_11char_traitsIcEENS1_IcEEEEdNS_4lessIS9_EENS1_INS_4pairIKS9_dEEEEEEEEPvEEEELi1ELb1EE5__getB8ue170006Ev, symObjAddr: 0x6514, symBinAddr: 0x100007B7C, symSize: 0x14 }
  - { offsetInCU: 0x38EC2, offset: 0x38EC2, size: 0x8, addend: 0x0, symName: __ZNSt3__117__compressed_pairINS_15__tree_end_nodeIPNS_16__tree_node_baseIPvEEEENS_9allocatorINS_11__tree_nodeINS_12__value_typeIlNS_3mapINS_12basic_stringIcNS_11char_traitsIcEENS7_IcEEEEdNS_4lessISF_EENS7_INS_4pairIKSF_dEEEEEEEES3_EEEEEC2B8ue170006INS_18__default_init_tagESP_EEOT_OT0_, symObjAddr: 0x6528, symBinAddr: 0x100007B90, symSize: 0x40 }
  - { offsetInCU: 0x38F1A, offset: 0x38F1A, size: 0x8, addend: 0x0, symName: __ZNSt3__122__compressed_pair_elemINS_15__tree_end_nodeIPNS_16__tree_node_baseIPvEEEELi0ELb0EEC2B8ue170006ENS_18__default_init_tagE, symObjAddr: 0x6568, symBinAddr: 0x100007BD0, symSize: 0x2C }
  - { offsetInCU: 0x38F4E, offset: 0x38F4E, size: 0x8, addend: 0x0, symName: __ZNSt3__122__compressed_pair_elemINS_9allocatorINS_11__tree_nodeINS_12__value_typeIlNS_3mapINS_12basic_stringIcNS_11char_traitsIcEENS1_IcEEEEdNS_4lessIS9_EENS1_INS_4pairIKS9_dEEEEEEEEPvEEEELi1ELb1EEC2B8ue170006ISK_vEEOT_, symObjAddr: 0x6594, symBinAddr: 0x100007BFC, symSize: 0x18 }
  - { offsetInCU: 0x38F90, offset: 0x38F90, size: 0x8, addend: 0x0, symName: __ZNKSt3__117__compressed_pairImNS_19__map_value_compareIlNS_12__value_typeIlNS_3mapINS_12basic_stringIcNS_11char_traitsIcEENS_9allocatorIcEEEEdNS_4lessIS9_EENS7_INS_4pairIKS9_dEEEEEEEENSA_IlEELb1EEEE6secondB8ue170006Ev, symObjAddr: 0x65AC, symBinAddr: 0x100007C14, symSize: 0x24 }
  - { offsetInCU: 0x38FB6, offset: 0x38FB6, size: 0x8, addend: 0x0, symName: __ZNKSt3__122__compressed_pair_elemINS_19__map_value_compareIlNS_12__value_typeIlNS_3mapINS_12basic_stringIcNS_11char_traitsIcEENS_9allocatorIcEEEEdNS_4lessIS9_EENS7_INS_4pairIKS9_dEEEEEEEENSA_IlEELb1EEELi1ELb1EE5__getB8ue170006Ev, symObjAddr: 0x65D0, symBinAddr: 0x100007C38, symSize: 0x14 }
  - { offsetInCU: 0x38FDC, offset: 0x38FDC, size: 0x8, addend: 0x0, symName: __ZNKSt3__13mapIlNS0_INS_12basic_stringIcNS_11char_traitsIcEENS_9allocatorIcEEEEdNS_4lessIS6_EENS4_INS_4pairIKS6_dEEEEEENS7_IlEENS4_INS9_IKlSD_EEEEE4cendB8ue170006Ev, symObjAddr: 0x65E4, symBinAddr: 0x100007C4C, symSize: 0x2C }
  - { offsetInCU: 0x39002, offset: 0x39002, size: 0x8, addend: 0x0, symName: __ZNSt3__13mapIlNS0_INS_12basic_stringIcNS_11char_traitsIcEENS_9allocatorIcEEEEdNS_4lessIS6_EENS4_INS_4pairIKS6_dEEEEEENS7_IlEENS4_INS9_IKlSD_EEEEE6insertB8ue170006ENS_20__map_const_iteratorINS_21__tree_const_iteratorINS_12__value_typeIlSD_EEPNS_11__tree_nodeISM_PvEElEEEERKSG_, symObjAddr: 0x6640, symBinAddr: 0x100007CA8, symSize: 0x50 }
  - { offsetInCU: 0x39046, offset: 0x39046, size: 0x8, addend: 0x0, symName: __ZNSt3__120__map_const_iteratorINS_21__tree_const_iteratorINS_12__value_typeIlNS_3mapINS_12basic_stringIcNS_11char_traitsIcEENS_9allocatorIcEEEEdNS_4lessIS9_EENS7_INS_4pairIKS9_dEEEEEEEEPNS_11__tree_nodeISH_PvEElEEEC1B8ue170006ESM_, symObjAddr: 0x6690, symBinAddr: 0x100007CF8, symSize: 0x34 }
  - { offsetInCU: 0x3907F, offset: 0x3907F, size: 0x8, addend: 0x0, symName: __ZNKSt3__120__map_const_iteratorINS_21__tree_const_iteratorINS_12__value_typeIlNS_3mapINS_12basic_stringIcNS_11char_traitsIcEENS_9allocatorIcEEEEdNS_4lessIS9_EENS7_INS_4pairIKS9_dEEEEEEEEPNS_11__tree_nodeISH_PvEElEEEdeB8ue170006Ev, symObjAddr: 0x66C4, symBinAddr: 0x100007D2C, symSize: 0x28 }
  - { offsetInCU: 0x390A5, offset: 0x390A5, size: 0x8, addend: 0x0, symName: __ZNSt3__120__map_const_iteratorINS_21__tree_const_iteratorINS_12__value_typeIlNS_3mapINS_12basic_stringIcNS_11char_traitsIcEENS_9allocatorIcEEEEdNS_4lessIS9_EENS7_INS_4pairIKS9_dEEEEEEEEPNS_11__tree_nodeISH_PvEElEEEppB8ue170006Ev, symObjAddr: 0x66EC, symBinAddr: 0x100007D54, symSize: 0x2C }
  - { offsetInCU: 0x390CB, offset: 0x390CB, size: 0x8, addend: 0x0, symName: __ZNSt3__16__treeINS_12__value_typeIlNS_3mapINS_12basic_stringIcNS_11char_traitsIcEENS_9allocatorIcEEEEdNS_4lessIS8_EENS6_INS_4pairIKS8_dEEEEEEEENS_19__map_value_compareIlSG_NS9_IlEELb1EEENS6_ISG_EEE15__insert_uniqueB8ue170006ENS_21__tree_const_iteratorISG_PNS_11__tree_nodeISG_PvEElEERKNSB_IKlSF_EE, symObjAddr: 0x677C, symBinAddr: 0x100007DE4, symSize: 0x64 }
  - { offsetInCU: 0x3910F, offset: 0x3910F, size: 0x8, addend: 0x0, symName: __ZNSt3__114__map_iteratorINS_15__tree_iteratorINS_12__value_typeIlNS_3mapINS_12basic_stringIcNS_11char_traitsIcEENS_9allocatorIcEEEEdNS_4lessIS9_EENS7_INS_4pairIKS9_dEEEEEEEEPNS_11__tree_nodeISH_PvEElEEEC1B8ue170006ESM_, symObjAddr: 0x67E0, symBinAddr: 0x100007E48, symSize: 0x34 }
  - { offsetInCU: 0x39148, offset: 0x39148, size: 0x8, addend: 0x0, symName: __ZNSt3__16__treeINS_12__value_typeIlNS_3mapINS_12basic_stringIcNS_11char_traitsIcEENS_9allocatorIcEEEEdNS_4lessIS8_EENS6_INS_4pairIKS8_dEEEEEEEENS_19__map_value_compareIlSG_NS9_IlEELb1EEENS6_ISG_EEE30__emplace_hint_unique_key_argsIlJRKNSB_IKlSF_EEEEENSB_INS_15__tree_iteratorISG_PNS_11__tree_nodeISG_PvEElEEbEENS_21__tree_const_iteratorISG_SV_lEERKT_DpOT0_, symObjAddr: 0x6814, symBinAddr: 0x100007E7C, symSize: 0x104 }
  - { offsetInCU: 0x39214, offset: 0x39214, size: 0x8, addend: 0x0, symName: __ZNSt3__122__tree_key_value_typesINS_12__value_typeIlNS_3mapINS_12basic_stringIcNS_11char_traitsIcEENS_9allocatorIcEEEEdNS_4lessIS8_EENS6_INS_4pairIKS8_dEEEEEEEEE9__get_keyB8ue170006IKNSB_IKlSF_EEEENS_9enable_ifIXsr17__is_same_uncvrefIT_SK_EE5valueERSJ_E4typeERSN_, symObjAddr: 0x6918, symBinAddr: 0x100007F80, symSize: 0x14 }
  - { offsetInCU: 0x39241, offset: 0x39241, size: 0x8, addend: 0x0, symName: __ZNSt3__16__treeINS_12__value_typeIlNS_3mapINS_12basic_stringIcNS_11char_traitsIcEENS_9allocatorIcEEEEdNS_4lessIS8_EENS6_INS_4pairIKS8_dEEEEEEEENS_19__map_value_compareIlSG_NS9_IlEELb1EEENS6_ISG_EEE12__find_equalIlEERPNS_16__tree_node_baseIPvEENS_21__tree_const_iteratorISG_PNS_11__tree_nodeISG_SO_EElEERPNS_15__tree_end_nodeISQ_EESR_RKT_, symObjAddr: 0x692C, symBinAddr: 0x100007F94, symSize: 0x304 }
  - { offsetInCU: 0x392EA, offset: 0x392EA, size: 0x8, addend: 0x0, symName: __ZNSt3__16__treeINS_12__value_typeIlNS_3mapINS_12basic_stringIcNS_11char_traitsIcEENS_9allocatorIcEEEEdNS_4lessIS8_EENS6_INS_4pairIKS8_dEEEEEEEENS_19__map_value_compareIlSG_NS9_IlEELb1EEENS6_ISG_EEE16__construct_nodeIJRKNSB_IKlSF_EEEEENS_10unique_ptrINS_11__tree_nodeISG_PvEENS_22__tree_node_destructorINS6_ISU_EEEEEEDpOT_, symObjAddr: 0x6C30, symBinAddr: 0x100008298, symSize: 0x110 }
  - { offsetInCU: 0x3934B, offset: 0x3934B, size: 0x8, addend: 0x0, symName: __ZNSt3__16__treeINS_12__value_typeIlNS_3mapINS_12basic_stringIcNS_11char_traitsIcEENS_9allocatorIcEEEEdNS_4lessIS8_EENS6_INS_4pairIKS8_dEEEEEEEENS_19__map_value_compareIlSG_NS9_IlEELb1EEENS6_ISG_EEE16__insert_node_atEPNS_15__tree_end_nodeIPNS_16__tree_node_baseIPvEEEERSQ_SQ_, symObjAddr: 0x6D40, symBinAddr: 0x1000083A8, symSize: 0xCC }
  - { offsetInCU: 0x393A0, offset: 0x393A0, size: 0x8, addend: 0x0, symName: __ZNKSt3__110unique_ptrINS_11__tree_nodeINS_12__value_typeIlNS_3mapINS_12basic_stringIcNS_11char_traitsIcEENS_9allocatorIcEEEEdNS_4lessIS9_EENS7_INS_4pairIKS9_dEEEEEEEEPvEENS_22__tree_node_destructorINS7_ISJ_EEEEE3getB8ue170006Ev, symObjAddr: 0x6E0C, symBinAddr: 0x100008474, symSize: 0x28 }
  - { offsetInCU: 0x393C6, offset: 0x393C6, size: 0x8, addend: 0x0, symName: __ZNSt3__110unique_ptrINS_11__tree_nodeINS_12__value_typeIlNS_3mapINS_12basic_stringIcNS_11char_traitsIcEENS_9allocatorIcEEEEdNS_4lessIS9_EENS7_INS_4pairIKS9_dEEEEEEEEPvEENS_22__tree_node_destructorINS7_ISJ_EEEEE7releaseB8ue170006Ev, symObjAddr: 0x6E34, symBinAddr: 0x10000849C, symSize: 0x44 }
  - { offsetInCU: 0x393FB, offset: 0x393FB, size: 0x8, addend: 0x0, symName: __ZNSt3__110unique_ptrINS_11__tree_nodeINS_12__value_typeIlNS_3mapINS_12basic_stringIcNS_11char_traitsIcEENS_9allocatorIcEEEEdNS_4lessIS9_EENS7_INS_4pairIKS9_dEEEEEEEEPvEENS_22__tree_node_destructorINS7_ISJ_EEEEED1B8ue170006Ev, symObjAddr: 0x6E78, symBinAddr: 0x1000084E0, symSize: 0x2C }
  - { offsetInCU: 0x39425, offset: 0x39425, size: 0x8, addend: 0x0, symName: __ZNSt3__115__tree_iteratorINS_12__value_typeIlNS_3mapINS_12basic_stringIcNS_11char_traitsIcEENS_9allocatorIcEEEEdNS_4lessIS8_EENS6_INS_4pairIKS8_dEEEEEEEEPNS_11__tree_nodeISG_PvEElEC1B8ue170006ESK_, symObjAddr: 0x6EA4, symBinAddr: 0x10000850C, symSize: 0x34 }
  - { offsetInCU: 0x39464, offset: 0x39464, size: 0x8, addend: 0x0, symName: __ZNSt3__14pairINS_15__tree_iteratorINS_12__value_typeIlNS_3mapINS_12basic_stringIcNS_11char_traitsIcEENS_9allocatorIcEEEEdNS_4lessIS9_EENS7_INS0_IKS9_dEEEEEEEEPNS_11__tree_nodeISG_PvEElEEbEC1B8ue170006ISL_RbLSI_0EEEOT_OT0_, symObjAddr: 0x6ED8, symBinAddr: 0x100008540, symSize: 0x3C }
  - { offsetInCU: 0x394C2, offset: 0x394C2, size: 0x8, addend: 0x0, symName: __ZNSt3__16__treeINS_12__value_typeIlNS_3mapINS_12basic_stringIcNS_11char_traitsIcEENS_9allocatorIcEEEEdNS_4lessIS8_EENS6_INS_4pairIKS8_dEEEEEEEENS_19__map_value_compareIlSG_NS9_IlEELb1EEENS6_ISG_EEE3endB8ue170006Ev, symObjAddr: 0x6F14, symBinAddr: 0x10000857C, symSize: 0x34 }
  - { offsetInCU: 0x394E8, offset: 0x394E8, size: 0x8, addend: 0x0, symName: __ZNSt3__121__tree_const_iteratorINS_12__value_typeIlNS_3mapINS_12basic_stringIcNS_11char_traitsIcEENS_9allocatorIcEEEEdNS_4lessIS8_EENS6_INS_4pairIKS8_dEEEEEEEEPNS_11__tree_nodeISG_PvEElEC1B8ue170006ENS_15__tree_iteratorISG_SK_lEE, symObjAddr: 0x6F48, symBinAddr: 0x1000085B0, symSize: 0x34 }
  - { offsetInCU: 0x39521, offset: 0x39521, size: 0x8, addend: 0x0, symName: __ZNSt3__16__treeINS_12__value_typeIlNS_3mapINS_12basic_stringIcNS_11char_traitsIcEENS_9allocatorIcEEEEdNS_4lessIS8_EENS6_INS_4pairIKS8_dEEEEEEEENS_19__map_value_compareIlSG_NS9_IlEELb1EEENS6_ISG_EEE10value_compB8ue170006Ev, symObjAddr: 0x6F7C, symBinAddr: 0x1000085E4, symSize: 0x28 }
  - { offsetInCU: 0x39547, offset: 0x39547, size: 0x8, addend: 0x0, symName: __ZNKSt3__119__map_value_compareIlNS_12__value_typeIlNS_3mapINS_12basic_stringIcNS_11char_traitsIcEENS_9allocatorIcEEEEdNS_4lessIS8_EENS6_INS_4pairIKS8_dEEEEEEEENS9_IlEELb1EEclB8ue170006ERKlRKSG_, symObjAddr: 0x6FA4, symBinAddr: 0x10000860C, symSize: 0x50 }
  - { offsetInCU: 0x3958B, offset: 0x3958B, size: 0x8, addend: 0x0, symName: __ZNKSt3__121__tree_const_iteratorINS_12__value_typeIlNS_3mapINS_12basic_stringIcNS_11char_traitsIcEENS_9allocatorIcEEEEdNS_4lessIS8_EENS6_INS_4pairIKS8_dEEEEEEEEPNS_11__tree_nodeISG_PvEElEdeB8ue170006Ev, symObjAddr: 0x6FF4, symBinAddr: 0x10000865C, symSize: 0x28 }
  - { offsetInCU: 0x395B1, offset: 0x395B1, size: 0x8, addend: 0x0, symName: __ZNSt3__16__treeINS_12__value_typeIlNS_3mapINS_12basic_stringIcNS_11char_traitsIcEENS_9allocatorIcEEEEdNS_4lessIS8_EENS6_INS_4pairIKS8_dEEEEEEEENS_19__map_value_compareIlSG_NS9_IlEELb1EEENS6_ISG_EEE5beginB8ue170006Ev, symObjAddr: 0x701C, symBinAddr: 0x100008684, symSize: 0x34 }
  - { offsetInCU: 0x395D7, offset: 0x395D7, size: 0x8, addend: 0x0, symName: __ZNKSt3__119__map_value_compareIlNS_12__value_typeIlNS_3mapINS_12basic_stringIcNS_11char_traitsIcEENS_9allocatorIcEEEEdNS_4lessIS8_EENS6_INS_4pairIKS8_dEEEEEEEENS9_IlEELb1EEclB8ue170006ERKSG_RKl, symObjAddr: 0x7050, symBinAddr: 0x1000086B8, symSize: 0x48 }
  - { offsetInCU: 0x3961B, offset: 0x3961B, size: 0x8, addend: 0x0, symName: __ZNSt3__121__tree_const_iteratorINS_12__value_typeIlNS_3mapINS_12basic_stringIcNS_11char_traitsIcEENS_9allocatorIcEEEEdNS_4lessIS8_EENS6_INS_4pairIKS8_dEEEEEEEEPNS_11__tree_nodeISG_PvEElEmmB8ue170006Ev, symObjAddr: 0x7098, symBinAddr: 0x100008700, symSize: 0x38 }
  - { offsetInCU: 0x39641, offset: 0x39641, size: 0x8, addend: 0x0, symName: __ZNSt3__16__treeINS_12__value_typeIlNS_3mapINS_12basic_stringIcNS_11char_traitsIcEENS_9allocatorIcEEEEdNS_4lessIS8_EENS6_INS_4pairIKS8_dEEEEEEEENS_19__map_value_compareIlSG_NS9_IlEELb1EEENS6_ISG_EEE12__find_equalIlEERPNS_16__tree_node_baseIPvEERPNS_15__tree_end_nodeISQ_EERKT_, symObjAddr: 0x70D0, symBinAddr: 0x100008738, symSize: 0x184 }
  - { offsetInCU: 0x396AE, offset: 0x396AE, size: 0x8, addend: 0x0, symName: __ZNKSt3__121__tree_const_iteratorINS_12__value_typeIlNS_3mapINS_12basic_stringIcNS_11char_traitsIcEENS_9allocatorIcEEEEdNS_4lessIS8_EENS6_INS_4pairIKS8_dEEEEEEEEPNS_11__tree_nodeISG_PvEElE8__get_npB8ue170006Ev, symObjAddr: 0x7290, symBinAddr: 0x1000088F8, symSize: 0x18 }
  - { offsetInCU: 0x396D4, offset: 0x396D4, size: 0x8, addend: 0x0, symName: __ZNSt3__115__tree_iteratorINS_12__value_typeIlNS_3mapINS_12basic_stringIcNS_11char_traitsIcEENS_9allocatorIcEEEEdNS_4lessIS8_EENS6_INS_4pairIKS8_dEEEEEEEEPNS_11__tree_nodeISG_PvEElEC1B8ue170006EPNS_15__tree_end_nodeIPNS_16__tree_node_baseISI_EEEE, symObjAddr: 0x72A8, symBinAddr: 0x100008910, symSize: 0x34 }
  - { offsetInCU: 0x3970D, offset: 0x3970D, size: 0x8, addend: 0x0, symName: __ZNSt3__115__tree_iteratorINS_12__value_typeIlNS_3mapINS_12basic_stringIcNS_11char_traitsIcEENS_9allocatorIcEEEEdNS_4lessIS8_EENS6_INS_4pairIKS8_dEEEEEEEEPNS_11__tree_nodeISG_PvEElEC2B8ue170006EPNS_15__tree_end_nodeIPNS_16__tree_node_baseISI_EEEE, symObjAddr: 0x72DC, symBinAddr: 0x100008944, symSize: 0x20 }
  - { offsetInCU: 0x39746, offset: 0x39746, size: 0x8, addend: 0x0, symName: __ZNSt3__121__tree_const_iteratorINS_12__value_typeIlNS_3mapINS_12basic_stringIcNS_11char_traitsIcEENS_9allocatorIcEEEEdNS_4lessIS8_EENS6_INS_4pairIKS8_dEEEEEEEEPNS_11__tree_nodeISG_PvEElEC2B8ue170006ENS_15__tree_iteratorISG_SK_lEE, symObjAddr: 0x72FC, symBinAddr: 0x100008964, symSize: 0x20 }
  - { offsetInCU: 0x3977F, offset: 0x3977F, size: 0x8, addend: 0x0, symName: __ZNSt3__117__compressed_pairImNS_19__map_value_compareIlNS_12__value_typeIlNS_3mapINS_12basic_stringIcNS_11char_traitsIcEENS_9allocatorIcEEEEdNS_4lessIS9_EENS7_INS_4pairIKS9_dEEEEEEEENSA_IlEELb1EEEE6secondB8ue170006Ev, symObjAddr: 0x731C, symBinAddr: 0x100008984, symSize: 0x24 }
  - { offsetInCU: 0x397A5, offset: 0x397A5, size: 0x8, addend: 0x0, symName: __ZNSt3__122__compressed_pair_elemINS_19__map_value_compareIlNS_12__value_typeIlNS_3mapINS_12basic_stringIcNS_11char_traitsIcEENS_9allocatorIcEEEEdNS_4lessIS9_EENS7_INS_4pairIKS9_dEEEEEEEENSA_IlEELb1EEELi1ELb1EE5__getB8ue170006Ev, symObjAddr: 0x7340, symBinAddr: 0x1000089A8, symSize: 0x14 }
  - { offsetInCU: 0x397CB, offset: 0x397CB, size: 0x8, addend: 0x0, symName: __ZNKSt3__14lessIlEclB8ue170006ERKlS3_, symObjAddr: 0x7354, symBinAddr: 0x1000089BC, symSize: 0x34 }
  - { offsetInCU: 0x3980F, offset: 0x3980F, size: 0x8, addend: 0x0, symName: __ZNKSt3__112__value_typeIlNS_3mapINS_12basic_stringIcNS_11char_traitsIcEENS_9allocatorIcEEEEdNS_4lessIS7_EENS5_INS_4pairIKS7_dEEEEEEE11__get_valueB8ue170006Ev, symObjAddr: 0x7388, symBinAddr: 0x1000089F0, symSize: 0x14 }
  - { offsetInCU: 0x39835, offset: 0x39835, size: 0x8, addend: 0x0, symName: __ZNKSt3__16__treeINS_12__value_typeIlNS_3mapINS_12basic_stringIcNS_11char_traitsIcEENS_9allocatorIcEEEEdNS_4lessIS8_EENS6_INS_4pairIKS8_dEEEEEEEENS_19__map_value_compareIlSG_NS9_IlEELb1EEENS6_ISG_EEE6__rootB8ue170006Ev, symObjAddr: 0x7464, symBinAddr: 0x100008ACC, symSize: 0x28 }
  - { offsetInCU: 0x3985B, offset: 0x3985B, size: 0x8, addend: 0x0, symName: __ZNKSt3__16__treeINS_12__value_typeIlNS_3mapINS_12basic_stringIcNS_11char_traitsIcEENS_9allocatorIcEEEEdNS_4lessIS8_EENS6_INS_4pairIKS8_dEEEEEEEENS_19__map_value_compareIlSG_NS9_IlEELb1EEENS6_ISG_EEE10__root_ptrB8ue170006Ev, symObjAddr: 0x748C, symBinAddr: 0x100008AF4, symSize: 0x24 }
  - { offsetInCU: 0x39881, offset: 0x39881, size: 0x8, addend: 0x0, symName: __ZNKSt3__16__treeINS_12__value_typeIlNS_3mapINS_12basic_stringIcNS_11char_traitsIcEENS_9allocatorIcEEEEdNS_4lessIS8_EENS6_INS_4pairIKS8_dEEEEEEEENS_19__map_value_compareIlSG_NS9_IlEELb1EEENS6_ISG_EEE10__end_nodeB8ue170006Ev, symObjAddr: 0x74B0, symBinAddr: 0x100008B18, symSize: 0x2C }
  - { offsetInCU: 0x398A7, offset: 0x398A7, size: 0x8, addend: 0x0, symName: __ZNKSt3__117__compressed_pairINS_15__tree_end_nodeIPNS_16__tree_node_baseIPvEEEENS_9allocatorINS_11__tree_nodeINS_12__value_typeIlNS_3mapINS_12basic_stringIcNS_11char_traitsIcEENS7_IcEEEEdNS_4lessISF_EENS7_INS_4pairIKSF_dEEEEEEEES3_EEEEE5firstB8ue170006Ev, symObjAddr: 0x74DC, symBinAddr: 0x100008B44, symSize: 0x24 }
  - { offsetInCU: 0x398CD, offset: 0x398CD, size: 0x8, addend: 0x0, symName: __ZNSt3__121__tree_const_iteratorINS_12__value_typeIlNS_3mapINS_12basic_stringIcNS_11char_traitsIcEENS_9allocatorIcEEEEdNS_4lessIS8_EENS6_INS_4pairIKS8_dEEEEEEEEPNS_11__tree_nodeISG_PvEElEppB8ue170006Ev, symObjAddr: 0x75F0, symBinAddr: 0x100008C58, symSize: 0x38 }
  - { offsetInCU: 0x398F3, offset: 0x398F3, size: 0x8, addend: 0x0, symName: __ZNSt3__16__treeINS_12__value_typeIlNS_3mapINS_12basic_stringIcNS_11char_traitsIcEENS_9allocatorIcEEEEdNS_4lessIS8_EENS6_INS_4pairIKS8_dEEEEEEEENS_19__map_value_compareIlSG_NS9_IlEELb1EEENS6_ISG_EEE12__node_allocB8ue170006Ev, symObjAddr: 0x76E8, symBinAddr: 0x100008D50, symSize: 0x28 }
  - { offsetInCU: 0x39919, offset: 0x39919, size: 0x8, addend: 0x0, symName: __ZNSt3__116allocator_traitsINS_9allocatorINS_11__tree_nodeINS_12__value_typeIlNS_3mapINS_12basic_stringIcNS_11char_traitsIcEENS1_IcEEEEdNS_4lessIS9_EENS1_INS_4pairIKS9_dEEEEEEEEPvEEEEE8allocateB8ue170006ERSK_m, symObjAddr: 0x7710, symBinAddr: 0x100008D78, symSize: 0x2C }
  - { offsetInCU: 0x3994C, offset: 0x3994C, size: 0x8, addend: 0x0, symName: __ZNSt3__122__tree_node_destructorINS_9allocatorINS_11__tree_nodeINS_12__value_typeIlNS_3mapINS_12basic_stringIcNS_11char_traitsIcEENS1_IcEEEEdNS_4lessIS9_EENS1_INS_4pairIKS9_dEEEEEEEEPvEEEEEC1B8ue170006ERSK_b, symObjAddr: 0x773C, symBinAddr: 0x100008DA4, symSize: 0x48 }
  - { offsetInCU: 0x3999A, offset: 0x3999A, size: 0x8, addend: 0x0, symName: __ZNSt3__110unique_ptrINS_11__tree_nodeINS_12__value_typeIlNS_3mapINS_12basic_stringIcNS_11char_traitsIcEENS_9allocatorIcEEEEdNS_4lessIS9_EENS7_INS_4pairIKS9_dEEEEEEEEPvEENS_22__tree_node_destructorINS7_ISJ_EEEEEC1B8ue170006ILb1EvEEPSJ_NS_16__dependent_typeINS_27__unique_ptr_deleter_sfinaeISM_EEXT_EE20__good_rval_ref_typeE, symObjAddr: 0x7784, symBinAddr: 0x100008DEC, symSize: 0x3C }
  - { offsetInCU: 0x399EB, offset: 0x399EB, size: 0x8, addend: 0x0, symName: __ZNSt3__116allocator_traitsINS_9allocatorINS_11__tree_nodeINS_12__value_typeIlNS_3mapINS_12basic_stringIcNS_11char_traitsIcEENS1_IcEEEEdNS_4lessIS9_EENS1_INS_4pairIKS9_dEEEEEEEEPvEEEEE9constructB8ue170006INSC_IKlSG_EEJRKSO_EvEEvRSK_PT_DpOT0_, symObjAddr: 0x77C0, symBinAddr: 0x100008E28, symSize: 0x34 }
  - { offsetInCU: 0x39A42, offset: 0x39A42, size: 0x8, addend: 0x0, symName: __ZNSt3__122__tree_key_value_typesINS_12__value_typeIlNS_3mapINS_12basic_stringIcNS_11char_traitsIcEENS_9allocatorIcEEEEdNS_4lessIS8_EENS6_INS_4pairIKS8_dEEEEEEEEE9__get_ptrB8ue170006ERSG_, symObjAddr: 0x77F4, symBinAddr: 0x100008E5C, symSize: 0x24 }
  - { offsetInCU: 0x39A66, offset: 0x39A66, size: 0x8, addend: 0x0, symName: __ZNKSt3__110unique_ptrINS_11__tree_nodeINS_12__value_typeIlNS_3mapINS_12basic_stringIcNS_11char_traitsIcEENS_9allocatorIcEEEEdNS_4lessIS9_EENS7_INS_4pairIKS9_dEEEEEEEEPvEENS_22__tree_node_destructorINS7_ISJ_EEEEEptB8ue170006Ev, symObjAddr: 0x7818, symBinAddr: 0x100008E80, symSize: 0x28 }
  - { offsetInCU: 0x39A8C, offset: 0x39A8C, size: 0x8, addend: 0x0, symName: __ZNSt3__110unique_ptrINS_11__tree_nodeINS_12__value_typeIlNS_3mapINS_12basic_stringIcNS_11char_traitsIcEENS_9allocatorIcEEEEdNS_4lessIS9_EENS7_INS_4pairIKS9_dEEEEEEEEPvEENS_22__tree_node_destructorINS7_ISJ_EEEEE11get_deleterB8ue170006Ev, symObjAddr: 0x7840, symBinAddr: 0x100008EA8, symSize: 0x24 }
  - { offsetInCU: 0x39AB2, offset: 0x39AB2, size: 0x8, addend: 0x0, symName: __ZNSt3__117__compressed_pairINS_15__tree_end_nodeIPNS_16__tree_node_baseIPvEEEENS_9allocatorINS_11__tree_nodeINS_12__value_typeIlNS_3mapINS_12basic_stringIcNS_11char_traitsIcEENS7_IcEEEEdNS_4lessISF_EENS7_INS_4pairIKSF_dEEEEEEEES3_EEEEE6secondB8ue170006Ev, symObjAddr: 0x7864, symBinAddr: 0x100008ECC, symSize: 0x24 }
  - { offsetInCU: 0x39AD8, offset: 0x39AD8, size: 0x8, addend: 0x0, symName: __ZNSt3__122__compressed_pair_elemINS_9allocatorINS_11__tree_nodeINS_12__value_typeIlNS_3mapINS_12basic_stringIcNS_11char_traitsIcEENS1_IcEEEEdNS_4lessIS9_EENS1_INS_4pairIKS9_dEEEEEEEEPvEEEELi1ELb1EE5__getB8ue170006Ev, symObjAddr: 0x7888, symBinAddr: 0x100008EF0, symSize: 0x14 }
  - { offsetInCU: 0x39AFE, offset: 0x39AFE, size: 0x8, addend: 0x0, symName: __ZNSt3__19allocatorINS_11__tree_nodeINS_12__value_typeIlNS_3mapINS_12basic_stringIcNS_11char_traitsIcEENS0_IcEEEEdNS_4lessIS8_EENS0_INS_4pairIKS8_dEEEEEEEEPvEEE8allocateB8ue170006Em, symObjAddr: 0x789C, symBinAddr: 0x100008F04, symSize: 0x58 }
  - { offsetInCU: 0x39B32, offset: 0x39B32, size: 0x8, addend: 0x0, symName: __ZNSt3__116allocator_traitsINS_9allocatorINS_11__tree_nodeINS_12__value_typeIlNS_3mapINS_12basic_stringIcNS_11char_traitsIcEENS1_IcEEEEdNS_4lessIS9_EENS1_INS_4pairIKS9_dEEEEEEEEPvEEEEE8max_sizeB8ue170006ISK_vEEmRKSK_, symObjAddr: 0x78F4, symBinAddr: 0x100008F5C, symSize: 0x24 }
  - { offsetInCU: 0x39B60, offset: 0x39B60, size: 0x8, addend: 0x0, symName: __ZNKSt3__19allocatorINS_11__tree_nodeINS_12__value_typeIlNS_3mapINS_12basic_stringIcNS_11char_traitsIcEENS0_IcEEEEdNS_4lessIS8_EENS0_INS_4pairIKS8_dEEEEEEEEPvEEE8max_sizeB8ue170006Ev, symObjAddr: 0x7918, symBinAddr: 0x100008F80, symSize: 0x14 }
  - { offsetInCU: 0x39B86, offset: 0x39B86, size: 0x8, addend: 0x0, symName: __ZNSt3__122__tree_node_destructorINS_9allocatorINS_11__tree_nodeINS_12__value_typeIlNS_3mapINS_12basic_stringIcNS_11char_traitsIcEENS1_IcEEEEdNS_4lessIS9_EENS1_INS_4pairIKS9_dEEEEEEEEPvEEEEEC2B8ue170006ERSK_b, symObjAddr: 0x792C, symBinAddr: 0x100008F94, symSize: 0x38 }
  - { offsetInCU: 0x39BCE, offset: 0x39BCE, size: 0x8, addend: 0x0, symName: __ZNSt3__110unique_ptrINS_11__tree_nodeINS_12__value_typeIlNS_3mapINS_12basic_stringIcNS_11char_traitsIcEENS_9allocatorIcEEEEdNS_4lessIS9_EENS7_INS_4pairIKS9_dEEEEEEEEPvEENS_22__tree_node_destructorINS7_ISJ_EEEEEC2B8ue170006ILb1EvEEPSJ_NS_16__dependent_typeINS_27__unique_ptr_deleter_sfinaeISM_EEXT_EE20__good_rval_ref_typeE, symObjAddr: 0x7964, symBinAddr: 0x100008FCC, symSize: 0x48 }
  - { offsetInCU: 0x39C1F, offset: 0x39C1F, size: 0x8, addend: 0x0, symName: __ZNSt3__117__compressed_pairIPNS_11__tree_nodeINS_12__value_typeIlNS_3mapINS_12basic_stringIcNS_11char_traitsIcEENS_9allocatorIcEEEEdNS_4lessIS9_EENS7_INS_4pairIKS9_dEEEEEEEEPvEENS_22__tree_node_destructorINS7_ISJ_EEEEEC1B8ue170006IRSK_SN_EEOT_OT0_, symObjAddr: 0x79AC, symBinAddr: 0x100009014, symSize: 0x3C }
  - { offsetInCU: 0x39C77, offset: 0x39C77, size: 0x8, addend: 0x0, symName: __ZNSt3__117__compressed_pairIPNS_11__tree_nodeINS_12__value_typeIlNS_3mapINS_12basic_stringIcNS_11char_traitsIcEENS_9allocatorIcEEEEdNS_4lessIS9_EENS7_INS_4pairIKS9_dEEEEEEEEPvEENS_22__tree_node_destructorINS7_ISJ_EEEEEC2B8ue170006IRSK_SN_EEOT_OT0_, symObjAddr: 0x79E8, symBinAddr: 0x100009050, symSize: 0x48 }
  - { offsetInCU: 0x39CCF, offset: 0x39CCF, size: 0x8, addend: 0x0, symName: __ZNSt3__122__compressed_pair_elemIPNS_11__tree_nodeINS_12__value_typeIlNS_3mapINS_12basic_stringIcNS_11char_traitsIcEENS_9allocatorIcEEEEdNS_4lessIS9_EENS7_INS_4pairIKS9_dEEEEEEEEPvEELi0ELb0EEC2B8ue170006IRSK_vEEOT_, symObjAddr: 0x7A30, symBinAddr: 0x100009098, symSize: 0x24 }
  - { offsetInCU: 0x39D11, offset: 0x39D11, size: 0x8, addend: 0x0, symName: __ZNSt3__122__compressed_pair_elemINS_22__tree_node_destructorINS_9allocatorINS_11__tree_nodeINS_12__value_typeIlNS_3mapINS_12basic_stringIcNS_11char_traitsIcEENS2_IcEEEEdNS_4lessISA_EENS2_INS_4pairIKSA_dEEEEEEEEPvEEEEEELi1ELb0EEC2B8ue170006ISM_vEEOT_, symObjAddr: 0x7A54, symBinAddr: 0x1000090BC, symSize: 0x24 }
  - { offsetInCU: 0x39D53, offset: 0x39D53, size: 0x8, addend: 0x0, symName: __ZNSt3__19allocatorINS_11__tree_nodeINS_12__value_typeIlNS_3mapINS_12basic_stringIcNS_11char_traitsIcEENS0_IcEEEEdNS_4lessIS8_EENS0_INS_4pairIKS8_dEEEEEEEEPvEEE9constructB8ue170006INSB_IKlSF_EEJRKSM_EEEvPT_DpOT0_, symObjAddr: 0x7A78, symBinAddr: 0x1000090E0, symSize: 0x30 }
  - { offsetInCU: 0x39DA9, offset: 0x39DA9, size: 0x8, addend: 0x0, symName: __ZNSt3__14pairIKlNS_3mapINS_12basic_stringIcNS_11char_traitsIcEENS_9allocatorIcEEEEdNS_4lessIS8_EENS6_INS0_IKS8_dEEEEEEEC1B8ue170006ERKSF_, symObjAddr: 0x7AA8, symBinAddr: 0x100009110, symSize: 0x34 }
  - { offsetInCU: 0x39DDD, offset: 0x39DDD, size: 0x8, addend: 0x0, symName: __ZNSt3__14pairIKlNS_3mapINS_12basic_stringIcNS_11char_traitsIcEENS_9allocatorIcEEEEdNS_4lessIS8_EENS6_INS0_IKS8_dEEEEEEEC2B8ue170006ERKSF_, symObjAddr: 0x7ADC, symBinAddr: 0x100009144, symSize: 0x48 }
  - { offsetInCU: 0x39E11, offset: 0x39E11, size: 0x8, addend: 0x0, symName: __ZNSt3__13mapINS_12basic_stringIcNS_11char_traitsIcEENS_9allocatorIcEEEEdNS_4lessIS6_EENS4_INS_4pairIKS6_dEEEEEC1B8ue170006ERKSD_, symObjAddr: 0x7B24, symBinAddr: 0x10000918C, symSize: 0x34 }
  - { offsetInCU: 0x39E4A, offset: 0x39E4A, size: 0x8, addend: 0x0, symName: __ZNSt3__13mapINS_12basic_stringIcNS_11char_traitsIcEENS_9allocatorIcEEEEdNS_4lessIS6_EENS4_INS_4pairIKS6_dEEEEEC2B8ue170006ERKSD_, symObjAddr: 0x7B58, symBinAddr: 0x1000091C0, symSize: 0x88 }
  - { offsetInCU: 0x39E83, offset: 0x39E83, size: 0x8, addend: 0x0, symName: __ZNSt3__16__treeINS_12__value_typeINS_12basic_stringIcNS_11char_traitsIcEENS_9allocatorIcEEEEdEENS_19__map_value_compareIS7_S8_NS_4lessIS7_EELb1EEENS5_IS8_EEEC1ERKSE_, symObjAddr: 0x7BE0, symBinAddr: 0x100009248, symSize: 0x34 }
  - { offsetInCU: 0x39EBE, offset: 0x39EBE, size: 0x8, addend: 0x0, symName: __ZNSt3__13mapINS_12basic_stringIcNS_11char_traitsIcEENS_9allocatorIcEEEEdNS_4lessIS6_EENS4_INS_4pairIKS6_dEEEEE6insertB8ue170006INS_20__map_const_iteratorINS_21__tree_const_iteratorINS_12__value_typeIS6_dEEPNS_11__tree_nodeISI_PvEElEEEEEEvT_SP_, symObjAddr: 0x7C14, symBinAddr: 0x10000927C, symSize: 0x8C }
  - { offsetInCU: 0x39F28, offset: 0x39F28, size: 0x8, addend: 0x0, symName: __ZNKSt3__13mapINS_12basic_stringIcNS_11char_traitsIcEENS_9allocatorIcEEEEdNS_4lessIS6_EENS4_INS_4pairIKS6_dEEEEE5beginB8ue170006Ev, symObjAddr: 0x7CA0, symBinAddr: 0x100009308, symSize: 0x38 }
  - { offsetInCU: 0x39F4E, offset: 0x39F4E, size: 0x8, addend: 0x0, symName: __ZNKSt3__13mapINS_12basic_stringIcNS_11char_traitsIcEENS_9allocatorIcEEEEdNS_4lessIS6_EENS4_INS_4pairIKS6_dEEEEE3endB8ue170006Ev, symObjAddr: 0x7CD8, symBinAddr: 0x100009340, symSize: 0x38 }
  - { offsetInCU: 0x39F74, offset: 0x39F74, size: 0x8, addend: 0x0, symName: __ZNSt3__16__treeINS_12__value_typeINS_12basic_stringIcNS_11char_traitsIcEENS_9allocatorIcEEEEdEENS_19__map_value_compareIS7_S8_NS_4lessIS7_EELb1EEENS5_IS8_EEED1Ev, symObjAddr: 0x7D10, symBinAddr: 0x100009378, symSize: 0x2C }
  - { offsetInCU: 0x39FA0, offset: 0x39FA0, size: 0x8, addend: 0x0, symName: __ZNSt3__16__treeINS_12__value_typeINS_12basic_stringIcNS_11char_traitsIcEENS_9allocatorIcEEEEdEENS_19__map_value_compareIS7_S8_NS_4lessIS7_EELb1EEENS5_IS8_EEEC2ERKSE_, symObjAddr: 0x7D3C, symBinAddr: 0x1000093A4, symSize: 0x9C }
  - { offsetInCU: 0x39FE6, offset: 0x39FE6, size: 0x8, addend: 0x0, symName: __ZNSt3__116allocator_traitsINS_9allocatorINS_11__tree_nodeINS_12__value_typeINS_12basic_stringIcNS_11char_traitsIcEENS1_IcEEEEdEEPvEEEEE37select_on_container_copy_constructionB8ue170006ISC_vvEESC_RKSC_, symObjAddr: 0x7DD8, symBinAddr: 0x100009440, symSize: 0x10 }
  - { offsetInCU: 0x3A015, offset: 0x3A015, size: 0x8, addend: 0x0, symName: __ZNKSt3__16__treeINS_12__value_typeINS_12basic_stringIcNS_11char_traitsIcEENS_9allocatorIcEEEEdEENS_19__map_value_compareIS7_S8_NS_4lessIS7_EELb1EEENS5_IS8_EEE12__node_allocB8ue170006Ev, symObjAddr: 0x7DE8, symBinAddr: 0x100009450, symSize: 0x28 }
  - { offsetInCU: 0x3A041, offset: 0x3A041, size: 0x8, addend: 0x0, symName: __ZNSt3__117__compressed_pairINS_15__tree_end_nodeIPNS_16__tree_node_baseIPvEEEENS_9allocatorINS_11__tree_nodeINS_12__value_typeINS_12basic_stringIcNS_11char_traitsIcEENS7_IcEEEEdEES3_EEEEEC1B8ue170006INS_18__default_init_tagESH_EEOT_OT0_, symObjAddr: 0x7E10, symBinAddr: 0x100009478, symSize: 0x3C }
  - { offsetInCU: 0x3A099, offset: 0x3A099, size: 0x8, addend: 0x0, symName: __ZNKSt3__16__treeINS_12__value_typeINS_12basic_stringIcNS_11char_traitsIcEENS_9allocatorIcEEEEdEENS_19__map_value_compareIS7_S8_NS_4lessIS7_EELb1EEENS5_IS8_EEE10value_compB8ue170006Ev, symObjAddr: 0x7E4C, symBinAddr: 0x1000094B4, symSize: 0x28 }
  - { offsetInCU: 0x3A0BF, offset: 0x3A0BF, size: 0x8, addend: 0x0, symName: __ZNSt3__117__compressed_pairImNS_19__map_value_compareINS_12basic_stringIcNS_11char_traitsIcEENS_9allocatorIcEEEENS_12__value_typeIS7_dEENS_4lessIS7_EELb1EEEEC1B8ue170006IiRKSC_EEOT_OT0_, symObjAddr: 0x7E74, symBinAddr: 0x1000094DC, symSize: 0x3C }
  - { offsetInCU: 0x3A117, offset: 0x3A117, size: 0x8, addend: 0x0, symName: __ZNSt3__16__treeINS_12__value_typeINS_12basic_stringIcNS_11char_traitsIcEENS_9allocatorIcEEEEdEENS_19__map_value_compareIS7_S8_NS_4lessIS7_EELb1EEENS5_IS8_EEE10__end_nodeB8ue170006Ev, symObjAddr: 0x7EB0, symBinAddr: 0x100009518, symSize: 0x2C }
  - { offsetInCU: 0x3A13D, offset: 0x3A13D, size: 0x8, addend: 0x0, symName: __ZNSt3__16__treeINS_12__value_typeINS_12basic_stringIcNS_11char_traitsIcEENS_9allocatorIcEEEEdEENS_19__map_value_compareIS7_S8_NS_4lessIS7_EELb1EEENS5_IS8_EEE12__begin_nodeB8ue170006Ev, symObjAddr: 0x7EDC, symBinAddr: 0x100009544, symSize: 0x14 }
  - { offsetInCU: 0x3A163, offset: 0x3A163, size: 0x8, addend: 0x0, symName: __ZNKSt3__117__compressed_pairINS_15__tree_end_nodeIPNS_16__tree_node_baseIPvEEEENS_9allocatorINS_11__tree_nodeINS_12__value_typeINS_12basic_stringIcNS_11char_traitsIcEENS7_IcEEEEdEES3_EEEEE6secondB8ue170006Ev, symObjAddr: 0x7EF0, symBinAddr: 0x100009558, symSize: 0x24 }
  - { offsetInCU: 0x3A189, offset: 0x3A189, size: 0x8, addend: 0x0, symName: __ZNKSt3__122__compressed_pair_elemINS_9allocatorINS_11__tree_nodeINS_12__value_typeINS_12basic_stringIcNS_11char_traitsIcEENS1_IcEEEEdEEPvEEEELi1ELb1EE5__getB8ue170006Ev, symObjAddr: 0x7F14, symBinAddr: 0x10000957C, symSize: 0x14 }
  - { offsetInCU: 0x3A1AF, offset: 0x3A1AF, size: 0x8, addend: 0x0, symName: __ZNSt3__117__compressed_pairINS_15__tree_end_nodeIPNS_16__tree_node_baseIPvEEEENS_9allocatorINS_11__tree_nodeINS_12__value_typeINS_12basic_stringIcNS_11char_traitsIcEENS7_IcEEEEdEES3_EEEEEC2B8ue170006INS_18__default_init_tagESH_EEOT_OT0_, symObjAddr: 0x7F28, symBinAddr: 0x100009590, symSize: 0x40 }
  - { offsetInCU: 0x3A207, offset: 0x3A207, size: 0x8, addend: 0x0, symName: __ZNSt3__122__compressed_pair_elemINS_9allocatorINS_11__tree_nodeINS_12__value_typeINS_12basic_stringIcNS_11char_traitsIcEENS1_IcEEEEdEEPvEEEELi1ELb1EEC2B8ue170006ISC_vEEOT_, symObjAddr: 0x7F68, symBinAddr: 0x1000095D0, symSize: 0x18 }
  - { offsetInCU: 0x3A249, offset: 0x3A249, size: 0x8, addend: 0x0, symName: __ZNKSt3__117__compressed_pairImNS_19__map_value_compareINS_12basic_stringIcNS_11char_traitsIcEENS_9allocatorIcEEEENS_12__value_typeIS7_dEENS_4lessIS7_EELb1EEEE6secondB8ue170006Ev, symObjAddr: 0x7F80, symBinAddr: 0x1000095E8, symSize: 0x24 }
  - { offsetInCU: 0x3A26F, offset: 0x3A26F, size: 0x8, addend: 0x0, symName: __ZNKSt3__122__compressed_pair_elemINS_19__map_value_compareINS_12basic_stringIcNS_11char_traitsIcEENS_9allocatorIcEEEENS_12__value_typeIS7_dEENS_4lessIS7_EELb1EEELi1ELb1EE5__getB8ue170006Ev, symObjAddr: 0x7FA4, symBinAddr: 0x10000960C, symSize: 0x14 }
  - { offsetInCU: 0x3A295, offset: 0x3A295, size: 0x8, addend: 0x0, symName: __ZNSt3__117__compressed_pairImNS_19__map_value_compareINS_12basic_stringIcNS_11char_traitsIcEENS_9allocatorIcEEEENS_12__value_typeIS7_dEENS_4lessIS7_EELb1EEEEC2B8ue170006IiRKSC_EEOT_OT0_, symObjAddr: 0x7FB8, symBinAddr: 0x100009620, symSize: 0x44 }
  - { offsetInCU: 0x3A2ED, offset: 0x3A2ED, size: 0x8, addend: 0x0, symName: __ZNSt3__122__compressed_pair_elemINS_19__map_value_compareINS_12basic_stringIcNS_11char_traitsIcEENS_9allocatorIcEEEENS_12__value_typeIS7_dEENS_4lessIS7_EELb1EEELi1ELb1EEC2B8ue170006IRKSC_vEEOT_, symObjAddr: 0x7FFC, symBinAddr: 0x100009664, symSize: 0x18 }
  - { offsetInCU: 0x3A32F, offset: 0x3A32F, size: 0x8, addend: 0x0, symName: __ZNSt3__117__compressed_pairINS_15__tree_end_nodeIPNS_16__tree_node_baseIPvEEEENS_9allocatorINS_11__tree_nodeINS_12__value_typeINS_12basic_stringIcNS_11char_traitsIcEENS7_IcEEEEdEES3_EEEEE5firstB8ue170006Ev, symObjAddr: 0x8014, symBinAddr: 0x10000967C, symSize: 0x24 }
  - { offsetInCU: 0x3A355, offset: 0x3A355, size: 0x8, addend: 0x0, symName: __ZNKSt3__13mapINS_12basic_stringIcNS_11char_traitsIcEENS_9allocatorIcEEEEdNS_4lessIS6_EENS4_INS_4pairIKS6_dEEEEE4cendB8ue170006Ev, symObjAddr: 0x8038, symBinAddr: 0x1000096A0, symSize: 0x2C }
  - { offsetInCU: 0x3A37B, offset: 0x3A37B, size: 0x8, addend: 0x0, symName: __ZNSt3__13mapINS_12basic_stringIcNS_11char_traitsIcEENS_9allocatorIcEEEEdNS_4lessIS6_EENS4_INS_4pairIKS6_dEEEEE6insertB8ue170006ENS_20__map_const_iteratorINS_21__tree_const_iteratorINS_12__value_typeIS6_dEEPNS_11__tree_nodeISH_PvEElEEEERKSB_, symObjAddr: 0x8094, symBinAddr: 0x1000096FC, symSize: 0x50 }
  - { offsetInCU: 0x3A3BF, offset: 0x3A3BF, size: 0x8, addend: 0x0, symName: __ZNSt3__120__map_const_iteratorINS_21__tree_const_iteratorINS_12__value_typeINS_12basic_stringIcNS_11char_traitsIcEENS_9allocatorIcEEEEdEEPNS_11__tree_nodeIS9_PvEElEEEC1B8ue170006ESE_, symObjAddr: 0x80E4, symBinAddr: 0x10000974C, symSize: 0x34 }
  - { offsetInCU: 0x3A3F8, offset: 0x3A3F8, size: 0x8, addend: 0x0, symName: __ZNKSt3__120__map_const_iteratorINS_21__tree_const_iteratorINS_12__value_typeINS_12basic_stringIcNS_11char_traitsIcEENS_9allocatorIcEEEEdEEPNS_11__tree_nodeIS9_PvEElEEEdeB8ue170006Ev, symObjAddr: 0x8118, symBinAddr: 0x100009780, symSize: 0x28 }
  - { offsetInCU: 0x3A41E, offset: 0x3A41E, size: 0x8, addend: 0x0, symName: __ZNSt3__120__map_const_iteratorINS_21__tree_const_iteratorINS_12__value_typeINS_12basic_stringIcNS_11char_traitsIcEENS_9allocatorIcEEEEdEEPNS_11__tree_nodeIS9_PvEElEEEppB8ue170006Ev, symObjAddr: 0x8140, symBinAddr: 0x1000097A8, symSize: 0x2C }
  - { offsetInCU: 0x3A444, offset: 0x3A444, size: 0x8, addend: 0x0, symName: __ZNSt3__16__treeINS_12__value_typeINS_12basic_stringIcNS_11char_traitsIcEENS_9allocatorIcEEEEdEENS_19__map_value_compareIS7_S8_NS_4lessIS7_EELb1EEENS5_IS8_EEE15__insert_uniqueB8ue170006ENS_21__tree_const_iteratorIS8_PNS_11__tree_nodeIS8_PvEElEERKNS_4pairIKS7_dEE, symObjAddr: 0x81D0, symBinAddr: 0x100009838, symSize: 0x64 }
  - { offsetInCU: 0x3A488, offset: 0x3A488, size: 0x8, addend: 0x0, symName: __ZNSt3__114__map_iteratorINS_15__tree_iteratorINS_12__value_typeINS_12basic_stringIcNS_11char_traitsIcEENS_9allocatorIcEEEEdEEPNS_11__tree_nodeIS9_PvEElEEEC1B8ue170006ESE_, symObjAddr: 0x8234, symBinAddr: 0x10000989C, symSize: 0x34 }
  - { offsetInCU: 0x3A4C1, offset: 0x3A4C1, size: 0x8, addend: 0x0, symName: __ZNSt3__16__treeINS_12__value_typeINS_12basic_stringIcNS_11char_traitsIcEENS_9allocatorIcEEEEdEENS_19__map_value_compareIS7_S8_NS_4lessIS7_EELb1EEENS5_IS8_EEE30__emplace_hint_unique_key_argsIS7_JRKNS_4pairIKS7_dEEEEENSG_INS_15__tree_iteratorIS8_PNS_11__tree_nodeIS8_PvEElEEbEENS_21__tree_const_iteratorIS8_SP_lEERKT_DpOT0_, symObjAddr: 0x8268, symBinAddr: 0x1000098D0, symSize: 0x104 }
  - { offsetInCU: 0x3A58D, offset: 0x3A58D, size: 0x8, addend: 0x0, symName: __ZNSt3__122__tree_key_value_typesINS_12__value_typeINS_12basic_stringIcNS_11char_traitsIcEENS_9allocatorIcEEEEdEEE9__get_keyB8ue170006IKNS_4pairIKS7_dEEEENS_9enable_ifIXsr17__is_same_uncvrefIT_SD_EE5valueERSC_E4typeERSG_, symObjAddr: 0x836C, symBinAddr: 0x1000099D4, symSize: 0x14 }
  - { offsetInCU: 0x3A5BA, offset: 0x3A5BA, size: 0x8, addend: 0x0, symName: __ZNSt3__16__treeINS_12__value_typeINS_12basic_stringIcNS_11char_traitsIcEENS_9allocatorIcEEEEdEENS_19__map_value_compareIS7_S8_NS_4lessIS7_EELb1EEENS5_IS8_EEE12__find_equalIS7_EERPNS_16__tree_node_baseIPvEENS_21__tree_const_iteratorIS8_PNS_11__tree_nodeIS8_SH_EElEERPNS_15__tree_end_nodeISJ_EESK_RKT_, symObjAddr: 0x8380, symBinAddr: 0x1000099E8, symSize: 0x304 }
  - { offsetInCU: 0x3A663, offset: 0x3A663, size: 0x8, addend: 0x0, symName: __ZNSt3__16__treeINS_12__value_typeINS_12basic_stringIcNS_11char_traitsIcEENS_9allocatorIcEEEEdEENS_19__map_value_compareIS7_S8_NS_4lessIS7_EELb1EEENS5_IS8_EEE16__construct_nodeIJRKNS_4pairIKS7_dEEEEENS_10unique_ptrINS_11__tree_nodeIS8_PvEENS_22__tree_node_destructorINS5_ISO_EEEEEEDpOT_, symObjAddr: 0x8684, symBinAddr: 0x100009CEC, symSize: 0x110 }
  - { offsetInCU: 0x3A6C4, offset: 0x3A6C4, size: 0x8, addend: 0x0, symName: __ZNSt3__16__treeINS_12__value_typeINS_12basic_stringIcNS_11char_traitsIcEENS_9allocatorIcEEEEdEENS_19__map_value_compareIS7_S8_NS_4lessIS7_EELb1EEENS5_IS8_EEE16__insert_node_atEPNS_15__tree_end_nodeIPNS_16__tree_node_baseIPvEEEERSJ_SJ_, symObjAddr: 0x8794, symBinAddr: 0x100009DFC, symSize: 0xCC }
  - { offsetInCU: 0x3A719, offset: 0x3A719, size: 0x8, addend: 0x0, symName: __ZNKSt3__110unique_ptrINS_11__tree_nodeINS_12__value_typeINS_12basic_stringIcNS_11char_traitsIcEENS_9allocatorIcEEEEdEEPvEENS_22__tree_node_destructorINS6_ISB_EEEEE3getB8ue170006Ev, symObjAddr: 0x8860, symBinAddr: 0x100009EC8, symSize: 0x28 }
  - { offsetInCU: 0x3A73F, offset: 0x3A73F, size: 0x8, addend: 0x0, symName: __ZNSt3__110unique_ptrINS_11__tree_nodeINS_12__value_typeINS_12basic_stringIcNS_11char_traitsIcEENS_9allocatorIcEEEEdEEPvEENS_22__tree_node_destructorINS6_ISB_EEEEE7releaseB8ue170006Ev, symObjAddr: 0x8888, symBinAddr: 0x100009EF0, symSize: 0x44 }
  - { offsetInCU: 0x3A774, offset: 0x3A774, size: 0x8, addend: 0x0, symName: __ZNSt3__110unique_ptrINS_11__tree_nodeINS_12__value_typeINS_12basic_stringIcNS_11char_traitsIcEENS_9allocatorIcEEEEdEEPvEENS_22__tree_node_destructorINS6_ISB_EEEEED1B8ue170006Ev, symObjAddr: 0x88CC, symBinAddr: 0x100009F34, symSize: 0x2C }
  - { offsetInCU: 0x3A79E, offset: 0x3A79E, size: 0x8, addend: 0x0, symName: __ZNSt3__115__tree_iteratorINS_12__value_typeINS_12basic_stringIcNS_11char_traitsIcEENS_9allocatorIcEEEEdEEPNS_11__tree_nodeIS8_PvEElEC1B8ue170006ESC_, symObjAddr: 0x88F8, symBinAddr: 0x100009F60, symSize: 0x34 }
  - { offsetInCU: 0x3A7DD, offset: 0x3A7DD, size: 0x8, addend: 0x0, symName: __ZNSt3__14pairINS_15__tree_iteratorINS_12__value_typeINS_12basic_stringIcNS_11char_traitsIcEENS_9allocatorIcEEEEdEEPNS_11__tree_nodeIS9_PvEElEEbEC1B8ue170006ISE_RbLSB_0EEEOT_OT0_, symObjAddr: 0x892C, symBinAddr: 0x100009F94, symSize: 0x3C }
  - { offsetInCU: 0x3A83B, offset: 0x3A83B, size: 0x8, addend: 0x0, symName: __ZNSt3__16__treeINS_12__value_typeINS_12basic_stringIcNS_11char_traitsIcEENS_9allocatorIcEEEEdEENS_19__map_value_compareIS7_S8_NS_4lessIS7_EELb1EEENS5_IS8_EEE3endB8ue170006Ev, symObjAddr: 0x8968, symBinAddr: 0x100009FD0, symSize: 0x34 }
  - { offsetInCU: 0x3A861, offset: 0x3A861, size: 0x8, addend: 0x0, symName: __ZNSt3__121__tree_const_iteratorINS_12__value_typeINS_12basic_stringIcNS_11char_traitsIcEENS_9allocatorIcEEEEdEEPNS_11__tree_nodeIS8_PvEElEC1B8ue170006ENS_15__tree_iteratorIS8_SC_lEE, symObjAddr: 0x899C, symBinAddr: 0x10000A004, symSize: 0x34 }
  - { offsetInCU: 0x3A89A, offset: 0x3A89A, size: 0x8, addend: 0x0, symName: __ZNSt3__16__treeINS_12__value_typeINS_12basic_stringIcNS_11char_traitsIcEENS_9allocatorIcEEEEdEENS_19__map_value_compareIS7_S8_NS_4lessIS7_EELb1EEENS5_IS8_EEE10value_compB8ue170006Ev, symObjAddr: 0x89D0, symBinAddr: 0x10000A038, symSize: 0x28 }
  - { offsetInCU: 0x3A8C0, offset: 0x3A8C0, size: 0x8, addend: 0x0, symName: __ZNKSt3__119__map_value_compareINS_12basic_stringIcNS_11char_traitsIcEENS_9allocatorIcEEEENS_12__value_typeIS6_dEENS_4lessIS6_EELb1EEclB8ue170006ERKS6_RKS8_, symObjAddr: 0x89F8, symBinAddr: 0x10000A060, symSize: 0x50 }
  - { offsetInCU: 0x3A904, offset: 0x3A904, size: 0x8, addend: 0x0, symName: __ZNKSt3__121__tree_const_iteratorINS_12__value_typeINS_12basic_stringIcNS_11char_traitsIcEENS_9allocatorIcEEEEdEEPNS_11__tree_nodeIS8_PvEElEdeB8ue170006Ev, symObjAddr: 0x8A48, symBinAddr: 0x10000A0B0, symSize: 0x28 }
  - { offsetInCU: 0x3A92A, offset: 0x3A92A, size: 0x8, addend: 0x0, symName: __ZNSt3__16__treeINS_12__value_typeINS_12basic_stringIcNS_11char_traitsIcEENS_9allocatorIcEEEEdEENS_19__map_value_compareIS7_S8_NS_4lessIS7_EELb1EEENS5_IS8_EEE5beginB8ue170006Ev, symObjAddr: 0x8A70, symBinAddr: 0x10000A0D8, symSize: 0x34 }
  - { offsetInCU: 0x3A950, offset: 0x3A950, size: 0x8, addend: 0x0, symName: __ZNKSt3__119__map_value_compareINS_12basic_stringIcNS_11char_traitsIcEENS_9allocatorIcEEEENS_12__value_typeIS6_dEENS_4lessIS6_EELb1EEclB8ue170006ERKS8_RKS6_, symObjAddr: 0x8AA4, symBinAddr: 0x10000A10C, symSize: 0x48 }
  - { offsetInCU: 0x3A994, offset: 0x3A994, size: 0x8, addend: 0x0, symName: __ZNSt3__121__tree_const_iteratorINS_12__value_typeINS_12basic_stringIcNS_11char_traitsIcEENS_9allocatorIcEEEEdEEPNS_11__tree_nodeIS8_PvEElEmmB8ue170006Ev, symObjAddr: 0x8AEC, symBinAddr: 0x10000A154, symSize: 0x38 }
  - { offsetInCU: 0x3A9BA, offset: 0x3A9BA, size: 0x8, addend: 0x0, symName: __ZNSt3__16__treeINS_12__value_typeINS_12basic_stringIcNS_11char_traitsIcEENS_9allocatorIcEEEEdEENS_19__map_value_compareIS7_S8_NS_4lessIS7_EELb1EEENS5_IS8_EEE12__find_equalIS7_EERPNS_16__tree_node_baseIPvEERPNS_15__tree_end_nodeISJ_EERKT_, symObjAddr: 0x8B24, symBinAddr: 0x10000A18C, symSize: 0x184 }
  - { offsetInCU: 0x3AA27, offset: 0x3AA27, size: 0x8, addend: 0x0, symName: __ZNKSt3__121__tree_const_iteratorINS_12__value_typeINS_12basic_stringIcNS_11char_traitsIcEENS_9allocatorIcEEEEdEEPNS_11__tree_nodeIS8_PvEElE8__get_npB8ue170006Ev, symObjAddr: 0x8CE4, symBinAddr: 0x10000A34C, symSize: 0x18 }
  - { offsetInCU: 0x3AA4D, offset: 0x3AA4D, size: 0x8, addend: 0x0, symName: __ZNSt3__115__tree_iteratorINS_12__value_typeINS_12basic_stringIcNS_11char_traitsIcEENS_9allocatorIcEEEEdEEPNS_11__tree_nodeIS8_PvEElEC1B8ue170006EPNS_15__tree_end_nodeIPNS_16__tree_node_baseISA_EEEE, symObjAddr: 0x8CFC, symBinAddr: 0x10000A364, symSize: 0x34 }
  - { offsetInCU: 0x3AA86, offset: 0x3AA86, size: 0x8, addend: 0x0, symName: __ZNSt3__115__tree_iteratorINS_12__value_typeINS_12basic_stringIcNS_11char_traitsIcEENS_9allocatorIcEEEEdEEPNS_11__tree_nodeIS8_PvEElEC2B8ue170006EPNS_15__tree_end_nodeIPNS_16__tree_node_baseISA_EEEE, symObjAddr: 0x8D30, symBinAddr: 0x10000A398, symSize: 0x20 }
  - { offsetInCU: 0x3AABF, offset: 0x3AABF, size: 0x8, addend: 0x0, symName: __ZNSt3__121__tree_const_iteratorINS_12__value_typeINS_12basic_stringIcNS_11char_traitsIcEENS_9allocatorIcEEEEdEEPNS_11__tree_nodeIS8_PvEElEC2B8ue170006ENS_15__tree_iteratorIS8_SC_lEE, symObjAddr: 0x8D50, symBinAddr: 0x10000A3B8, symSize: 0x20 }
  - { offsetInCU: 0x3AAF8, offset: 0x3AAF8, size: 0x8, addend: 0x0, symName: __ZNSt3__117__compressed_pairImNS_19__map_value_compareINS_12basic_stringIcNS_11char_traitsIcEENS_9allocatorIcEEEENS_12__value_typeIS7_dEENS_4lessIS7_EELb1EEEE6secondB8ue170006Ev, symObjAddr: 0x8D70, symBinAddr: 0x10000A3D8, symSize: 0x24 }
  - { offsetInCU: 0x3AB1E, offset: 0x3AB1E, size: 0x8, addend: 0x0, symName: __ZNSt3__122__compressed_pair_elemINS_19__map_value_compareINS_12basic_stringIcNS_11char_traitsIcEENS_9allocatorIcEEEENS_12__value_typeIS7_dEENS_4lessIS7_EELb1EEELi1ELb1EE5__getB8ue170006Ev, symObjAddr: 0x8D94, symBinAddr: 0x10000A3FC, symSize: 0x14 }
  - { offsetInCU: 0x3AB44, offset: 0x3AB44, size: 0x8, addend: 0x0, symName: __ZNKSt3__112__value_typeINS_12basic_stringIcNS_11char_traitsIcEENS_9allocatorIcEEEEdE11__get_valueB8ue170006Ev, symObjAddr: 0x8DA8, symBinAddr: 0x10000A410, symSize: 0x14 }
  - { offsetInCU: 0x3AB6A, offset: 0x3AB6A, size: 0x8, addend: 0x0, symName: __ZNKSt3__16__treeINS_12__value_typeINS_12basic_stringIcNS_11char_traitsIcEENS_9allocatorIcEEEEdEENS_19__map_value_compareIS7_S8_NS_4lessIS7_EELb1EEENS5_IS8_EEE6__rootB8ue170006Ev, symObjAddr: 0x8DBC, symBinAddr: 0x10000A424, symSize: 0x28 }
  - { offsetInCU: 0x3AB90, offset: 0x3AB90, size: 0x8, addend: 0x0, symName: __ZNKSt3__16__treeINS_12__value_typeINS_12basic_stringIcNS_11char_traitsIcEENS_9allocatorIcEEEEdEENS_19__map_value_compareIS7_S8_NS_4lessIS7_EELb1EEENS5_IS8_EEE10__root_ptrB8ue170006Ev, symObjAddr: 0x8DE4, symBinAddr: 0x10000A44C, symSize: 0x24 }
  - { offsetInCU: 0x3ABB6, offset: 0x3ABB6, size: 0x8, addend: 0x0, symName: __ZNKSt3__16__treeINS_12__value_typeINS_12basic_stringIcNS_11char_traitsIcEENS_9allocatorIcEEEEdEENS_19__map_value_compareIS7_S8_NS_4lessIS7_EELb1EEENS5_IS8_EEE10__end_nodeB8ue170006Ev, symObjAddr: 0x8E08, symBinAddr: 0x10000A470, symSize: 0x2C }
  - { offsetInCU: 0x3ABDC, offset: 0x3ABDC, size: 0x8, addend: 0x0, symName: __ZNKSt3__117__compressed_pairINS_15__tree_end_nodeIPNS_16__tree_node_baseIPvEEEENS_9allocatorINS_11__tree_nodeINS_12__value_typeINS_12basic_stringIcNS_11char_traitsIcEENS7_IcEEEEdEES3_EEEEE5firstB8ue170006Ev, symObjAddr: 0x8E34, symBinAddr: 0x10000A49C, symSize: 0x24 }
  - { offsetInCU: 0x3AC02, offset: 0x3AC02, size: 0x8, addend: 0x0, symName: __ZNSt3__121__tree_const_iteratorINS_12__value_typeINS_12basic_stringIcNS_11char_traitsIcEENS_9allocatorIcEEEEdEEPNS_11__tree_nodeIS8_PvEElEppB8ue170006Ev, symObjAddr: 0x8F34, symBinAddr: 0x10000A59C, symSize: 0x38 }
  - { offsetInCU: 0x3AC28, offset: 0x3AC28, size: 0x8, addend: 0x0, symName: __ZNSt3__16__treeINS_12__value_typeINS_12basic_stringIcNS_11char_traitsIcEENS_9allocatorIcEEEEdEENS_19__map_value_compareIS7_S8_NS_4lessIS7_EELb1EEENS5_IS8_EEE12__node_allocB8ue170006Ev, symObjAddr: 0x8F6C, symBinAddr: 0x10000A5D4, symSize: 0x28 }
  - { offsetInCU: 0x3AC4E, offset: 0x3AC4E, size: 0x8, addend: 0x0, symName: __ZNSt3__116allocator_traitsINS_9allocatorINS_11__tree_nodeINS_12__value_typeINS_12basic_stringIcNS_11char_traitsIcEENS1_IcEEEEdEEPvEEEEE8allocateB8ue170006ERSC_m, symObjAddr: 0x8F94, symBinAddr: 0x10000A5FC, symSize: 0x2C }
  - { offsetInCU: 0x3AC81, offset: 0x3AC81, size: 0x8, addend: 0x0, symName: __ZNSt3__122__tree_node_destructorINS_9allocatorINS_11__tree_nodeINS_12__value_typeINS_12basic_stringIcNS_11char_traitsIcEENS1_IcEEEEdEEPvEEEEEC1B8ue170006ERSC_b, symObjAddr: 0x8FC0, symBinAddr: 0x10000A628, symSize: 0x48 }
  - { offsetInCU: 0x3ACCF, offset: 0x3ACCF, size: 0x8, addend: 0x0, symName: __ZNSt3__110unique_ptrINS_11__tree_nodeINS_12__value_typeINS_12basic_stringIcNS_11char_traitsIcEENS_9allocatorIcEEEEdEEPvEENS_22__tree_node_destructorINS6_ISB_EEEEEC1B8ue170006ILb1EvEEPSB_NS_16__dependent_typeINS_27__unique_ptr_deleter_sfinaeISE_EEXT_EE20__good_rval_ref_typeE, symObjAddr: 0x9008, symBinAddr: 0x10000A670, symSize: 0x3C }
  - { offsetInCU: 0x3AD20, offset: 0x3AD20, size: 0x8, addend: 0x0, symName: __ZNSt3__116allocator_traitsINS_9allocatorINS_11__tree_nodeINS_12__value_typeINS_12basic_stringIcNS_11char_traitsIcEENS1_IcEEEEdEEPvEEEEE9constructB8ue170006INS_4pairIKS8_dEEJRKSH_EvEEvRSC_PT_DpOT0_, symObjAddr: 0x9044, symBinAddr: 0x10000A6AC, symSize: 0x34 }
  - { offsetInCU: 0x3AD77, offset: 0x3AD77, size: 0x8, addend: 0x0, symName: __ZNSt3__122__tree_key_value_typesINS_12__value_typeINS_12basic_stringIcNS_11char_traitsIcEENS_9allocatorIcEEEEdEEE9__get_ptrB8ue170006ERS8_, symObjAddr: 0x9078, symBinAddr: 0x10000A6E0, symSize: 0x24 }
  - { offsetInCU: 0x3AD9B, offset: 0x3AD9B, size: 0x8, addend: 0x0, symName: __ZNKSt3__110unique_ptrINS_11__tree_nodeINS_12__value_typeINS_12basic_stringIcNS_11char_traitsIcEENS_9allocatorIcEEEEdEEPvEENS_22__tree_node_destructorINS6_ISB_EEEEEptB8ue170006Ev, symObjAddr: 0x909C, symBinAddr: 0x10000A704, symSize: 0x28 }
  - { offsetInCU: 0x3ADC1, offset: 0x3ADC1, size: 0x8, addend: 0x0, symName: __ZNSt3__110unique_ptrINS_11__tree_nodeINS_12__value_typeINS_12basic_stringIcNS_11char_traitsIcEENS_9allocatorIcEEEEdEEPvEENS_22__tree_node_destructorINS6_ISB_EEEEE11get_deleterB8ue170006Ev, symObjAddr: 0x90C4, symBinAddr: 0x10000A72C, symSize: 0x24 }
  - { offsetInCU: 0x3ADE7, offset: 0x3ADE7, size: 0x8, addend: 0x0, symName: __ZNSt3__117__compressed_pairINS_15__tree_end_nodeIPNS_16__tree_node_baseIPvEEEENS_9allocatorINS_11__tree_nodeINS_12__value_typeINS_12basic_stringIcNS_11char_traitsIcEENS7_IcEEEEdEES3_EEEEE6secondB8ue170006Ev, symObjAddr: 0x90E8, symBinAddr: 0x10000A750, symSize: 0x24 }
  - { offsetInCU: 0x3AE0D, offset: 0x3AE0D, size: 0x8, addend: 0x0, symName: __ZNSt3__122__compressed_pair_elemINS_9allocatorINS_11__tree_nodeINS_12__value_typeINS_12basic_stringIcNS_11char_traitsIcEENS1_IcEEEEdEEPvEEEELi1ELb1EE5__getB8ue170006Ev, symObjAddr: 0x910C, symBinAddr: 0x10000A774, symSize: 0x14 }
  - { offsetInCU: 0x3AE33, offset: 0x3AE33, size: 0x8, addend: 0x0, symName: __ZNSt3__19allocatorINS_11__tree_nodeINS_12__value_typeINS_12basic_stringIcNS_11char_traitsIcEENS0_IcEEEEdEEPvEEE8allocateB8ue170006Em, symObjAddr: 0x9120, symBinAddr: 0x10000A788, symSize: 0x58 }
  - { offsetInCU: 0x3AE67, offset: 0x3AE67, size: 0x8, addend: 0x0, symName: __ZNSt3__116allocator_traitsINS_9allocatorINS_11__tree_nodeINS_12__value_typeINS_12basic_stringIcNS_11char_traitsIcEENS1_IcEEEEdEEPvEEEEE8max_sizeB8ue170006ISC_vEEmRKSC_, symObjAddr: 0x9178, symBinAddr: 0x10000A7E0, symSize: 0x24 }
  - { offsetInCU: 0x3AE95, offset: 0x3AE95, size: 0x8, addend: 0x0, symName: __ZNKSt3__19allocatorINS_11__tree_nodeINS_12__value_typeINS_12basic_stringIcNS_11char_traitsIcEENS0_IcEEEEdEEPvEEE8max_sizeB8ue170006Ev, symObjAddr: 0x919C, symBinAddr: 0x10000A804, symSize: 0x14 }
  - { offsetInCU: 0x3AEBB, offset: 0x3AEBB, size: 0x8, addend: 0x0, symName: __ZNSt3__122__tree_node_destructorINS_9allocatorINS_11__tree_nodeINS_12__value_typeINS_12basic_stringIcNS_11char_traitsIcEENS1_IcEEEEdEEPvEEEEEC2B8ue170006ERSC_b, symObjAddr: 0x91B0, symBinAddr: 0x10000A818, symSize: 0x38 }
  - { offsetInCU: 0x3AF03, offset: 0x3AF03, size: 0x8, addend: 0x0, symName: __ZNSt3__110unique_ptrINS_11__tree_nodeINS_12__value_typeINS_12basic_stringIcNS_11char_traitsIcEENS_9allocatorIcEEEEdEEPvEENS_22__tree_node_destructorINS6_ISB_EEEEEC2B8ue170006ILb1EvEEPSB_NS_16__dependent_typeINS_27__unique_ptr_deleter_sfinaeISE_EEXT_EE20__good_rval_ref_typeE, symObjAddr: 0x91E8, symBinAddr: 0x10000A850, symSize: 0x48 }
  - { offsetInCU: 0x3AF54, offset: 0x3AF54, size: 0x8, addend: 0x0, symName: __ZNSt3__117__compressed_pairIPNS_11__tree_nodeINS_12__value_typeINS_12basic_stringIcNS_11char_traitsIcEENS_9allocatorIcEEEEdEEPvEENS_22__tree_node_destructorINS6_ISB_EEEEEC1B8ue170006IRSC_SF_EEOT_OT0_, symObjAddr: 0x9230, symBinAddr: 0x10000A898, symSize: 0x3C }
  - { offsetInCU: 0x3AFAC, offset: 0x3AFAC, size: 0x8, addend: 0x0, symName: __ZNSt3__117__compressed_pairIPNS_11__tree_nodeINS_12__value_typeINS_12basic_stringIcNS_11char_traitsIcEENS_9allocatorIcEEEEdEEPvEENS_22__tree_node_destructorINS6_ISB_EEEEEC2B8ue170006IRSC_SF_EEOT_OT0_, symObjAddr: 0x926C, symBinAddr: 0x10000A8D4, symSize: 0x48 }
  - { offsetInCU: 0x3B004, offset: 0x3B004, size: 0x8, addend: 0x0, symName: __ZNSt3__122__compressed_pair_elemIPNS_11__tree_nodeINS_12__value_typeINS_12basic_stringIcNS_11char_traitsIcEENS_9allocatorIcEEEEdEEPvEELi0ELb0EEC2B8ue170006IRSC_vEEOT_, symObjAddr: 0x92B4, symBinAddr: 0x10000A91C, symSize: 0x24 }
  - { offsetInCU: 0x3B046, offset: 0x3B046, size: 0x8, addend: 0x0, symName: __ZNSt3__122__compressed_pair_elemINS_22__tree_node_destructorINS_9allocatorINS_11__tree_nodeINS_12__value_typeINS_12basic_stringIcNS_11char_traitsIcEENS2_IcEEEEdEEPvEEEEEELi1ELb0EEC2B8ue170006ISE_vEEOT_, symObjAddr: 0x92D8, symBinAddr: 0x10000A940, symSize: 0x24 }
  - { offsetInCU: 0x3B088, offset: 0x3B088, size: 0x8, addend: 0x0, symName: __ZNSt3__19allocatorINS_11__tree_nodeINS_12__value_typeINS_12basic_stringIcNS_11char_traitsIcEENS0_IcEEEEdEEPvEEE9constructB8ue170006INS_4pairIKS7_dEEJRKSF_EEEvPT_DpOT0_, symObjAddr: 0x92FC, symBinAddr: 0x10000A964, symSize: 0x30 }
  - { offsetInCU: 0x3B0DE, offset: 0x3B0DE, size: 0x8, addend: 0x0, symName: __ZNSt3__14pairIKNS_12basic_stringIcNS_11char_traitsIcEENS_9allocatorIcEEEEdEC1B8ue170006ERKS8_, symObjAddr: 0x932C, symBinAddr: 0x10000A994, symSize: 0x34 }
  - { offsetInCU: 0x3B112, offset: 0x3B112, size: 0x8, addend: 0x0, symName: __ZNSt3__14pairIKNS_12basic_stringIcNS_11char_traitsIcEENS_9allocatorIcEEEEdEC2B8ue170006ERKS8_, symObjAddr: 0x9360, symBinAddr: 0x10000A9C8, symSize: 0x40 }
  - { offsetInCU: 0x3B146, offset: 0x3B146, size: 0x8, addend: 0x0, symName: __ZNSt3__112__value_typeINS_12basic_stringIcNS_11char_traitsIcEENS_9allocatorIcEEEEdE11__get_valueB8ue170006Ev, symObjAddr: 0x93A0, symBinAddr: 0x10000AA08, symSize: 0x14 }
  - { offsetInCU: 0x3B16C, offset: 0x3B16C, size: 0x8, addend: 0x0, symName: __ZNKSt3__117__compressed_pairIPNS_11__tree_nodeINS_12__value_typeINS_12basic_stringIcNS_11char_traitsIcEENS_9allocatorIcEEEEdEEPvEENS_22__tree_node_destructorINS6_ISB_EEEEE5firstB8ue170006Ev, symObjAddr: 0x93B4, symBinAddr: 0x10000AA1C, symSize: 0x24 }
  - { offsetInCU: 0x3B192, offset: 0x3B192, size: 0x8, addend: 0x0, symName: __ZNKSt3__122__compressed_pair_elemIPNS_11__tree_nodeINS_12__value_typeINS_12basic_stringIcNS_11char_traitsIcEENS_9allocatorIcEEEEdEEPvEELi0ELb0EE5__getB8ue170006Ev, symObjAddr: 0x93D8, symBinAddr: 0x10000AA40, symSize: 0x14 }
  - { offsetInCU: 0x3B1B8, offset: 0x3B1B8, size: 0x8, addend: 0x0, symName: __ZNSt3__117__compressed_pairIPNS_11__tree_nodeINS_12__value_typeINS_12basic_stringIcNS_11char_traitsIcEENS_9allocatorIcEEEEdEEPvEENS_22__tree_node_destructorINS6_ISB_EEEEE6secondB8ue170006Ev, symObjAddr: 0x93EC, symBinAddr: 0x10000AA54, symSize: 0x28 }
  - { offsetInCU: 0x3B1DE, offset: 0x3B1DE, size: 0x8, addend: 0x0, symName: __ZNSt3__122__compressed_pair_elemINS_22__tree_node_destructorINS_9allocatorINS_11__tree_nodeINS_12__value_typeINS_12basic_stringIcNS_11char_traitsIcEENS2_IcEEEEdEEPvEEEEEELi1ELb0EE5__getB8ue170006Ev, symObjAddr: 0x9414, symBinAddr: 0x10000AA7C, symSize: 0x14 }
  - { offsetInCU: 0x3B204, offset: 0x3B204, size: 0x8, addend: 0x0, symName: __ZNSt3__16__treeINS_12__value_typeINS_12basic_stringIcNS_11char_traitsIcEENS_9allocatorIcEEEEdEENS_19__map_value_compareIS7_S8_NS_4lessIS7_EELb1EEENS5_IS8_EEE4sizeB8ue170006Ev, symObjAddr: 0x9428, symBinAddr: 0x10000AA90, symSize: 0x28 }
  - { offsetInCU: 0x3B22A, offset: 0x3B22A, size: 0x8, addend: 0x0, symName: __ZNSt3__117__compressed_pairImNS_19__map_value_compareINS_12basic_stringIcNS_11char_traitsIcEENS_9allocatorIcEEEENS_12__value_typeIS7_dEENS_4lessIS7_EELb1EEEE5firstB8ue170006Ev, symObjAddr: 0x9450, symBinAddr: 0x10000AAB8, symSize: 0x24 }
  - { offsetInCU: 0x3B250, offset: 0x3B250, size: 0x8, addend: 0x0, symName: __ZNSt3__117__compressed_pairIPNS_11__tree_nodeINS_12__value_typeINS_12basic_stringIcNS_11char_traitsIcEENS_9allocatorIcEEEEdEEPvEENS_22__tree_node_destructorINS6_ISB_EEEEE5firstB8ue170006Ev, symObjAddr: 0x9474, symBinAddr: 0x10000AADC, symSize: 0x24 }
  - { offsetInCU: 0x3B276, offset: 0x3B276, size: 0x8, addend: 0x0, symName: __ZNSt3__122__compressed_pair_elemIPNS_11__tree_nodeINS_12__value_typeINS_12basic_stringIcNS_11char_traitsIcEENS_9allocatorIcEEEEdEEPvEELi0ELb0EE5__getB8ue170006Ev, symObjAddr: 0x9498, symBinAddr: 0x10000AB00, symSize: 0x14 }
  - { offsetInCU: 0x3B29C, offset: 0x3B29C, size: 0x8, addend: 0x0, symName: __ZNSt3__110unique_ptrINS_11__tree_nodeINS_12__value_typeINS_12basic_stringIcNS_11char_traitsIcEENS_9allocatorIcEEEEdEEPvEENS_22__tree_node_destructorINS6_ISB_EEEEED2B8ue170006Ev, symObjAddr: 0x94AC, symBinAddr: 0x10000AB14, symSize: 0x30 }
  - { offsetInCU: 0x3B2C6, offset: 0x3B2C6, size: 0x8, addend: 0x0, symName: __ZNSt3__110unique_ptrINS_11__tree_nodeINS_12__value_typeINS_12basic_stringIcNS_11char_traitsIcEENS_9allocatorIcEEEEdEEPvEENS_22__tree_node_destructorINS6_ISB_EEEEE5resetB8ue170006EPSB_, symObjAddr: 0x94DC, symBinAddr: 0x10000AB44, symSize: 0x78 }
  - { offsetInCU: 0x3B30A, offset: 0x3B30A, size: 0x8, addend: 0x0, symName: __ZNSt3__122__tree_node_destructorINS_9allocatorINS_11__tree_nodeINS_12__value_typeINS_12basic_stringIcNS_11char_traitsIcEENS1_IcEEEEdEEPvEEEEEclB8ue170006EPSB_, symObjAddr: 0x9554, symBinAddr: 0x10000ABBC, symSize: 0x98 }
  - { offsetInCU: 0x3B33F, offset: 0x3B33F, size: 0x8, addend: 0x0, symName: __ZNSt3__116allocator_traitsINS_9allocatorINS_11__tree_nodeINS_12__value_typeINS_12basic_stringIcNS_11char_traitsIcEENS1_IcEEEEdEEPvEEEEE7destroyB8ue170006INS_4pairIKS8_dEEvvEEvRSC_PT_, symObjAddr: 0x95EC, symBinAddr: 0x10000AC54, symSize: 0x28 }
  - { offsetInCU: 0x3B379, offset: 0x3B379, size: 0x8, addend: 0x0, symName: __ZNSt3__116allocator_traitsINS_9allocatorINS_11__tree_nodeINS_12__value_typeINS_12basic_stringIcNS_11char_traitsIcEENS1_IcEEEEdEEPvEEEEE10deallocateB8ue170006ERSC_PSB_m, symObjAddr: 0x9614, symBinAddr: 0x10000AC7C, symSize: 0x34 }
  - { offsetInCU: 0x3B3BB, offset: 0x3B3BB, size: 0x8, addend: 0x0, symName: __ZNSt3__14pairIKNS_12basic_stringIcNS_11char_traitsIcEENS_9allocatorIcEEEEdED1Ev, symObjAddr: 0x9648, symBinAddr: 0x10000ACB0, symSize: 0x2C }
  - { offsetInCU: 0x3B3E7, offset: 0x3B3E7, size: 0x8, addend: 0x0, symName: __ZNSt3__14pairIKNS_12basic_stringIcNS_11char_traitsIcEENS_9allocatorIcEEEEdED2Ev, symObjAddr: 0x9674, symBinAddr: 0x10000ACDC, symSize: 0x2C }
  - { offsetInCU: 0x3B413, offset: 0x3B413, size: 0x8, addend: 0x0, symName: __ZNSt3__19allocatorINS_11__tree_nodeINS_12__value_typeINS_12basic_stringIcNS_11char_traitsIcEENS0_IcEEEEdEEPvEEE10deallocateB8ue170006EPSA_m, symObjAddr: 0x96A0, symBinAddr: 0x10000AD08, symSize: 0x40 }
  - { offsetInCU: 0x3B455, offset: 0x3B455, size: 0x8, addend: 0x0, symName: __ZNSt3__115__tree_iteratorINS_12__value_typeINS_12basic_stringIcNS_11char_traitsIcEENS_9allocatorIcEEEEdEEPNS_11__tree_nodeIS8_PvEElEC2B8ue170006ESC_, symObjAddr: 0x96E0, symBinAddr: 0x10000AD48, symSize: 0x20 }
  - { offsetInCU: 0x3B48E, offset: 0x3B48E, size: 0x8, addend: 0x0, symName: __ZNSt3__14pairINS_15__tree_iteratorINS_12__value_typeINS_12basic_stringIcNS_11char_traitsIcEENS_9allocatorIcEEEEdEEPNS_11__tree_nodeIS9_PvEElEEbEC2B8ue170006ISE_RbLSB_0EEEOT_OT0_, symObjAddr: 0x9700, symBinAddr: 0x10000AD68, symSize: 0x38 }
  - { offsetInCU: 0x3B4EC, offset: 0x3B4EC, size: 0x8, addend: 0x0, symName: __ZNSt3__114__map_iteratorINS_15__tree_iteratorINS_12__value_typeINS_12basic_stringIcNS_11char_traitsIcEENS_9allocatorIcEEEEdEEPNS_11__tree_nodeIS9_PvEElEEEC2B8ue170006ESE_, symObjAddr: 0x9738, symBinAddr: 0x10000ADA0, symSize: 0x20 }
  - { offsetInCU: 0x3B525, offset: 0x3B525, size: 0x8, addend: 0x0, symName: __ZNSt3__120__map_const_iteratorINS_21__tree_const_iteratorINS_12__value_typeINS_12basic_stringIcNS_11char_traitsIcEENS_9allocatorIcEEEEdEEPNS_11__tree_nodeIS9_PvEElEEEC2B8ue170006ESE_, symObjAddr: 0x9758, symBinAddr: 0x10000ADC0, symSize: 0x20 }
  - { offsetInCU: 0x3B55E, offset: 0x3B55E, size: 0x8, addend: 0x0, symName: __ZNKSt3__121__tree_const_iteratorINS_12__value_typeINS_12basic_stringIcNS_11char_traitsIcEENS_9allocatorIcEEEEdEEPNS_11__tree_nodeIS8_PvEElEptB8ue170006Ev, symObjAddr: 0x9778, symBinAddr: 0x10000ADE0, symSize: 0x2C }
  - { offsetInCU: 0x3B584, offset: 0x3B584, size: 0x8, addend: 0x0, symName: __ZNSt3__114pointer_traitsIPKNS_12__value_typeINS_12basic_stringIcNS_11char_traitsIcEENS_9allocatorIcEEEEdEEE10pointer_toB8ue170006ERS9_, symObjAddr: 0x97A4, symBinAddr: 0x10000AE0C, symSize: 0x14 }
  - { offsetInCU: 0x3B5A7, offset: 0x3B5A7, size: 0x8, addend: 0x0, symName: __ZNKSt3__16__treeINS_12__value_typeINS_12basic_stringIcNS_11char_traitsIcEENS_9allocatorIcEEEEdEENS_19__map_value_compareIS7_S8_NS_4lessIS7_EELb1EEENS5_IS8_EEE5beginB8ue170006Ev, symObjAddr: 0x97B8, symBinAddr: 0x10000AE20, symSize: 0x34 }
  - { offsetInCU: 0x3B5CD, offset: 0x3B5CD, size: 0x8, addend: 0x0, symName: __ZNKSt3__16__treeINS_12__value_typeINS_12basic_stringIcNS_11char_traitsIcEENS_9allocatorIcEEEEdEENS_19__map_value_compareIS7_S8_NS_4lessIS7_EELb1EEENS5_IS8_EEE12__begin_nodeB8ue170006Ev, symObjAddr: 0x97EC, symBinAddr: 0x10000AE54, symSize: 0x14 }
  - { offsetInCU: 0x3B5F3, offset: 0x3B5F3, size: 0x8, addend: 0x0, symName: __ZNSt3__121__tree_const_iteratorINS_12__value_typeINS_12basic_stringIcNS_11char_traitsIcEENS_9allocatorIcEEEEdEEPNS_11__tree_nodeIS8_PvEElEC1B8ue170006EPNS_15__tree_end_nodeIPNS_16__tree_node_baseISA_EEEE, symObjAddr: 0x9800, symBinAddr: 0x10000AE68, symSize: 0x34 }
  - { offsetInCU: 0x3B62C, offset: 0x3B62C, size: 0x8, addend: 0x0, symName: __ZNSt3__121__tree_const_iteratorINS_12__value_typeINS_12basic_stringIcNS_11char_traitsIcEENS_9allocatorIcEEEEdEEPNS_11__tree_nodeIS8_PvEElEC2B8ue170006EPNS_15__tree_end_nodeIPNS_16__tree_node_baseISA_EEEE, symObjAddr: 0x9834, symBinAddr: 0x10000AE9C, symSize: 0x20 }
  - { offsetInCU: 0x3B665, offset: 0x3B665, size: 0x8, addend: 0x0, symName: __ZNKSt3__16__treeINS_12__value_typeINS_12basic_stringIcNS_11char_traitsIcEENS_9allocatorIcEEEEdEENS_19__map_value_compareIS7_S8_NS_4lessIS7_EELb1EEENS5_IS8_EEE3endB8ue170006Ev, symObjAddr: 0x9854, symBinAddr: 0x10000AEBC, symSize: 0x34 }
  - { offsetInCU: 0x3B68B, offset: 0x3B68B, size: 0x8, addend: 0x0, symName: __ZNSt3__16__treeINS_12__value_typeINS_12basic_stringIcNS_11char_traitsIcEENS_9allocatorIcEEEEdEENS_19__map_value_compareIS7_S8_NS_4lessIS7_EELb1EEENS5_IS8_EEED2Ev, symObjAddr: 0x9888, symBinAddr: 0x10000AEF0, symSize: 0x38 }
  - { offsetInCU: 0x3B6B7, offset: 0x3B6B7, size: 0x8, addend: 0x0, symName: __ZNSt3__16__treeINS_12__value_typeINS_12basic_stringIcNS_11char_traitsIcEENS_9allocatorIcEEEEdEENS_19__map_value_compareIS7_S8_NS_4lessIS7_EELb1EEENS5_IS8_EEE7destroyEPNS_11__tree_nodeIS8_PvEE, symObjAddr: 0x98C0, symBinAddr: 0x10000AF28, symSize: 0xA8 }
  - { offsetInCU: 0x3B703, offset: 0x3B703, size: 0x8, addend: 0x0, symName: __ZNSt3__112__value_typeIlNS_3mapINS_12basic_stringIcNS_11char_traitsIcEENS_9allocatorIcEEEEdNS_4lessIS7_EENS5_INS_4pairIKS7_dEEEEEEE11__get_valueB8ue170006Ev, symObjAddr: 0x9968, symBinAddr: 0x10000AFD0, symSize: 0x14 }
  - { offsetInCU: 0x3B729, offset: 0x3B729, size: 0x8, addend: 0x0, symName: __ZNKSt3__117__compressed_pairIPNS_11__tree_nodeINS_12__value_typeIlNS_3mapINS_12basic_stringIcNS_11char_traitsIcEENS_9allocatorIcEEEEdNS_4lessIS9_EENS7_INS_4pairIKS9_dEEEEEEEEPvEENS_22__tree_node_destructorINS7_ISJ_EEEEE5firstB8ue170006Ev, symObjAddr: 0x997C, symBinAddr: 0x10000AFE4, symSize: 0x24 }
  - { offsetInCU: 0x3B74F, offset: 0x3B74F, size: 0x8, addend: 0x0, symName: __ZNKSt3__122__compressed_pair_elemIPNS_11__tree_nodeINS_12__value_typeIlNS_3mapINS_12basic_stringIcNS_11char_traitsIcEENS_9allocatorIcEEEEdNS_4lessIS9_EENS7_INS_4pairIKS9_dEEEEEEEEPvEELi0ELb0EE5__getB8ue170006Ev, symObjAddr: 0x99A0, symBinAddr: 0x10000B008, symSize: 0x14 }
  - { offsetInCU: 0x3B775, offset: 0x3B775, size: 0x8, addend: 0x0, symName: __ZNSt3__117__compressed_pairIPNS_11__tree_nodeINS_12__value_typeIlNS_3mapINS_12basic_stringIcNS_11char_traitsIcEENS_9allocatorIcEEEEdNS_4lessIS9_EENS7_INS_4pairIKS9_dEEEEEEEEPvEENS_22__tree_node_destructorINS7_ISJ_EEEEE6secondB8ue170006Ev, symObjAddr: 0x99B4, symBinAddr: 0x10000B01C, symSize: 0x28 }
  - { offsetInCU: 0x3B79B, offset: 0x3B79B, size: 0x8, addend: 0x0, symName: __ZNSt3__122__compressed_pair_elemINS_22__tree_node_destructorINS_9allocatorINS_11__tree_nodeINS_12__value_typeIlNS_3mapINS_12basic_stringIcNS_11char_traitsIcEENS2_IcEEEEdNS_4lessISA_EENS2_INS_4pairIKSA_dEEEEEEEEPvEEEEEELi1ELb0EE5__getB8ue170006Ev, symObjAddr: 0x99DC, symBinAddr: 0x10000B044, symSize: 0x14 }
  - { offsetInCU: 0x3B7C1, offset: 0x3B7C1, size: 0x8, addend: 0x0, symName: __ZNSt3__16__treeINS_12__value_typeIlNS_3mapINS_12basic_stringIcNS_11char_traitsIcEENS_9allocatorIcEEEEdNS_4lessIS8_EENS6_INS_4pairIKS8_dEEEEEEEENS_19__map_value_compareIlSG_NS9_IlEELb1EEENS6_ISG_EEE4sizeB8ue170006Ev, symObjAddr: 0x99F0, symBinAddr: 0x10000B058, symSize: 0x28 }
  - { offsetInCU: 0x3B7E7, offset: 0x3B7E7, size: 0x8, addend: 0x0, symName: __ZNSt3__117__compressed_pairImNS_19__map_value_compareIlNS_12__value_typeIlNS_3mapINS_12basic_stringIcNS_11char_traitsIcEENS_9allocatorIcEEEEdNS_4lessIS9_EENS7_INS_4pairIKS9_dEEEEEEEENSA_IlEELb1EEEE5firstB8ue170006Ev, symObjAddr: 0x9A18, symBinAddr: 0x10000B080, symSize: 0x24 }
  - { offsetInCU: 0x3B80D, offset: 0x3B80D, size: 0x8, addend: 0x0, symName: __ZNSt3__117__compressed_pairIPNS_11__tree_nodeINS_12__value_typeIlNS_3mapINS_12basic_stringIcNS_11char_traitsIcEENS_9allocatorIcEEEEdNS_4lessIS9_EENS7_INS_4pairIKS9_dEEEEEEEEPvEENS_22__tree_node_destructorINS7_ISJ_EEEEE5firstB8ue170006Ev, symObjAddr: 0x9A3C, symBinAddr: 0x10000B0A4, symSize: 0x24 }
  - { offsetInCU: 0x3B833, offset: 0x3B833, size: 0x8, addend: 0x0, symName: __ZNSt3__122__compressed_pair_elemIPNS_11__tree_nodeINS_12__value_typeIlNS_3mapINS_12basic_stringIcNS_11char_traitsIcEENS_9allocatorIcEEEEdNS_4lessIS9_EENS7_INS_4pairIKS9_dEEEEEEEEPvEELi0ELb0EE5__getB8ue170006Ev, symObjAddr: 0x9A60, symBinAddr: 0x10000B0C8, symSize: 0x14 }
  - { offsetInCU: 0x3B859, offset: 0x3B859, size: 0x8, addend: 0x0, symName: __ZNSt3__110unique_ptrINS_11__tree_nodeINS_12__value_typeIlNS_3mapINS_12basic_stringIcNS_11char_traitsIcEENS_9allocatorIcEEEEdNS_4lessIS9_EENS7_INS_4pairIKS9_dEEEEEEEEPvEENS_22__tree_node_destructorINS7_ISJ_EEEEED2B8ue170006Ev, symObjAddr: 0x9A74, symBinAddr: 0x10000B0DC, symSize: 0x30 }
  - { offsetInCU: 0x3B883, offset: 0x3B883, size: 0x8, addend: 0x0, symName: __ZNSt3__110unique_ptrINS_11__tree_nodeINS_12__value_typeIlNS_3mapINS_12basic_stringIcNS_11char_traitsIcEENS_9allocatorIcEEEEdNS_4lessIS9_EENS7_INS_4pairIKS9_dEEEEEEEEPvEENS_22__tree_node_destructorINS7_ISJ_EEEEE5resetB8ue170006EPSJ_, symObjAddr: 0x9AA4, symBinAddr: 0x10000B10C, symSize: 0x78 }
  - { offsetInCU: 0x3B8C7, offset: 0x3B8C7, size: 0x8, addend: 0x0, symName: __ZNSt3__122__tree_node_destructorINS_9allocatorINS_11__tree_nodeINS_12__value_typeIlNS_3mapINS_12basic_stringIcNS_11char_traitsIcEENS1_IcEEEEdNS_4lessIS9_EENS1_INS_4pairIKS9_dEEEEEEEEPvEEEEEclB8ue170006EPSJ_, symObjAddr: 0x9B1C, symBinAddr: 0x10000B184, symSize: 0x98 }
  - { offsetInCU: 0x3B8FC, offset: 0x3B8FC, size: 0x8, addend: 0x0, symName: __ZNSt3__116allocator_traitsINS_9allocatorINS_11__tree_nodeINS_12__value_typeIlNS_3mapINS_12basic_stringIcNS_11char_traitsIcEENS1_IcEEEEdNS_4lessIS9_EENS1_INS_4pairIKS9_dEEEEEEEEPvEEEEE7destroyB8ue170006INSC_IKlSG_EEvvEEvRSK_PT_, symObjAddr: 0x9BB4, symBinAddr: 0x10000B21C, symSize: 0x28 }
  - { offsetInCU: 0x3B936, offset: 0x3B936, size: 0x8, addend: 0x0, symName: __ZNSt3__116allocator_traitsINS_9allocatorINS_11__tree_nodeINS_12__value_typeIlNS_3mapINS_12basic_stringIcNS_11char_traitsIcEENS1_IcEEEEdNS_4lessIS9_EENS1_INS_4pairIKS9_dEEEEEEEEPvEEEEE10deallocateB8ue170006ERSK_PSJ_m, symObjAddr: 0x9BDC, symBinAddr: 0x10000B244, symSize: 0x34 }
  - { offsetInCU: 0x3B978, offset: 0x3B978, size: 0x8, addend: 0x0, symName: __ZNSt3__14pairIKlNS_3mapINS_12basic_stringIcNS_11char_traitsIcEENS_9allocatorIcEEEEdNS_4lessIS8_EENS6_INS0_IKS8_dEEEEEEED1Ev, symObjAddr: 0x9C10, symBinAddr: 0x10000B278, symSize: 0x2C }
  - { offsetInCU: 0x3B9A4, offset: 0x3B9A4, size: 0x8, addend: 0x0, symName: __ZNSt3__14pairIKlNS_3mapINS_12basic_stringIcNS_11char_traitsIcEENS_9allocatorIcEEEEdNS_4lessIS8_EENS6_INS0_IKS8_dEEEEEEED2Ev, symObjAddr: 0x9C3C, symBinAddr: 0x10000B2A4, symSize: 0x30 }
  - { offsetInCU: 0x3B9D0, offset: 0x3B9D0, size: 0x8, addend: 0x0, symName: __ZNSt3__13mapINS_12basic_stringIcNS_11char_traitsIcEENS_9allocatorIcEEEEdNS_4lessIS6_EENS4_INS_4pairIKS6_dEEEEED1B8ue170006Ev, symObjAddr: 0x9C6C, symBinAddr: 0x10000B2D4, symSize: 0x2C }
  - { offsetInCU: 0x3B9FA, offset: 0x3B9FA, size: 0x8, addend: 0x0, symName: __ZNSt3__13mapINS_12basic_stringIcNS_11char_traitsIcEENS_9allocatorIcEEEEdNS_4lessIS6_EENS4_INS_4pairIKS6_dEEEEED2B8ue170006Ev, symObjAddr: 0x9C98, symBinAddr: 0x10000B300, symSize: 0x2C }
  - { offsetInCU: 0x3BA24, offset: 0x3BA24, size: 0x8, addend: 0x0, symName: __ZNSt3__19allocatorINS_11__tree_nodeINS_12__value_typeIlNS_3mapINS_12basic_stringIcNS_11char_traitsIcEENS0_IcEEEEdNS_4lessIS8_EENS0_INS_4pairIKS8_dEEEEEEEEPvEEE10deallocateB8ue170006EPSI_m, symObjAddr: 0x9CC4, symBinAddr: 0x10000B32C, symSize: 0x40 }
  - { offsetInCU: 0x3BA66, offset: 0x3BA66, size: 0x8, addend: 0x0, symName: __ZNSt3__115__tree_iteratorINS_12__value_typeIlNS_3mapINS_12basic_stringIcNS_11char_traitsIcEENS_9allocatorIcEEEEdNS_4lessIS8_EENS6_INS_4pairIKS8_dEEEEEEEEPNS_11__tree_nodeISG_PvEElEC2B8ue170006ESK_, symObjAddr: 0x9D04, symBinAddr: 0x10000B36C, symSize: 0x20 }
  - { offsetInCU: 0x3BA9F, offset: 0x3BA9F, size: 0x8, addend: 0x0, symName: __ZNSt3__14pairINS_15__tree_iteratorINS_12__value_typeIlNS_3mapINS_12basic_stringIcNS_11char_traitsIcEENS_9allocatorIcEEEEdNS_4lessIS9_EENS7_INS0_IKS9_dEEEEEEEEPNS_11__tree_nodeISG_PvEElEEbEC2B8ue170006ISL_RbLSI_0EEEOT_OT0_, symObjAddr: 0x9D24, symBinAddr: 0x10000B38C, symSize: 0x38 }
  - { offsetInCU: 0x3BAFD, offset: 0x3BAFD, size: 0x8, addend: 0x0, symName: __ZNSt3__114__map_iteratorINS_15__tree_iteratorINS_12__value_typeIlNS_3mapINS_12basic_stringIcNS_11char_traitsIcEENS_9allocatorIcEEEEdNS_4lessIS9_EENS7_INS_4pairIKS9_dEEEEEEEEPNS_11__tree_nodeISH_PvEElEEEC2B8ue170006ESM_, symObjAddr: 0x9D5C, symBinAddr: 0x10000B3C4, symSize: 0x20 }
  - { offsetInCU: 0x3BB36, offset: 0x3BB36, size: 0x8, addend: 0x0, symName: __ZNSt3__120__map_const_iteratorINS_21__tree_const_iteratorINS_12__value_typeIlNS_3mapINS_12basic_stringIcNS_11char_traitsIcEENS_9allocatorIcEEEEdNS_4lessIS9_EENS7_INS_4pairIKS9_dEEEEEEEEPNS_11__tree_nodeISH_PvEElEEEC2B8ue170006ESM_, symObjAddr: 0x9D7C, symBinAddr: 0x10000B3E4, symSize: 0x20 }
  - { offsetInCU: 0x3BB6F, offset: 0x3BB6F, size: 0x8, addend: 0x0, symName: __ZNKSt3__121__tree_const_iteratorINS_12__value_typeIlNS_3mapINS_12basic_stringIcNS_11char_traitsIcEENS_9allocatorIcEEEEdNS_4lessIS8_EENS6_INS_4pairIKS8_dEEEEEEEEPNS_11__tree_nodeISG_PvEElEptB8ue170006Ev, symObjAddr: 0x9D9C, symBinAddr: 0x10000B404, symSize: 0x2C }
  - { offsetInCU: 0x3BB95, offset: 0x3BB95, size: 0x8, addend: 0x0, symName: __ZNSt3__114pointer_traitsIPKNS_12__value_typeIlNS_3mapINS_12basic_stringIcNS_11char_traitsIcEENS_9allocatorIcEEEEdNS_4lessIS8_EENS6_INS_4pairIKS8_dEEEEEEEEE10pointer_toB8ue170006ERSH_, symObjAddr: 0x9DC8, symBinAddr: 0x10000B430, symSize: 0x14 }
  - { offsetInCU: 0x3BBB8, offset: 0x3BBB8, size: 0x8, addend: 0x0, symName: __ZNKSt3__16__treeINS_12__value_typeIlNS_3mapINS_12basic_stringIcNS_11char_traitsIcEENS_9allocatorIcEEEEdNS_4lessIS8_EENS6_INS_4pairIKS8_dEEEEEEEENS_19__map_value_compareIlSG_NS9_IlEELb1EEENS6_ISG_EEE5beginB8ue170006Ev, symObjAddr: 0x9DDC, symBinAddr: 0x10000B444, symSize: 0x34 }
  - { offsetInCU: 0x3BBDE, offset: 0x3BBDE, size: 0x8, addend: 0x0, symName: __ZNKSt3__16__treeINS_12__value_typeIlNS_3mapINS_12basic_stringIcNS_11char_traitsIcEENS_9allocatorIcEEEEdNS_4lessIS8_EENS6_INS_4pairIKS8_dEEEEEEEENS_19__map_value_compareIlSG_NS9_IlEELb1EEENS6_ISG_EEE12__begin_nodeB8ue170006Ev, symObjAddr: 0x9E10, symBinAddr: 0x10000B478, symSize: 0x14 }
  - { offsetInCU: 0x3BC04, offset: 0x3BC04, size: 0x8, addend: 0x0, symName: __ZNSt3__121__tree_const_iteratorINS_12__value_typeIlNS_3mapINS_12basic_stringIcNS_11char_traitsIcEENS_9allocatorIcEEEEdNS_4lessIS8_EENS6_INS_4pairIKS8_dEEEEEEEEPNS_11__tree_nodeISG_PvEElEC1B8ue170006EPNS_15__tree_end_nodeIPNS_16__tree_node_baseISI_EEEE, symObjAddr: 0x9E24, symBinAddr: 0x10000B48C, symSize: 0x34 }
  - { offsetInCU: 0x3BC3D, offset: 0x3BC3D, size: 0x8, addend: 0x0, symName: __ZNSt3__121__tree_const_iteratorINS_12__value_typeIlNS_3mapINS_12basic_stringIcNS_11char_traitsIcEENS_9allocatorIcEEEEdNS_4lessIS8_EENS6_INS_4pairIKS8_dEEEEEEEEPNS_11__tree_nodeISG_PvEElEC2B8ue170006EPNS_15__tree_end_nodeIPNS_16__tree_node_baseISI_EEEE, symObjAddr: 0x9E58, symBinAddr: 0x10000B4C0, symSize: 0x20 }
  - { offsetInCU: 0x3BC76, offset: 0x3BC76, size: 0x8, addend: 0x0, symName: __ZNKSt3__16__treeINS_12__value_typeIlNS_3mapINS_12basic_stringIcNS_11char_traitsIcEENS_9allocatorIcEEEEdNS_4lessIS8_EENS6_INS_4pairIKS8_dEEEEEEEENS_19__map_value_compareIlSG_NS9_IlEELb1EEENS6_ISG_EEE3endB8ue170006Ev, symObjAddr: 0x9E78, symBinAddr: 0x10000B4E0, symSize: 0x34 }
  - { offsetInCU: 0x3BC9C, offset: 0x3BC9C, size: 0x8, addend: 0x0, symName: __ZNSt3__16__treeINS_12__value_typeIlNS_3mapINS_12basic_stringIcNS_11char_traitsIcEENS_9allocatorIcEEEEdNS_4lessIS8_EENS6_INS_4pairIKS8_dEEEEEEEENS_19__map_value_compareIlSG_NS9_IlEELb1EEENS6_ISG_EEED2Ev, symObjAddr: 0x9EAC, symBinAddr: 0x10000B514, symSize: 0x38 }
  - { offsetInCU: 0x3BCC8, offset: 0x3BCC8, size: 0x8, addend: 0x0, symName: __ZNSt3__16__treeINS_12__value_typeIlNS_3mapINS_12basic_stringIcNS_11char_traitsIcEENS_9allocatorIcEEEEdNS_4lessIS8_EENS6_INS_4pairIKS8_dEEEEEEEENS_19__map_value_compareIlSG_NS9_IlEELb1EEENS6_ISG_EEE7destroyEPNS_11__tree_nodeISG_PvEE, symObjAddr: 0x9EE4, symBinAddr: 0x10000B54C, symSize: 0xA8 }
  - { offsetInCU: 0x3BD14, offset: 0x3BD14, size: 0x8, addend: 0x0, symName: __ZNSt3__16__treeINS_12__value_typeIlNS_3mapINS_12basic_stringIcNS_11char_traitsIcEENS_9allocatorIcEEEEdNS_4lessIS8_EENS6_INS_4pairIKS8_dEEEEEEEENS_19__map_value_compareIlSG_NS9_IlEELb1EEENS6_ISG_EEE25__emplace_unique_key_argsIlJRKNS_21piecewise_construct_tENS_5tupleIJRKlEEENSQ_IJEEEEEENSB_INS_15__tree_iteratorISG_PNS_11__tree_nodeISG_PvEElEEbEERKT_DpOT0_, symObjAddr: 0x9F8C, symBinAddr: 0x10000B5F4, symSize: 0x100 }
  - { offsetInCU: 0x3BDEA, offset: 0x3BDEA, size: 0x8, addend: 0x0, symName: __ZNKSt3__115__tree_iteratorINS_12__value_typeIlNS_3mapINS_12basic_stringIcNS_11char_traitsIcEENS_9allocatorIcEEEEdNS_4lessIS8_EENS6_INS_4pairIKS8_dEEEEEEEEPNS_11__tree_nodeISG_PvEElEptB8ue170006Ev, symObjAddr: 0xA0B8, symBinAddr: 0x10000B720, symSize: 0x2C }
  - { offsetInCU: 0x3BE10, offset: 0x3BE10, size: 0x8, addend: 0x0, symName: __ZNSt3__16__treeINS_12__value_typeIlNS_3mapINS_12basic_stringIcNS_11char_traitsIcEENS_9allocatorIcEEEEdNS_4lessIS8_EENS6_INS_4pairIKS8_dEEEEEEEENS_19__map_value_compareIlSG_NS9_IlEELb1EEENS6_ISG_EEE16__construct_nodeIJRKNS_21piecewise_construct_tENS_5tupleIJRKlEEENSQ_IJEEEEEENS_10unique_ptrINS_11__tree_nodeISG_PvEENS_22__tree_node_destructorINS6_ISY_EEEEEEDpOT_, symObjAddr: 0xA0E4, symBinAddr: 0x10000B74C, symSize: 0x120 }
  - { offsetInCU: 0x3BE99, offset: 0x3BE99, size: 0x8, addend: 0x0, symName: __ZNSt3__116allocator_traitsINS_9allocatorINS_11__tree_nodeINS_12__value_typeIlNS_3mapINS_12basic_stringIcNS_11char_traitsIcEENS1_IcEEEEdNS_4lessIS9_EENS1_INS_4pairIKS9_dEEEEEEEEPvEEEEE9constructB8ue170006INSC_IKlSG_EEJRKNS_21piecewise_construct_tENS_5tupleIJRSN_EEENSS_IJEEEEvEEvRSK_PT_DpOT0_, symObjAddr: 0xA204, symBinAddr: 0x10000B86C, symSize: 0x44 }
  - { offsetInCU: 0x3BF18, offset: 0x3BF18, size: 0x8, addend: 0x0, symName: __ZNSt3__19allocatorINS_11__tree_nodeINS_12__value_typeIlNS_3mapINS_12basic_stringIcNS_11char_traitsIcEENS0_IcEEEEdNS_4lessIS8_EENS0_INS_4pairIKS8_dEEEEEEEEPvEEE9constructB8ue170006INSB_IKlSF_EEJRKNS_21piecewise_construct_tENS_5tupleIJRSL_EEENSQ_IJEEEEEEvPT_DpOT0_, symObjAddr: 0xA248, symBinAddr: 0x10000B8B0, symSize: 0x44 }
  - { offsetInCU: 0x3BF94, offset: 0x3BF94, size: 0x8, addend: 0x0, symName: __ZNSt3__14pairIKlNS_3mapINS_12basic_stringIcNS_11char_traitsIcEENS_9allocatorIcEEEEdNS_4lessIS8_EENS6_INS0_IKS8_dEEEEEEEC1B8ue170006IJRS1_EJEEENS_21piecewise_construct_tENS_5tupleIJDpT_EEENSJ_IJDpT0_EEE, symObjAddr: 0xA28C, symBinAddr: 0x10000B8F4, symSize: 0x44 }
  - { offsetInCU: 0x3BFFB, offset: 0x3BFFB, size: 0x8, addend: 0x0, symName: __ZNSt3__14pairIKlNS_3mapINS_12basic_stringIcNS_11char_traitsIcEENS_9allocatorIcEEEEdNS_4lessIS8_EENS6_INS0_IKS8_dEEEEEEEC1B8ue170006IJRS1_EJEJLm0EEJEEENS_21piecewise_construct_tERNS_5tupleIJDpT_EEERNSJ_IJDpT0_EEENS_15__tuple_indicesIJXspT1_EEEENSS_IJXspT2_EEEE, symObjAddr: 0xA2D0, symBinAddr: 0x10000B938, symSize: 0x3C }
  - { offsetInCU: 0x3C088, offset: 0x3C088, size: 0x8, addend: 0x0, symName: __ZNSt3__14pairIKlNS_3mapINS_12basic_stringIcNS_11char_traitsIcEENS_9allocatorIcEEEEdNS_4lessIS8_EENS6_INS0_IKS8_dEEEEEEEC2B8ue170006IJRS1_EJEJLm0EEJEEENS_21piecewise_construct_tERNS_5tupleIJDpT_EEERNSJ_IJDpT0_EEENS_15__tuple_indicesIJXspT1_EEEENSS_IJXspT2_EEEE, symObjAddr: 0xA30C, symBinAddr: 0x10000B974, symSize: 0x4C }
  - { offsetInCU: 0x3C115, offset: 0x3C115, size: 0x8, addend: 0x0, symName: __ZNSt3__13mapINS_12basic_stringIcNS_11char_traitsIcEENS_9allocatorIcEEEEdNS_4lessIS6_EENS4_INS_4pairIKS6_dEEEEEC1B8ue170006Ev, symObjAddr: 0xA37C, symBinAddr: 0x10000B9E4, symSize: 0x2C }
  - { offsetInCU: 0x3C13F, offset: 0x3C13F, size: 0x8, addend: 0x0, symName: __ZNSt3__112__tuple_leafILm0ERKlLb0EE3getB8ue170006Ev, symObjAddr: 0xA3A8, symBinAddr: 0x10000BA10, symSize: 0x18 }
  - { offsetInCU: 0x3C165, offset: 0x3C165, size: 0x8, addend: 0x0, symName: __ZNSt3__13mapINS_12basic_stringIcNS_11char_traitsIcEENS_9allocatorIcEEEEdNS_4lessIS6_EENS4_INS_4pairIKS6_dEEEEEC2B8ue170006Ev, symObjAddr: 0xA3C0, symBinAddr: 0x10000BA28, symSize: 0x40 }
  - { offsetInCU: 0x3C18F, offset: 0x3C18F, size: 0x8, addend: 0x0, symName: __ZNSt3__119__map_value_compareINS_12basic_stringIcNS_11char_traitsIcEENS_9allocatorIcEEEENS_12__value_typeIS6_dEENS_4lessIS6_EELb1EEC1B8ue170006ESA_, symObjAddr: 0xA400, symBinAddr: 0x10000BA68, symSize: 0x2C }
  - { offsetInCU: 0x3C1C8, offset: 0x3C1C8, size: 0x8, addend: 0x0, symName: __ZNSt3__16__treeINS_12__value_typeINS_12basic_stringIcNS_11char_traitsIcEENS_9allocatorIcEEEEdEENS_19__map_value_compareIS7_S8_NS_4lessIS7_EELb1EEENS5_IS8_EEEC1ERKSC_, symObjAddr: 0xA42C, symBinAddr: 0x10000BA94, symSize: 0x34 }
  - { offsetInCU: 0x3C203, offset: 0x3C203, size: 0x8, addend: 0x0, symName: __ZNSt3__119__map_value_compareINS_12basic_stringIcNS_11char_traitsIcEENS_9allocatorIcEEEENS_12__value_typeIS6_dEENS_4lessIS6_EELb1EEC2B8ue170006ESA_, symObjAddr: 0xA460, symBinAddr: 0x10000BAC8, symSize: 0x14 }
  - { offsetInCU: 0x3C23C, offset: 0x3C23C, size: 0x8, addend: 0x0, symName: __ZNSt3__16__treeINS_12__value_typeINS_12basic_stringIcNS_11char_traitsIcEENS_9allocatorIcEEEEdEENS_19__map_value_compareIS7_S8_NS_4lessIS7_EELb1EEENS5_IS8_EEEC2ERKSC_, symObjAddr: 0xA474, symBinAddr: 0x10000BADC, symSize: 0x7C }
  - { offsetInCU: 0x3C277, offset: 0x3C277, size: 0x8, addend: 0x0, symName: __ZNSt3__117__compressed_pairINS_15__tree_end_nodeIPNS_16__tree_node_baseIPvEEEENS_9allocatorINS_11__tree_nodeINS_12__value_typeINS_12basic_stringIcNS_11char_traitsIcEENS7_IcEEEEdEES3_EEEEEC1B8ue170006ILb1EvEEv, symObjAddr: 0xA4F0, symBinAddr: 0x10000BB58, symSize: 0x2C }
  - { offsetInCU: 0x3C2AC, offset: 0x3C2AC, size: 0x8, addend: 0x0, symName: __ZNSt3__117__compressed_pairINS_15__tree_end_nodeIPNS_16__tree_node_baseIPvEEEENS_9allocatorINS_11__tree_nodeINS_12__value_typeINS_12basic_stringIcNS_11char_traitsIcEENS7_IcEEEEdEES3_EEEEEC2B8ue170006ILb1EvEEv, symObjAddr: 0xA51C, symBinAddr: 0x10000BB84, symSize: 0x34 }
  - { offsetInCU: 0x3C2E1, offset: 0x3C2E1, size: 0x8, addend: 0x0, symName: __ZNSt3__122__compressed_pair_elemINS_9allocatorINS_11__tree_nodeINS_12__value_typeINS_12basic_stringIcNS_11char_traitsIcEENS1_IcEEEEdEEPvEEEELi1ELb1EEC2B8ue170006ENS_16__value_init_tagE, symObjAddr: 0xA550, symBinAddr: 0x10000BBB8, symSize: 0x2C }
  - { offsetInCU: 0x3C315, offset: 0x3C315, size: 0x8, addend: 0x0, symName: __ZNSt3__19allocatorINS_11__tree_nodeINS_12__value_typeINS_12basic_stringIcNS_11char_traitsIcEENS0_IcEEEEdEEPvEEEC2B8ue170006Ev, symObjAddr: 0xA57C, symBinAddr: 0x10000BBE4, symSize: 0x2C }
  - { offsetInCU: 0x3C33F, offset: 0x3C33F, size: 0x8, addend: 0x0, symName: __ZNSt3__116__non_trivial_ifILb1ENS_9allocatorINS_11__tree_nodeINS_12__value_typeINS_12basic_stringIcNS_11char_traitsIcEENS1_IcEEEEdEEPvEEEEEC2B8ue170006Ev, symObjAddr: 0xA5A8, symBinAddr: 0x10000BC10, symSize: 0x14 }
  - { offsetInCU: 0x3C369, offset: 0x3C369, size: 0x8, addend: 0x0, symName: __ZNSt3__15tupleIJRKlEEC1B8ue170006INS_4_AndELi0EEES2_, symObjAddr: 0xA5BC, symBinAddr: 0x10000BC24, symSize: 0x34 }
  - { offsetInCU: 0x3C3B1, offset: 0x3C3B1, size: 0x8, addend: 0x0, symName: __ZNSt3__15tupleIJRKlEEC2B8ue170006INS_4_AndELi0EEES2_, symObjAddr: 0xA5F0, symBinAddr: 0x10000BC58, symSize: 0x34 }
  - { offsetInCU: 0x3C3F9, offset: 0x3C3F9, size: 0x8, addend: 0x0, symName: __ZNSt3__112__tuple_implINS_15__tuple_indicesIJLm0EEEEJRKlEEC1B8ue170006IJLm0EEJS4_EJEJEJS4_EEENS1_IJXspT_EEEENS_13__tuple_typesIJDpT0_EEENS1_IJXspT1_EEEENS8_IJDpT2_EEEDpOT3_, symObjAddr: 0xA624, symBinAddr: 0x10000BC8C, symSize: 0x34 }
  - { offsetInCU: 0x3C48A, offset: 0x3C48A, size: 0x8, addend: 0x0, symName: __ZNSt3__112__tuple_implINS_15__tuple_indicesIJLm0EEEEJRKlEEC2B8ue170006IJLm0EEJS4_EJEJEJS4_EEENS1_IJXspT_EEEENS_13__tuple_typesIJDpT0_EEENS1_IJXspT1_EEEENS8_IJDpT2_EEEDpOT3_, symObjAddr: 0xA658, symBinAddr: 0x10000BCC0, symSize: 0x34 }
  - { offsetInCU: 0x3C51B, offset: 0x3C51B, size: 0x8, addend: 0x0, symName: __ZNSt3__112__tuple_leafILm0ERKlLb0EEC2B8ue170006IS2_vEEOT_, symObjAddr: 0xA68C, symBinAddr: 0x10000BCF4, symSize: 0x20 }
  - { offsetInCU: 0x3C55E, offset: 0x3C55E, size: 0x8, addend: 0x0, symName: __ZNSt3__114pointer_traitsIPNS_12__value_typeIlNS_3mapINS_12basic_stringIcNS_11char_traitsIcEENS_9allocatorIcEEEEdNS_4lessIS8_EENS6_INS_4pairIKS8_dEEEEEEEEE10pointer_toB8ue170006ERSG_, symObjAddr: 0xA6AC, symBinAddr: 0x10000BD14, symSize: 0x14 }
  - { offsetInCU: 0x3C581, offset: 0x3C581, size: 0x8, addend: 0x0, symName: __ZNKSt3__115__tree_iteratorINS_12__value_typeIlNS_3mapINS_12basic_stringIcNS_11char_traitsIcEENS_9allocatorIcEEEEdNS_4lessIS8_EENS6_INS_4pairIKS8_dEEEEEEEEPNS_11__tree_nodeISG_PvEElE8__get_npB8ue170006Ev, symObjAddr: 0xA6C0, symBinAddr: 0x10000BD28, symSize: 0x18 }
  - { offsetInCU: 0x3C5A7, offset: 0x3C5A7, size: 0x8, addend: 0x0, symName: __ZNSt3__13mapIlNS0_INS_12basic_stringIcNS_11char_traitsIcEENS_9allocatorIcEEEEdNS_4lessIS6_EENS4_INS_4pairIKS6_dEEEEEENS7_IlEENS4_INS9_IKlSD_EEEEED2B8ue170006Ev, symObjAddr: 0xA6D8, symBinAddr: 0x10000BD40, symSize: 0x2C }
  - { offsetInCU: 0x3C5D1, offset: 0x3C5D1, size: 0x8, addend: 0x0, symName: __ZN11marketEventC2Ev, symObjAddr: 0xA704, symBinAddr: 0x10000BD6C, symSize: 0x80 }
  - { offsetInCU: 0x3C5FB, offset: 0x3C5FB, size: 0x8, addend: 0x0, symName: __ZN5eventC2Ev, symObjAddr: 0xA784, symBinAddr: 0x10000BDEC, symSize: 0x40 }
  - { offsetInCU: 0x3C627, offset: 0x3C627, size: 0x8, addend: 0x0, symName: __ZNSt3__112basic_stringIcNS_11char_traitsIcEENS_9allocatorIcEEEaSB8ue170006EPKc, symObjAddr: 0xA7C4, symBinAddr: 0x10000BE2C, symSize: 0x2C }
  - { offsetInCU: 0x3C65C, offset: 0x3C65C, size: 0x8, addend: 0x0, symName: __ZN5eventD2Ev, symObjAddr: 0xA7F0, symBinAddr: 0x10000BE58, symSize: 0x40 }
  - { offsetInCU: 0x3C686, offset: 0x3C686, size: 0x8, addend: 0x0, symName: __ZN11marketEventD1Ev, symObjAddr: 0xA830, symBinAddr: 0x10000BE98, symSize: 0x2C }
  - { offsetInCU: 0x3C6B2, offset: 0x3C6B2, size: 0x8, addend: 0x0, symName: __ZN11marketEventD0Ev, symObjAddr: 0xA85C, symBinAddr: 0x10000BEC4, symSize: 0x30 }
  - { offsetInCU: 0x3C6DE, offset: 0x3C6DE, size: 0x8, addend: 0x0, symName: __ZN5eventD0Ev, symObjAddr: 0xA88C, symBinAddr: 0x10000BEF4, symSize: 0x30 }
  - { offsetInCU: 0x3C708, offset: 0x3C708, size: 0x8, addend: 0x0, symName: __ZN11marketEventD2Ev, symObjAddr: 0xA8BC, symBinAddr: 0x10000BF24, symSize: 0x2C }
  - { offsetInCU: 0x3C734, offset: 0x3C734, size: 0x8, addend: 0x0, symName: __ZNSt3__16vectorINS_12basic_stringIcNS_11char_traitsIcEENS_9allocatorIcEEEENS4_IS6_EEEaSB8ue170006ERKS8_, symObjAddr: 0xA8E8, symBinAddr: 0x10000BF50, symSize: 0x68 }
  - { offsetInCU: 0x3C76B, offset: 0x3C76B, size: 0x8, addend: 0x0, symName: __ZNSt3__16vectorINS_12basic_stringIcNS_11char_traitsIcEENS_9allocatorIcEEEENS4_IS6_EEE19__copy_assign_allocB8ue170006ERKS8_, symObjAddr: 0xA950, symBinAddr: 0x10000BFB8, symSize: 0x2C }
  - { offsetInCU: 0x3C7A0, offset: 0x3C7A0, size: 0x8, addend: 0x0, symName: __ZNSt3__16vectorINS_12basic_stringIcNS_11char_traitsIcEENS_9allocatorIcEEEENS4_IS6_EEE6assignIPS6_Li0EEEvT_SB_, symObjAddr: 0xA97C, symBinAddr: 0x10000BFE4, symSize: 0x5C }
  - { offsetInCU: 0x3C7F5, offset: 0x3C7F5, size: 0x8, addend: 0x0, symName: __ZNSt3__16vectorINS_12basic_stringIcNS_11char_traitsIcEENS_9allocatorIcEEEENS4_IS6_EEE19__copy_assign_allocB8ue170006ERKS8_NS_17integral_constantIbLb0EEE, symObjAddr: 0xA9D8, symBinAddr: 0x10000C040, symSize: 0x14 }
  - { offsetInCU: 0x3C831, offset: 0x3C831, size: 0x8, addend: 0x0, symName: __ZNSt3__16vectorINS_12basic_stringIcNS_11char_traitsIcEENS_9allocatorIcEEEENS4_IS6_EEE18__assign_with_sizeB8ue170006IPS6_SA_EEvT_T0_l, symObjAddr: 0xA9EC, symBinAddr: 0x10000C054, symSize: 0x164 }
  - { offsetInCU: 0x3C8E1, offset: 0x3C8E1, size: 0x8, addend: 0x0, symName: __ZNKSt3__16vectorINS_12basic_stringIcNS_11char_traitsIcEENS_9allocatorIcEEEENS4_IS6_EEE8capacityB8ue170006Ev, symObjAddr: 0xAB7C, symBinAddr: 0x10000C1E4, symSize: 0x40 }
  - { offsetInCU: 0x3C907, offset: 0x3C907, size: 0x8, addend: 0x0, symName: __ZNKSt3__16vectorINS_12basic_stringIcNS_11char_traitsIcEENS_9allocatorIcEEEENS4_IS6_EEE4sizeB8ue170006Ev, symObjAddr: 0xABBC, symBinAddr: 0x10000C224, symSize: 0x28 }
  - { offsetInCU: 0x3C92D, offset: 0x3C92D, size: 0x8, addend: 0x0, symName: __ZNSt3__16vectorINS_12basic_stringIcNS_11char_traitsIcEENS_9allocatorIcEEEENS4_IS6_EEE18__construct_at_endIPS6_SA_EEvT_T0_m, symObjAddr: 0xAC58, symBinAddr: 0x10000C2C0, symSize: 0x8C }
  - { offsetInCU: 0x3C9A3, offset: 0x3C9A3, size: 0x8, addend: 0x0, symName: __ZNSt3__16vectorINS_12basic_stringIcNS_11char_traitsIcEENS_9allocatorIcEEEENS4_IS6_EEE17__destruct_at_endB8ue170006EPS6_, symObjAddr: 0xAD28, symBinAddr: 0x10000C390, symSize: 0x4C }
  - { offsetInCU: 0x3C9E7, offset: 0x3C9E7, size: 0x8, addend: 0x0, symName: __ZNSt3__16vectorINS_12basic_stringIcNS_11char_traitsIcEENS_9allocatorIcEEEENS4_IS6_EEE13__vdeallocateEv, symObjAddr: 0xAD74, symBinAddr: 0x10000C3DC, symSize: 0x94 }
  - { offsetInCU: 0x3CA0F, offset: 0x3CA0F, size: 0x8, addend: 0x0, symName: __ZNSt3__16vectorINS_12basic_stringIcNS_11char_traitsIcEENS_9allocatorIcEEEENS4_IS6_EEE11__vallocateB8ue170006Em, symObjAddr: 0xAE08, symBinAddr: 0x10000C470, symSize: 0xB4 }
  - { offsetInCU: 0x3CA53, offset: 0x3CA53, size: 0x8, addend: 0x0, symName: __ZNKSt3__16vectorINS_12basic_stringIcNS_11char_traitsIcEENS_9allocatorIcEEEENS4_IS6_EEE11__recommendB8ue170006Em, symObjAddr: 0xAEBC, symBinAddr: 0x10000C524, symSize: 0xB4 }
  - { offsetInCU: 0x3CAA8, offset: 0x3CAA8, size: 0x8, addend: 0x0, symName: __ZNKSt3__16vectorINS_12basic_stringIcNS_11char_traitsIcEENS_9allocatorIcEEEENS4_IS6_EEE9__end_capB8ue170006Ev, symObjAddr: 0xAF70, symBinAddr: 0x10000C5D8, symSize: 0x28 }
  - { offsetInCU: 0x3CACE, offset: 0x3CACE, size: 0x8, addend: 0x0, symName: __ZNKSt3__117__compressed_pairIPNS_12basic_stringIcNS_11char_traitsIcEENS_9allocatorIcEEEENS4_IS6_EEE5firstB8ue170006Ev, symObjAddr: 0xAF98, symBinAddr: 0x10000C600, symSize: 0x24 }
  - { offsetInCU: 0x3CAF4, offset: 0x3CAF4, size: 0x8, addend: 0x0, symName: __ZNKSt3__122__compressed_pair_elemIPNS_12basic_stringIcNS_11char_traitsIcEENS_9allocatorIcEEEELi0ELb0EE5__getB8ue170006Ev, symObjAddr: 0xAFBC, symBinAddr: 0x10000C624, symSize: 0x14 }
  - { offsetInCU: 0x3CB36, offset: 0x3CB36, size: 0x8, addend: 0x0, symName: __ZNSt3__16vectorINS_12basic_stringIcNS_11char_traitsIcEENS_9allocatorIcEEEENS4_IS6_EEE21_ConstructTransactionC1B8ue170006ERS8_m, symObjAddr: 0xB038, symBinAddr: 0x10000C6A0, symSize: 0x3C }
  - { offsetInCU: 0x3CB7E, offset: 0x3CB7E, size: 0x8, addend: 0x0, symName: __ZNSt3__16vectorINS_12basic_stringIcNS_11char_traitsIcEENS_9allocatorIcEEEENS4_IS6_EEE7__allocB8ue170006Ev, symObjAddr: 0xB0F4, symBinAddr: 0x10000C75C, symSize: 0x28 }
  - { offsetInCU: 0x3CBA4, offset: 0x3CBA4, size: 0x8, addend: 0x0, symName: __ZNSt3__16vectorINS_12basic_stringIcNS_11char_traitsIcEENS_9allocatorIcEEEENS4_IS6_EEE21_ConstructTransactionD1B8ue170006Ev, symObjAddr: 0xB11C, symBinAddr: 0x10000C784, symSize: 0x2C }
  - { offsetInCU: 0x3CBCE, offset: 0x3CBCE, size: 0x8, addend: 0x0, symName: __ZNSt3__16vectorINS_12basic_stringIcNS_11char_traitsIcEENS_9allocatorIcEEEENS4_IS6_EEE21_ConstructTransactionC2B8ue170006ERS8_m, symObjAddr: 0xB148, symBinAddr: 0x10000C7B0, symSize: 0x4C }
  - { offsetInCU: 0x3CC39, offset: 0x3CC39, size: 0x8, addend: 0x0, symName: __ZNSt3__14pairIPNS_12basic_stringIcNS_11char_traitsIcEENS_9allocatorIcEEEES7_EC1B8ue170006IS7_S7_LPv0EEEOT_OT0_, symObjAddr: 0xB380, symBinAddr: 0x10000C9E8, symSize: 0x3C }
  - { offsetInCU: 0x3CC97, offset: 0x3CC97, size: 0x8, addend: 0x0, symName: __ZNSt3__14pairIPNS_12basic_stringIcNS_11char_traitsIcEENS_9allocatorIcEEEES7_EC2B8ue170006IS7_S7_LPv0EEEOT_OT0_, symObjAddr: 0xB3BC, symBinAddr: 0x10000CA24, symSize: 0x34 }
  - { offsetInCU: 0x3CCF5, offset: 0x3CCF5, size: 0x8, addend: 0x0, symName: __ZNSt3__129_AllocatorDestroyRangeReverseINS_9allocatorINS_12basic_stringIcNS_11char_traitsIcEENS1_IcEEEEEEPS6_EC1B8ue170006ERS7_RS8_SB_, symObjAddr: 0xB43C, symBinAddr: 0x10000CAA4, symSize: 0x44 }
  - { offsetInCU: 0x3CD4C, offset: 0x3CD4C, size: 0x8, addend: 0x0, symName: __ZNSt3__116allocator_traitsINS_9allocatorINS_12basic_stringIcNS_11char_traitsIcEENS1_IcEEEEEEE9constructB8ue170006IS6_JRS6_EvEEvRS7_PT_DpOT0_, symObjAddr: 0xB480, symBinAddr: 0x10000CAE8, symSize: 0x34 }
  - { offsetInCU: 0x3CDA3, offset: 0x3CDA3, size: 0x8, addend: 0x0, symName: __ZNSt3__128__exception_guard_exceptionsINS_29_AllocatorDestroyRangeReverseINS_9allocatorINS_12basic_stringIcNS_11char_traitsIcEENS2_IcEEEEEEPS7_EEE10__completeB8ue170006Ev, symObjAddr: 0xB4C8, symBinAddr: 0x10000CB30, symSize: 0x1C }
  - { offsetInCU: 0x3CDC9, offset: 0x3CDC9, size: 0x8, addend: 0x0, symName: __ZNSt3__128__exception_guard_exceptionsINS_29_AllocatorDestroyRangeReverseINS_9allocatorINS_12basic_stringIcNS_11char_traitsIcEENS2_IcEEEEEEPS7_EEED1B8ue170006Ev, symObjAddr: 0xB4E4, symBinAddr: 0x10000CB4C, symSize: 0x2C }
  - { offsetInCU: 0x3CDF3, offset: 0x3CDF3, size: 0x8, addend: 0x0, symName: __ZNSt3__128__exception_guard_exceptionsINS_29_AllocatorDestroyRangeReverseINS_9allocatorINS_12basic_stringIcNS_11char_traitsIcEENS2_IcEEEEEEPS7_EEEC1B8ue170006ESA_, symObjAddr: 0xB510, symBinAddr: 0x10000CB78, symSize: 0x34 }
  - { offsetInCU: 0x3CE2C, offset: 0x3CE2C, size: 0x8, addend: 0x0, symName: __ZNSt3__128__exception_guard_exceptionsINS_29_AllocatorDestroyRangeReverseINS_9allocatorINS_12basic_stringIcNS_11char_traitsIcEENS2_IcEEEEEEPS7_EEEC2B8ue170006ESA_, symObjAddr: 0xB544, symBinAddr: 0x10000CBAC, symSize: 0x30 }
  - { offsetInCU: 0x3CE65, offset: 0x3CE65, size: 0x8, addend: 0x0, symName: __ZNSt3__129_AllocatorDestroyRangeReverseINS_9allocatorINS_12basic_stringIcNS_11char_traitsIcEENS1_IcEEEEEEPS6_EC2B8ue170006ERS7_RS8_SB_, symObjAddr: 0xB574, symBinAddr: 0x10000CBDC, symSize: 0x38 }
  - { offsetInCU: 0x3CEBC, offset: 0x3CEBC, size: 0x8, addend: 0x0, symName: __ZNSt3__19allocatorINS_12basic_stringIcNS_11char_traitsIcEENS0_IcEEEEE9constructB8ue170006IS5_JRS5_EEEvPT_DpOT0_, symObjAddr: 0xB5AC, symBinAddr: 0x10000CC14, symSize: 0x30 }
  - { offsetInCU: 0x3CF12, offset: 0x3CF12, size: 0x8, addend: 0x0, symName: __ZNSt3__128__exception_guard_exceptionsINS_29_AllocatorDestroyRangeReverseINS_9allocatorINS_12basic_stringIcNS_11char_traitsIcEENS2_IcEEEEEEPS7_EEED2B8ue170006Ev, symObjAddr: 0xB5DC, symBinAddr: 0x10000CC44, symSize: 0x50 }
  - { offsetInCU: 0x3CF3C, offset: 0x3CF3C, size: 0x8, addend: 0x0, symName: __ZNKSt3__129_AllocatorDestroyRangeReverseINS_9allocatorINS_12basic_stringIcNS_11char_traitsIcEENS1_IcEEEEEEPS6_EclB8ue170006Ev, symObjAddr: 0xB62C, symBinAddr: 0x10000CC94, symSize: 0x68 }
  - { offsetInCU: 0x3CF62, offset: 0x3CF62, size: 0x8, addend: 0x0, symName: __ZNSt3__116reverse_iteratorIPNS_12basic_stringIcNS_11char_traitsIcEENS_9allocatorIcEEEEEC1B8ue170006ES7_, symObjAddr: 0xB704, symBinAddr: 0x10000CD6C, symSize: 0x34 }
  - { offsetInCU: 0x3CF9A, offset: 0x3CF9A, size: 0x8, addend: 0x0, symName: __ZNSt3__116allocator_traitsINS_9allocatorINS_12basic_stringIcNS_11char_traitsIcEENS1_IcEEEEEEE7destroyB8ue170006IS6_vEEvRS7_PT_, symObjAddr: 0xB780, symBinAddr: 0x10000CDE8, symSize: 0x2C }
  - { offsetInCU: 0x3CFD7, offset: 0x3CFD7, size: 0x8, addend: 0x0, symName: __ZNSt3__116reverse_iteratorIPNS_12basic_stringIcNS_11char_traitsIcEENS_9allocatorIcEEEEEppB8ue170006Ev, symObjAddr: 0xB7D0, symBinAddr: 0x10000CE38, symSize: 0x20 }
  - { offsetInCU: 0x3CFFD, offset: 0x3CFFD, size: 0x8, addend: 0x0, symName: __ZNKSt3__116reverse_iteratorIPNS_12basic_stringIcNS_11char_traitsIcEENS_9allocatorIcEEEEE4baseB8ue170006Ev, symObjAddr: 0xB7F0, symBinAddr: 0x10000CE58, symSize: 0x18 }
  - { offsetInCU: 0x3D023, offset: 0x3D023, size: 0x8, addend: 0x0, symName: __ZNSt3__19allocatorINS_12basic_stringIcNS_11char_traitsIcEENS0_IcEEEEE7destroyB8ue170006EPS5_, symObjAddr: 0xB808, symBinAddr: 0x10000CE70, symSize: 0x28 }
  - { offsetInCU: 0x3D05D, offset: 0x3D05D, size: 0x8, addend: 0x0, symName: __ZNSt3__119__to_address_helperINS_16reverse_iteratorIPNS_12basic_stringIcNS_11char_traitsIcEENS_9allocatorIcEEEEEEvE6__callB8ue170006ERKS9_, symObjAddr: 0xB830, symBinAddr: 0x10000CE98, symSize: 0x38 }
  - { offsetInCU: 0x3D080, offset: 0x3D080, size: 0x8, addend: 0x0, symName: __ZNKSt3__116reverse_iteratorIPNS_12basic_stringIcNS_11char_traitsIcEENS_9allocatorIcEEEEEptB8ue170006Ev, symObjAddr: 0xB868, symBinAddr: 0x10000CED0, symSize: 0x24 }
  - { offsetInCU: 0x3D0A6, offset: 0x3D0A6, size: 0x8, addend: 0x0, symName: __ZNKSt3__116reverse_iteratorIPNS_12basic_stringIcNS_11char_traitsIcEENS_9allocatorIcEEEEEdeB8ue170006Ev, symObjAddr: 0xB88C, symBinAddr: 0x10000CEF4, symSize: 0x28 }
  - { offsetInCU: 0x3D0DA, offset: 0x3D0DA, size: 0x8, addend: 0x0, symName: __ZNSt3__116reverse_iteratorIPNS_12basic_stringIcNS_11char_traitsIcEENS_9allocatorIcEEEEEC2B8ue170006ES7_, symObjAddr: 0xB8B4, symBinAddr: 0x10000CF1C, symSize: 0x28 }
  - { offsetInCU: 0x3D112, offset: 0x3D112, size: 0x8, addend: 0x0, symName: __ZNSt3__118__unwrap_iter_implIPNS_12basic_stringIcNS_11char_traitsIcEENS_9allocatorIcEEEELb1EE8__unwrapB8ue170006ES7_, symObjAddr: 0xB8DC, symBinAddr: 0x10000CF44, symSize: 0x24 }
  - { offsetInCU: 0x3D135, offset: 0x3D135, size: 0x8, addend: 0x0, symName: __ZNSt3__118__unwrap_iter_implIPNS_12basic_stringIcNS_11char_traitsIcEENS_9allocatorIcEEEELb1EE8__rewrapB8ue170006ES7_S7_, symObjAddr: 0xB900, symBinAddr: 0x10000CF68, symSize: 0x58 }
  - { offsetInCU: 0x3D166, offset: 0x3D166, size: 0x8, addend: 0x0, symName: __ZNSt3__117__compressed_pairIPNS_12basic_stringIcNS_11char_traitsIcEENS_9allocatorIcEEEENS4_IS6_EEE6secondB8ue170006Ev, symObjAddr: 0xB958, symBinAddr: 0x10000CFC0, symSize: 0x24 }
  - { offsetInCU: 0x3D18C, offset: 0x3D18C, size: 0x8, addend: 0x0, symName: __ZNSt3__122__compressed_pair_elemINS_9allocatorINS_12basic_stringIcNS_11char_traitsIcEENS1_IcEEEEEELi1ELb1EE5__getB8ue170006Ev, symObjAddr: 0xB97C, symBinAddr: 0x10000CFE4, symSize: 0x14 }
  - { offsetInCU: 0x3D1B2, offset: 0x3D1B2, size: 0x8, addend: 0x0, symName: __ZNSt3__16vectorINS_12basic_stringIcNS_11char_traitsIcEENS_9allocatorIcEEEENS4_IS6_EEE21_ConstructTransactionD2B8ue170006Ev, symObjAddr: 0xB990, symBinAddr: 0x10000CFF8, symSize: 0x20 }
  - { offsetInCU: 0x3D1E7, offset: 0x3D1E7, size: 0x8, addend: 0x0, symName: __ZNKSt3__111__copy_loopINS_17_ClassicAlgPolicyEEclB8ue170006IPNS_12basic_stringIcNS_11char_traitsIcEENS_9allocatorIcEEEESA_SA_EENS_4pairIT_T1_EESC_T0_SD_, symObjAddr: 0xBAA8, symBinAddr: 0x10000D110, symSize: 0x88 }
  - { offsetInCU: 0x3D252, offset: 0x3D252, size: 0x8, addend: 0x0, symName: __ZNSt3__16vectorINS_12basic_stringIcNS_11char_traitsIcEENS_9allocatorIcEEEENS4_IS6_EEE22__base_destruct_at_endB8ue170006EPS6_, symObjAddr: 0xBB5C, symBinAddr: 0x10000D1C4, symSize: 0x8C }
  - { offsetInCU: 0x3D296, offset: 0x3D296, size: 0x8, addend: 0x0, symName: __ZNKSt3__16vectorINS_12basic_stringIcNS_11char_traitsIcEENS_9allocatorIcEEEENS4_IS6_EEE17__annotate_shrinkB8ue170006Em, symObjAddr: 0xBBE8, symBinAddr: 0x10000D250, symSize: 0xD0 }
  - { offsetInCU: 0x3D2CB, offset: 0x3D2CB, size: 0x8, addend: 0x0, symName: __ZNKSt3__16vectorINS_12basic_stringIcNS_11char_traitsIcEENS_9allocatorIcEEEENS4_IS6_EEE31__annotate_contiguous_containerB8ue170006EPKvSA_SA_SA_, symObjAddr: 0xBCB8, symBinAddr: 0x10000D320, symSize: 0x20 }
  - { offsetInCU: 0x3D31D, offset: 0x3D31D, size: 0x8, addend: 0x0, symName: __ZNKSt3__16vectorINS_12basic_stringIcNS_11char_traitsIcEENS_9allocatorIcEEEENS4_IS6_EEE4dataB8ue170006Ev, symObjAddr: 0xBCD8, symBinAddr: 0x10000D340, symSize: 0x28 }
  - { offsetInCU: 0x3D343, offset: 0x3D343, size: 0x8, addend: 0x0, symName: __ZNSt3__16vectorINS_12basic_stringIcNS_11char_traitsIcEENS_9allocatorIcEEEENS4_IS6_EEE5clearB8ue170006Ev, symObjAddr: 0xBD00, symBinAddr: 0x10000D368, symSize: 0x44 }
  - { offsetInCU: 0x3D378, offset: 0x3D378, size: 0x8, addend: 0x0, symName: __ZNKSt3__16vectorINS_12basic_stringIcNS_11char_traitsIcEENS_9allocatorIcEEEENS4_IS6_EEE17__annotate_deleteB8ue170006Ev, symObjAddr: 0xBD44, symBinAddr: 0x10000D3AC, symSize: 0xD4 }
  - { offsetInCU: 0x3D39E, offset: 0x3D39E, size: 0x8, addend: 0x0, symName: __ZNSt3__116allocator_traitsINS_9allocatorINS_12basic_stringIcNS_11char_traitsIcEENS1_IcEEEEEEE10deallocateB8ue170006ERS7_PS6_m, symObjAddr: 0xBE18, symBinAddr: 0x10000D480, symSize: 0x34 }
  - { offsetInCU: 0x3D3E0, offset: 0x3D3E0, size: 0x8, addend: 0x0, symName: __ZNSt3__16vectorINS_12basic_stringIcNS_11char_traitsIcEENS_9allocatorIcEEEENS4_IS6_EEE9__end_capB8ue170006Ev, symObjAddr: 0xBE4C, symBinAddr: 0x10000D4B4, symSize: 0x28 }
  - { offsetInCU: 0x3D406, offset: 0x3D406, size: 0x8, addend: 0x0, symName: __ZNSt3__16vectorINS_12basic_stringIcNS_11char_traitsIcEENS_9allocatorIcEEEENS4_IS6_EEE7__clearB8ue170006Ev, symObjAddr: 0xBE74, symBinAddr: 0x10000D4DC, symSize: 0x28 }
  - { offsetInCU: 0x3D42C, offset: 0x3D42C, size: 0x8, addend: 0x0, symName: __ZNSt3__19allocatorINS_12basic_stringIcNS_11char_traitsIcEENS0_IcEEEEE10deallocateB8ue170006EPS5_m, symObjAddr: 0xBE9C, symBinAddr: 0x10000D504, symSize: 0x44 }
  - { offsetInCU: 0x3D46E, offset: 0x3D46E, size: 0x8, addend: 0x0, symName: __ZNSt3__117__compressed_pairIPNS_12basic_stringIcNS_11char_traitsIcEENS_9allocatorIcEEEENS4_IS6_EEE5firstB8ue170006Ev, symObjAddr: 0xBEE0, symBinAddr: 0x10000D548, symSize: 0x24 }
  - { offsetInCU: 0x3D494, offset: 0x3D494, size: 0x8, addend: 0x0, symName: __ZNSt3__122__compressed_pair_elemIPNS_12basic_stringIcNS_11char_traitsIcEENS_9allocatorIcEEEELi0ELb0EE5__getB8ue170006Ev, symObjAddr: 0xBF04, symBinAddr: 0x10000D56C, symSize: 0x14 }
  - { offsetInCU: 0x3D4BA, offset: 0x3D4BA, size: 0x8, addend: 0x0, symName: __ZNKSt3__16vectorINS_12basic_stringIcNS_11char_traitsIcEENS_9allocatorIcEEEENS4_IS6_EEE8max_sizeEv, symObjAddr: 0xBF18, symBinAddr: 0x10000D580, symSize: 0x60 }
  - { offsetInCU: 0x3D4E2, offset: 0x3D4E2, size: 0x8, addend: 0x0, symName: __ZNKSt3__16vectorINS_12basic_stringIcNS_11char_traitsIcEENS_9allocatorIcEEEENS4_IS6_EEE20__throw_length_errorB8ue170006Ev, symObjAddr: 0xBF78, symBinAddr: 0x10000D5E0, symSize: 0x1C }
  - { offsetInCU: 0x3D508, offset: 0x3D508, size: 0x8, addend: 0x0, symName: __ZNKSt3__16vectorINS_12basic_stringIcNS_11char_traitsIcEENS_9allocatorIcEEEENS4_IS6_EEE14__annotate_newB8ue170006Em, symObjAddr: 0xBFD4, symBinAddr: 0x10000D63C, symSize: 0xC8 }
  - { offsetInCU: 0x3D548, offset: 0x3D548, size: 0x8, addend: 0x0, symName: __ZNSt3__116allocator_traitsINS_9allocatorINS_12basic_stringIcNS_11char_traitsIcEENS1_IcEEEEEEE8max_sizeB8ue170006IS7_vEEmRKS7_, symObjAddr: 0xC09C, symBinAddr: 0x10000D704, symSize: 0x24 }
  - { offsetInCU: 0x3D576, offset: 0x3D576, size: 0x8, addend: 0x0, symName: __ZNKSt3__16vectorINS_12basic_stringIcNS_11char_traitsIcEENS_9allocatorIcEEEENS4_IS6_EEE7__allocB8ue170006Ev, symObjAddr: 0xC0C0, symBinAddr: 0x10000D728, symSize: 0x28 }
  - { offsetInCU: 0x3D59C, offset: 0x3D59C, size: 0x8, addend: 0x0, symName: __ZNSt3__114numeric_limitsIlE3maxB8ue170006Ev, symObjAddr: 0xC0E8, symBinAddr: 0x10000D750, symSize: 0x14 }
  - { offsetInCU: 0x3D5B0, offset: 0x3D5B0, size: 0x8, addend: 0x0, symName: __ZNKSt3__19allocatorINS_12basic_stringIcNS_11char_traitsIcEENS0_IcEEEEE8max_sizeB8ue170006Ev, symObjAddr: 0xC0FC, symBinAddr: 0x10000D764, symSize: 0x18 }
  - { offsetInCU: 0x3D5D6, offset: 0x3D5D6, size: 0x8, addend: 0x0, symName: __ZNKSt3__117__compressed_pairIPNS_12basic_stringIcNS_11char_traitsIcEENS_9allocatorIcEEEENS4_IS6_EEE6secondB8ue170006Ev, symObjAddr: 0xC114, symBinAddr: 0x10000D77C, symSize: 0x24 }
  - { offsetInCU: 0x3D5FC, offset: 0x3D5FC, size: 0x8, addend: 0x0, symName: __ZNKSt3__122__compressed_pair_elemINS_9allocatorINS_12basic_stringIcNS_11char_traitsIcEENS1_IcEEEEEELi1ELb1EE5__getB8ue170006Ev, symObjAddr: 0xC138, symBinAddr: 0x10000D7A0, symSize: 0x14 }
  - { offsetInCU: 0x3D622, offset: 0x3D622, size: 0x8, addend: 0x0, symName: __ZNSt3__123__libcpp_numeric_limitsIlLb1EE3maxB8ue170006Ev, symObjAddr: 0xC14C, symBinAddr: 0x10000D7B4, symSize: 0x8 }
  - { offsetInCU: 0x3D636, offset: 0x3D636, size: 0x8, addend: 0x0, symName: __ZNSt12length_errorC1B8ue170006EPKc, symObjAddr: 0xC1B8, symBinAddr: 0x10000D820, symSize: 0x34 }
  - { offsetInCU: 0x3D66E, offset: 0x3D66E, size: 0x8, addend: 0x0, symName: __ZNSt12length_errorC2B8ue170006EPKc, symObjAddr: 0xC1EC, symBinAddr: 0x10000D854, symSize: 0x4C }
  - { offsetInCU: 0x3D6A6, offset: 0x3D6A6, size: 0x8, addend: 0x0, symName: __ZNSt3__19allocatorINS_12basic_stringIcNS_11char_traitsIcEENS0_IcEEEEE8allocateB8ue170006Em, symObjAddr: 0xC238, symBinAddr: 0x10000D8A0, symSize: 0x5C }
  - { offsetInCU: 0x3D6DA, offset: 0x3D6DA, size: 0x8, addend: 0x0, symName: __ZN11signalEventC2ENSt3__112basic_stringIcNS0_11char_traitsIcEENS0_9allocatorIcEEEElS6_lS6_, symObjAddr: 0xC33C, symBinAddr: 0x10000D9A4, symSize: 0x134 }
  - { offsetInCU: 0x3D74D, offset: 0x3D74D, size: 0x8, addend: 0x0, symName: __ZN11signalEventD0Ev, symObjAddr: 0xC470, symBinAddr: 0x10000DAD8, symSize: 0x30 }
  - { offsetInCU: 0x3D779, offset: 0x3D779, size: 0x8, addend: 0x0, symName: __ZNKSt3__16chrono8durationIxNS_5ratioILl1ELl1000000EEEE5countB8ue170006Ev, symObjAddr: 0xC4EC, symBinAddr: 0x10000DB54, symSize: 0x18 }
  - { offsetInCU: 0x3D7B0, offset: 0x3D7B0, size: 0x8, addend: 0x0, symName: __ZNSt3__16chrono8durationIxNS_5ratioILl1ELl1EEEEC1B8ue170006IxEERKT_PNS_9enable_ifIXaasr14is_convertibleIS8_xEE5valueooL_ZNS_17integral_constantIbLb0EE5valueEEntsr23treat_as_floating_pointIS6_EE5valueEvE4typeE, symObjAddr: 0xC504, symBinAddr: 0x10000DB6C, symSize: 0x3C }
  - { offsetInCU: 0x3D7FC, offset: 0x3D7FC, size: 0x8, addend: 0x0, symName: __ZNSt3__16chrono8durationIxNS_5ratioILl1ELl1EEEEC2B8ue170006IxEERKT_PNS_9enable_ifIXaasr14is_convertibleIS8_xEE5valueooL_ZNS_17integral_constantIbLb0EE5valueEEntsr23treat_as_floating_pointIS6_EE5valueEvE4typeE, symObjAddr: 0xC540, symBinAddr: 0x10000DBA8, symSize: 0x28 }
  - { offsetInCU: 0x3D848, offset: 0x3D848, size: 0x8, addend: 0x0, symName: __ZN9fillEventC2ENSt3__112basic_stringIcNS0_11char_traitsIcEENS0_9allocatorIcEEEEfS6_iS6_ff, symObjAddr: 0xC568, symBinAddr: 0x10000DBD0, symSize: 0x158 }
  - { offsetInCU: 0x3D8D7, offset: 0x3D8D7, size: 0x8, addend: 0x0, symName: __ZN9fillEventD0Ev, symObjAddr: 0xC6C0, symBinAddr: 0x10000DD28, symSize: 0x30 }
  - { offsetInCU: 0x3D903, offset: 0x3D903, size: 0x8, addend: 0x0, symName: __ZN19historicDataHandlerC2ERNSt3__15dequeIP5eventNS0_9allocatorIS3_EEEEllPNS0_6vectorINS0_12basic_stringIcNS0_11char_traitsIcEENS4_IcEEEENS4_ISD_EEEESD_, symObjAddr: 0xC6F0, symBinAddr: 0x10000DD58, symSize: 0x12C }
  - { offsetInCU: 0x3D974, offset: 0x3D974, size: 0x8, addend: 0x0, symName: __ZN11dataHandlerC2EPNSt3__16vectorINS0_12basic_stringIcNS0_11char_traitsIcEENS0_9allocatorIcEEEENS5_IS7_EEEE, symObjAddr: 0xC81C, symBinAddr: 0x10000DE84, symSize: 0x4C }
  - { offsetInCU: 0x3D9AC, offset: 0x3D9AC, size: 0x8, addend: 0x0, symName: __ZNSt3__13mapINS_12basic_stringIcNS_11char_traitsIcEENS_9allocatorIcEEEENS0_IlNS0_IS6_dNS_4lessIS6_EENS4_INS_4pairIKS6_dEEEEEENS7_IlEENS4_INS9_IKlSD_EEEEEES8_NS4_INS9_ISA_SI_EEEEEC1B8ue170006Ev, symObjAddr: 0xC868, symBinAddr: 0x10000DED0, symSize: 0x2C }
  - { offsetInCU: 0x3D9D6, offset: 0x3D9D6, size: 0x8, addend: 0x0, symName: __ZNSt3__13mapINS_12basic_stringIcNS_11char_traitsIcEENS_9allocatorIcEEEEiNS_4lessIS6_EENS4_INS_4pairIKS6_iEEEEEC1B8ue170006Ev, symObjAddr: 0xC894, symBinAddr: 0x10000DEFC, symSize: 0x2C }
  - { offsetInCU: 0x3DA00, offset: 0x3DA00, size: 0x8, addend: 0x0, symName: __ZNSt3__16vectorIlNS_9allocatorIlEEEC1B8ue170006Ev, symObjAddr: 0xC8C0, symBinAddr: 0x10000DF28, symSize: 0x2C }
  - { offsetInCU: 0x3DA2A, offset: 0x3DA2A, size: 0x8, addend: 0x0, symName: __ZN19historicDataHandler21_pull_process_symbolsEv, symObjAddr: 0xC8EC, symBinAddr: 0x10000DF54, symSize: 0x280 }
  - { offsetInCU: 0x3DAF1, offset: 0x3DAF1, size: 0x8, addend: 0x0, symName: __ZNSt3__16vectorIlNS_9allocatorIlEEED1B8ue170006Ev, symObjAddr: 0xCB6C, symBinAddr: 0x10000E1D4, symSize: 0x2C }
  - { offsetInCU: 0x3DB1B, offset: 0x3DB1B, size: 0x8, addend: 0x0, symName: __ZNSt3__13mapINS_12basic_stringIcNS_11char_traitsIcEENS_9allocatorIcEEEEiNS_4lessIS6_EENS4_INS_4pairIKS6_iEEEEED1B8ue170006Ev, symObjAddr: 0xCB98, symBinAddr: 0x10000E200, symSize: 0x2C }
  - { offsetInCU: 0x3DB45, offset: 0x3DB45, size: 0x8, addend: 0x0, symName: __ZNSt3__13mapINS_12basic_stringIcNS_11char_traitsIcEENS_9allocatorIcEEEENS0_IlNS0_IS6_dNS_4lessIS6_EENS4_INS_4pairIKS6_dEEEEEENS7_IlEENS4_INS9_IKlSD_EEEEEES8_NS4_INS9_ISA_SI_EEEEED1B8ue170006Ev, symObjAddr: 0xCBC4, symBinAddr: 0x10000E22C, symSize: 0x2C }
  - { offsetInCU: 0x3DB6F, offset: 0x3DB6F, size: 0x8, addend: 0x0, symName: __ZN11dataHandlerD2Ev, symObjAddr: 0xCBF0, symBinAddr: 0x10000E258, symSize: 0x40 }
  - { offsetInCU: 0x3DB99, offset: 0x3DB99, size: 0x8, addend: 0x0, symName: __ZNSt3__13mapINS_12basic_stringIcNS_11char_traitsIcEENS_9allocatorIcEEEEPNS_6vectorI3barNS4_IS8_EEEENS_4lessIS6_EENS4_INS_4pairIKS6_SB_EEEEEC1B8ue170006Ev, symObjAddr: 0xCC30, symBinAddr: 0x10000E298, symSize: 0x2C }
  - { offsetInCU: 0x3DBC3, offset: 0x3DBC3, size: 0x8, addend: 0x0, symName: __ZN11dataHandlerD1Ev, symObjAddr: 0xCC5C, symBinAddr: 0x10000E2C4, symSize: 0x2C }
  - { offsetInCU: 0x3DBED, offset: 0x3DBED, size: 0x8, addend: 0x0, symName: __ZN11dataHandlerD0Ev, symObjAddr: 0xCC88, symBinAddr: 0x10000E2F0, symSize: 0x30 }
  - { offsetInCU: 0x3DC17, offset: 0x3DC17, size: 0x8, addend: 0x0, symName: __ZN11dataHandler15get_latest_barsENSt3__112basic_stringIcNS0_11char_traitsIcEENS0_9allocatorIcEEEEi, symObjAddr: 0xCCB8, symBinAddr: 0x10000E320, symSize: 0x18 }
  - { offsetInCU: 0x3DC5A, offset: 0x3DC5A, size: 0x8, addend: 0x0, symName: __ZN11dataHandler11update_barsEv, symObjAddr: 0xCCD0, symBinAddr: 0x10000E338, symSize: 0x10 }
  - { offsetInCU: 0x3DC80, offset: 0x3DC80, size: 0x8, addend: 0x0, symName: __ZNSt3__13mapINS_12basic_stringIcNS_11char_traitsIcEENS_9allocatorIcEEEEPNS_6vectorI3barNS4_IS8_EEEENS_4lessIS6_EENS4_INS_4pairIKS6_SB_EEEEEC2B8ue170006Ev, symObjAddr: 0xCCE0, symBinAddr: 0x10000E348, symSize: 0x40 }
  - { offsetInCU: 0x3DCAA, offset: 0x3DCAA, size: 0x8, addend: 0x0, symName: __ZNSt3__119__map_value_compareINS_12basic_stringIcNS_11char_traitsIcEENS_9allocatorIcEEEENS_12__value_typeIS6_PNS_6vectorI3barNS4_IS9_EEEEEENS_4lessIS6_EELb1EEC1B8ue170006ESF_, symObjAddr: 0xCD20, symBinAddr: 0x10000E388, symSize: 0x2C }
  - { offsetInCU: 0x3DCE3, offset: 0x3DCE3, size: 0x8, addend: 0x0, symName: __ZNSt3__16__treeINS_12__value_typeINS_12basic_stringIcNS_11char_traitsIcEENS_9allocatorIcEEEEPNS_6vectorI3barNS5_IS9_EEEEEENS_19__map_value_compareIS7_SD_NS_4lessIS7_EELb1EEENS5_ISD_EEEC1ERKSH_, symObjAddr: 0xCD4C, symBinAddr: 0x10000E3B4, symSize: 0x34 }
  - { offsetInCU: 0x3DD1E, offset: 0x3DD1E, size: 0x8, addend: 0x0, symName: __ZNSt3__119__map_value_compareINS_12basic_stringIcNS_11char_traitsIcEENS_9allocatorIcEEEENS_12__value_typeIS6_PNS_6vectorI3barNS4_IS9_EEEEEENS_4lessIS6_EELb1EEC2B8ue170006ESF_, symObjAddr: 0xCD80, symBinAddr: 0x10000E3E8, symSize: 0x14 }
  - { offsetInCU: 0x3DD57, offset: 0x3DD57, size: 0x8, addend: 0x0, symName: __ZNSt3__16__treeINS_12__value_typeINS_12basic_stringIcNS_11char_traitsIcEENS_9allocatorIcEEEEPNS_6vectorI3barNS5_IS9_EEEEEENS_19__map_value_compareIS7_SD_NS_4lessIS7_EELb1EEENS5_ISD_EEEC2ERKSH_, symObjAddr: 0xCD94, symBinAddr: 0x10000E3FC, symSize: 0x7C }
  - { offsetInCU: 0x3DD92, offset: 0x3DD92, size: 0x8, addend: 0x0, symName: __ZNSt3__117__compressed_pairINS_15__tree_end_nodeIPNS_16__tree_node_baseIPvEEEENS_9allocatorINS_11__tree_nodeINS_12__value_typeINS_12basic_stringIcNS_11char_traitsIcEENS7_IcEEEEPNS_6vectorI3barNS7_ISG_EEEEEES3_EEEEEC1B8ue170006ILb1EvEEv, symObjAddr: 0xCE10, symBinAddr: 0x10000E478, symSize: 0x2C }
  - { offsetInCU: 0x3DDC7, offset: 0x3DDC7, size: 0x8, addend: 0x0, symName: __ZNSt3__117__compressed_pairImNS_19__map_value_compareINS_12basic_stringIcNS_11char_traitsIcEENS_9allocatorIcEEEENS_12__value_typeIS7_PNS_6vectorI3barNS5_ISA_EEEEEENS_4lessIS7_EELb1EEEEC1B8ue170006IiRKSH_EEOT_OT0_, symObjAddr: 0xCE3C, symBinAddr: 0x10000E4A4, symSize: 0x3C }
  - { offsetInCU: 0x3DE1F, offset: 0x3DE1F, size: 0x8, addend: 0x0, symName: __ZNSt3__16__treeINS_12__value_typeINS_12basic_stringIcNS_11char_traitsIcEENS_9allocatorIcEEEEPNS_6vectorI3barNS5_IS9_EEEEEENS_19__map_value_compareIS7_SD_NS_4lessIS7_EELb1EEENS5_ISD_EEE10__end_nodeB8ue170006Ev, symObjAddr: 0xCE78, symBinAddr: 0x10000E4E0, symSize: 0x2C }
  - { offsetInCU: 0x3DE45, offset: 0x3DE45, size: 0x8, addend: 0x0, symName: __ZNSt3__16__treeINS_12__value_typeINS_12basic_stringIcNS_11char_traitsIcEENS_9allocatorIcEEEEPNS_6vectorI3barNS5_IS9_EEEEEENS_19__map_value_compareIS7_SD_NS_4lessIS7_EELb1EEENS5_ISD_EEE12__begin_nodeB8ue170006Ev, symObjAddr: 0xCEA4, symBinAddr: 0x10000E50C, symSize: 0x14 }
  - { offsetInCU: 0x3DE6B, offset: 0x3DE6B, size: 0x8, addend: 0x0, symName: __ZNSt3__117__compressed_pairINS_15__tree_end_nodeIPNS_16__tree_node_baseIPvEEEENS_9allocatorINS_11__tree_nodeINS_12__value_typeINS_12basic_stringIcNS_11char_traitsIcEENS7_IcEEEEPNS_6vectorI3barNS7_ISG_EEEEEES3_EEEEEC2B8ue170006ILb1EvEEv, symObjAddr: 0xCEB8, symBinAddr: 0x10000E520, symSize: 0x34 }
  - { offsetInCU: 0x3DEA0, offset: 0x3DEA0, size: 0x8, addend: 0x0, symName: __ZNSt3__122__compressed_pair_elemINS_9allocatorINS_11__tree_nodeINS_12__value_typeINS_12basic_stringIcNS_11char_traitsIcEENS1_IcEEEEPNS_6vectorI3barNS1_ISA_EEEEEEPvEEEELi1ELb1EEC2B8ue170006ENS_16__value_init_tagE, symObjAddr: 0xCEEC, symBinAddr: 0x10000E554, symSize: 0x2C }
  - { offsetInCU: 0x3DED4, offset: 0x3DED4, size: 0x8, addend: 0x0, symName: __ZNSt3__19allocatorINS_11__tree_nodeINS_12__value_typeINS_12basic_stringIcNS_11char_traitsIcEENS0_IcEEEEPNS_6vectorI3barNS0_IS9_EEEEEEPvEEEC2B8ue170006Ev, symObjAddr: 0xCF18, symBinAddr: 0x10000E580, symSize: 0x2C }
  - { offsetInCU: 0x3DEFE, offset: 0x3DEFE, size: 0x8, addend: 0x0, symName: __ZNSt3__116__non_trivial_ifILb1ENS_9allocatorINS_11__tree_nodeINS_12__value_typeINS_12basic_stringIcNS_11char_traitsIcEENS1_IcEEEEPNS_6vectorI3barNS1_ISA_EEEEEEPvEEEEEC2B8ue170006Ev, symObjAddr: 0xCF44, symBinAddr: 0x10000E5AC, symSize: 0x14 }
  - { offsetInCU: 0x3DF28, offset: 0x3DF28, size: 0x8, addend: 0x0, symName: __ZNSt3__117__compressed_pairImNS_19__map_value_compareINS_12basic_stringIcNS_11char_traitsIcEENS_9allocatorIcEEEENS_12__value_typeIS7_PNS_6vectorI3barNS5_ISA_EEEEEENS_4lessIS7_EELb1EEEEC2B8ue170006IiRKSH_EEOT_OT0_, symObjAddr: 0xCF58, symBinAddr: 0x10000E5C0, symSize: 0x44 }
  - { offsetInCU: 0x3DF80, offset: 0x3DF80, size: 0x8, addend: 0x0, symName: __ZNSt3__122__compressed_pair_elemINS_19__map_value_compareINS_12basic_stringIcNS_11char_traitsIcEENS_9allocatorIcEEEENS_12__value_typeIS7_PNS_6vectorI3barNS5_ISA_EEEEEENS_4lessIS7_EELb1EEELi1ELb1EEC2B8ue170006IRKSH_vEEOT_, symObjAddr: 0xCF9C, symBinAddr: 0x10000E604, symSize: 0x18 }
  - { offsetInCU: 0x3DFC2, offset: 0x3DFC2, size: 0x8, addend: 0x0, symName: __ZNSt3__117__compressed_pairINS_15__tree_end_nodeIPNS_16__tree_node_baseIPvEEEENS_9allocatorINS_11__tree_nodeINS_12__value_typeINS_12basic_stringIcNS_11char_traitsIcEENS7_IcEEEEPNS_6vectorI3barNS7_ISG_EEEEEES3_EEEEE5firstB8ue170006Ev, symObjAddr: 0xCFB4, symBinAddr: 0x10000E61C, symSize: 0x24 }
  - { offsetInCU: 0x3DFE8, offset: 0x3DFE8, size: 0x8, addend: 0x0, symName: __ZNSt3__13mapINS_12basic_stringIcNS_11char_traitsIcEENS_9allocatorIcEEEENS0_IlNS0_IS6_dNS_4lessIS6_EENS4_INS_4pairIKS6_dEEEEEENS7_IlEENS4_INS9_IKlSD_EEEEEES8_NS4_INS9_ISA_SI_EEEEEC2B8ue170006Ev, symObjAddr: 0xCFD8, symBinAddr: 0x10000E640, symSize: 0x40 }
  - { offsetInCU: 0x3E012, offset: 0x3E012, size: 0x8, addend: 0x0, symName: __ZNSt3__119__map_value_compareINS_12basic_stringIcNS_11char_traitsIcEENS_9allocatorIcEEEENS_12__value_typeIS6_NS_3mapIlNS8_IS6_dNS_4lessIS6_EENS4_INS_4pairIKS6_dEEEEEENS9_IlEENS4_INSB_IKlSF_EEEEEEEESA_Lb1EEC1B8ue170006ESA_, symObjAddr: 0xD018, symBinAddr: 0x10000E680, symSize: 0x2C }
  - { offsetInCU: 0x3E04B, offset: 0x3E04B, size: 0x8, addend: 0x0, symName: __ZNSt3__16__treeINS_12__value_typeINS_12basic_stringIcNS_11char_traitsIcEENS_9allocatorIcEEEENS_3mapIlNS8_IS7_dNS_4lessIS7_EENS5_INS_4pairIKS7_dEEEEEENS9_IlEENS5_INSB_IKlSF_EEEEEEEENS_19__map_value_compareIS7_SL_SA_Lb1EEENS5_ISL_EEEC1ERKSN_, symObjAddr: 0xD044, symBinAddr: 0x10000E6AC, symSize: 0x34 }
  - { offsetInCU: 0x3E086, offset: 0x3E086, size: 0x8, addend: 0x0, symName: __ZNSt3__119__map_value_compareINS_12basic_stringIcNS_11char_traitsIcEENS_9allocatorIcEEEENS_12__value_typeIS6_NS_3mapIlNS8_IS6_dNS_4lessIS6_EENS4_INS_4pairIKS6_dEEEEEENS9_IlEENS4_INSB_IKlSF_EEEEEEEESA_Lb1EEC2B8ue170006ESA_, symObjAddr: 0xD078, symBinAddr: 0x10000E6E0, symSize: 0x14 }
  - { offsetInCU: 0x3E0BF, offset: 0x3E0BF, size: 0x8, addend: 0x0, symName: __ZNSt3__16__treeINS_12__value_typeINS_12basic_stringIcNS_11char_traitsIcEENS_9allocatorIcEEEENS_3mapIlNS8_IS7_dNS_4lessIS7_EENS5_INS_4pairIKS7_dEEEEEENS9_IlEENS5_INSB_IKlSF_EEEEEEEENS_19__map_value_compareIS7_SL_SA_Lb1EEENS5_ISL_EEEC2ERKSN_, symObjAddr: 0xD08C, symBinAddr: 0x10000E6F4, symSize: 0x7C }
  - { offsetInCU: 0x3E0FA, offset: 0x3E0FA, size: 0x8, addend: 0x0, symName: __ZNSt3__117__compressed_pairINS_15__tree_end_nodeIPNS_16__tree_node_baseIPvEEEENS_9allocatorINS_11__tree_nodeINS_12__value_typeINS_12basic_stringIcNS_11char_traitsIcEENS7_IcEEEENS_3mapIlNSF_ISE_dNS_4lessISE_EENS7_INS_4pairIKSE_dEEEEEENSG_IlEENS7_INSI_IKlSM_EEEEEEEES3_EEEEEC1B8ue170006ILb1EvEEv, symObjAddr: 0xD108, symBinAddr: 0x10000E770, symSize: 0x2C }
  - { offsetInCU: 0x3E12F, offset: 0x3E12F, size: 0x8, addend: 0x0, symName: __ZNSt3__117__compressed_pairImNS_19__map_value_compareINS_12basic_stringIcNS_11char_traitsIcEENS_9allocatorIcEEEENS_12__value_typeIS7_NS_3mapIlNS9_IS7_dNS_4lessIS7_EENS5_INS_4pairIKS7_dEEEEEENSA_IlEENS5_INSC_IKlSG_EEEEEEEESB_Lb1EEEEC1B8ue170006IiRKSN_EEOT_OT0_, symObjAddr: 0xD134, symBinAddr: 0x10000E79C, symSize: 0x3C }
  - { offsetInCU: 0x3E187, offset: 0x3E187, size: 0x8, addend: 0x0, symName: __ZNSt3__117__compressed_pairINS_15__tree_end_nodeIPNS_16__tree_node_baseIPvEEEENS_9allocatorINS_11__tree_nodeINS_12__value_typeINS_12basic_stringIcNS_11char_traitsIcEENS7_IcEEEENS_3mapIlNSF_ISE_dNS_4lessISE_EENS7_INS_4pairIKSE_dEEEEEENSG_IlEENS7_INSI_IKlSM_EEEEEEEES3_EEEEEC2B8ue170006ILb1EvEEv, symObjAddr: 0xD170, symBinAddr: 0x10000E7D8, symSize: 0x34 }
  - { offsetInCU: 0x3E1BC, offset: 0x3E1BC, size: 0x8, addend: 0x0, symName: __ZNSt3__122__compressed_pair_elemINS_9allocatorINS_11__tree_nodeINS_12__value_typeINS_12basic_stringIcNS_11char_traitsIcEENS1_IcEEEENS_3mapIlNS9_IS8_dNS_4lessIS8_EENS1_INS_4pairIKS8_dEEEEEENSA_IlEENS1_INSC_IKlSG_EEEEEEEEPvEEEELi1ELb1EEC2B8ue170006ENS_16__value_init_tagE, symObjAddr: 0xD1A4, symBinAddr: 0x10000E80C, symSize: 0x2C }
  - { offsetInCU: 0x3E1F0, offset: 0x3E1F0, size: 0x8, addend: 0x0, symName: __ZNSt3__19allocatorINS_11__tree_nodeINS_12__value_typeINS_12basic_stringIcNS_11char_traitsIcEENS0_IcEEEENS_3mapIlNS8_IS7_dNS_4lessIS7_EENS0_INS_4pairIKS7_dEEEEEENS9_IlEENS0_INSB_IKlSF_EEEEEEEEPvEEEC2B8ue170006Ev, symObjAddr: 0xD1D0, symBinAddr: 0x10000E838, symSize: 0x2C }
  - { offsetInCU: 0x3E21A, offset: 0x3E21A, size: 0x8, addend: 0x0, symName: __ZNSt3__116__non_trivial_ifILb1ENS_9allocatorINS_11__tree_nodeINS_12__value_typeINS_12basic_stringIcNS_11char_traitsIcEENS1_IcEEEENS_3mapIlNS9_IS8_dNS_4lessIS8_EENS1_INS_4pairIKS8_dEEEEEENSA_IlEENS1_INSC_IKlSG_EEEEEEEEPvEEEEEC2B8ue170006Ev, symObjAddr: 0xD1FC, symBinAddr: 0x10000E864, symSize: 0x14 }
  - { offsetInCU: 0x3E244, offset: 0x3E244, size: 0x8, addend: 0x0, symName: __ZNSt3__117__compressed_pairImNS_19__map_value_compareINS_12basic_stringIcNS_11char_traitsIcEENS_9allocatorIcEEEENS_12__value_typeIS7_NS_3mapIlNS9_IS7_dNS_4lessIS7_EENS5_INS_4pairIKS7_dEEEEEENSA_IlEENS5_INSC_IKlSG_EEEEEEEESB_Lb1EEEEC2B8ue170006IiRKSN_EEOT_OT0_, symObjAddr: 0xD210, symBinAddr: 0x10000E878, symSize: 0x44 }
  - { offsetInCU: 0x3E29C, offset: 0x3E29C, size: 0x8, addend: 0x0, symName: __ZNSt3__122__compressed_pair_elemINS_19__map_value_compareINS_12basic_stringIcNS_11char_traitsIcEENS_9allocatorIcEEEENS_12__value_typeIS7_NS_3mapIlNS9_IS7_dNS_4lessIS7_EENS5_INS_4pairIKS7_dEEEEEENSA_IlEENS5_INSC_IKlSG_EEEEEEEESB_Lb1EEELi1ELb1EEC2B8ue170006IRKSN_vEEOT_, symObjAddr: 0xD254, symBinAddr: 0x10000E8BC, symSize: 0x18 }
  - { offsetInCU: 0x3E2DE, offset: 0x3E2DE, size: 0x8, addend: 0x0, symName: __ZNSt3__13mapINS_12basic_stringIcNS_11char_traitsIcEENS_9allocatorIcEEEEiNS_4lessIS6_EENS4_INS_4pairIKS6_iEEEEEC2B8ue170006Ev, symObjAddr: 0xD26C, symBinAddr: 0x10000E8D4, symSize: 0x40 }
  - { offsetInCU: 0x3E308, offset: 0x3E308, size: 0x8, addend: 0x0, symName: __ZNSt3__119__map_value_compareINS_12basic_stringIcNS_11char_traitsIcEENS_9allocatorIcEEEENS_12__value_typeIS6_iEENS_4lessIS6_EELb1EEC1B8ue170006ESA_, symObjAddr: 0xD2AC, symBinAddr: 0x10000E914, symSize: 0x2C }
  - { offsetInCU: 0x3E341, offset: 0x3E341, size: 0x8, addend: 0x0, symName: __ZNSt3__16__treeINS_12__value_typeINS_12basic_stringIcNS_11char_traitsIcEENS_9allocatorIcEEEEiEENS_19__map_value_compareIS7_S8_NS_4lessIS7_EELb1EEENS5_IS8_EEEC1ERKSC_, symObjAddr: 0xD2D8, symBinAddr: 0x10000E940, symSize: 0x34 }
  - { offsetInCU: 0x3E37C, offset: 0x3E37C, size: 0x8, addend: 0x0, symName: __ZNSt3__119__map_value_compareINS_12basic_stringIcNS_11char_traitsIcEENS_9allocatorIcEEEENS_12__value_typeIS6_iEENS_4lessIS6_EELb1EEC2B8ue170006ESA_, symObjAddr: 0xD30C, symBinAddr: 0x10000E974, symSize: 0x14 }
  - { offsetInCU: 0x3E3B5, offset: 0x3E3B5, size: 0x8, addend: 0x0, symName: __ZNSt3__16__treeINS_12__value_typeINS_12basic_stringIcNS_11char_traitsIcEENS_9allocatorIcEEEEiEENS_19__map_value_compareIS7_S8_NS_4lessIS7_EELb1EEENS5_IS8_EEEC2ERKSC_, symObjAddr: 0xD320, symBinAddr: 0x10000E988, symSize: 0x7C }
  - { offsetInCU: 0x3E3F0, offset: 0x3E3F0, size: 0x8, addend: 0x0, symName: __ZNSt3__117__compressed_pairINS_15__tree_end_nodeIPNS_16__tree_node_baseIPvEEEENS_9allocatorINS_11__tree_nodeINS_12__value_typeINS_12basic_stringIcNS_11char_traitsIcEENS7_IcEEEEiEES3_EEEEEC1B8ue170006ILb1EvEEv, symObjAddr: 0xD39C, symBinAddr: 0x10000EA04, symSize: 0x2C }
  - { offsetInCU: 0x3E425, offset: 0x3E425, size: 0x8, addend: 0x0, symName: __ZNSt3__117__compressed_pairImNS_19__map_value_compareINS_12basic_stringIcNS_11char_traitsIcEENS_9allocatorIcEEEENS_12__value_typeIS7_iEENS_4lessIS7_EELb1EEEEC1B8ue170006IiRKSC_EEOT_OT0_, symObjAddr: 0xD3C8, symBinAddr: 0x10000EA30, symSize: 0x3C }
  - { offsetInCU: 0x3E47D, offset: 0x3E47D, size: 0x8, addend: 0x0, symName: __ZNSt3__117__compressed_pairINS_15__tree_end_nodeIPNS_16__tree_node_baseIPvEEEENS_9allocatorINS_11__tree_nodeINS_12__value_typeINS_12basic_stringIcNS_11char_traitsIcEENS7_IcEEEEiEES3_EEEEEC2B8ue170006ILb1EvEEv, symObjAddr: 0xD404, symBinAddr: 0x10000EA6C, symSize: 0x34 }
  - { offsetInCU: 0x3E4B2, offset: 0x3E4B2, size: 0x8, addend: 0x0, symName: __ZNSt3__122__compressed_pair_elemINS_9allocatorINS_11__tree_nodeINS_12__value_typeINS_12basic_stringIcNS_11char_traitsIcEENS1_IcEEEEiEEPvEEEELi1ELb1EEC2B8ue170006ENS_16__value_init_tagE, symObjAddr: 0xD438, symBinAddr: 0x10000EAA0, symSize: 0x2C }
  - { offsetInCU: 0x3E4E6, offset: 0x3E4E6, size: 0x8, addend: 0x0, symName: __ZNSt3__19allocatorINS_11__tree_nodeINS_12__value_typeINS_12basic_stringIcNS_11char_traitsIcEENS0_IcEEEEiEEPvEEEC2B8ue170006Ev, symObjAddr: 0xD464, symBinAddr: 0x10000EACC, symSize: 0x2C }
  - { offsetInCU: 0x3E510, offset: 0x3E510, size: 0x8, addend: 0x0, symName: __ZNSt3__116__non_trivial_ifILb1ENS_9allocatorINS_11__tree_nodeINS_12__value_typeINS_12basic_stringIcNS_11char_traitsIcEENS1_IcEEEEiEEPvEEEEEC2B8ue170006Ev, symObjAddr: 0xD490, symBinAddr: 0x10000EAF8, symSize: 0x14 }
  - { offsetInCU: 0x3E53A, offset: 0x3E53A, size: 0x8, addend: 0x0, symName: __ZNSt3__117__compressed_pairImNS_19__map_value_compareINS_12basic_stringIcNS_11char_traitsIcEENS_9allocatorIcEEEENS_12__value_typeIS7_iEENS_4lessIS7_EELb1EEEEC2B8ue170006IiRKSC_EEOT_OT0_, symObjAddr: 0xD4A4, symBinAddr: 0x10000EB0C, symSize: 0x44 }
  - { offsetInCU: 0x3E592, offset: 0x3E592, size: 0x8, addend: 0x0, symName: __ZNSt3__122__compressed_pair_elemINS_19__map_value_compareINS_12basic_stringIcNS_11char_traitsIcEENS_9allocatorIcEEEENS_12__value_typeIS7_iEENS_4lessIS7_EELb1EEELi1ELb1EEC2B8ue170006IRKSC_vEEOT_, symObjAddr: 0xD4E8, symBinAddr: 0x10000EB50, symSize: 0x18 }
  - { offsetInCU: 0x3E5D4, offset: 0x3E5D4, size: 0x8, addend: 0x0, symName: __ZNSt3__16vectorIlNS_9allocatorIlEEEC2B8ue170006Ev, symObjAddr: 0xD500, symBinAddr: 0x10000EB68, symSize: 0x4C }
  - { offsetInCU: 0x3E604, offset: 0x3E604, size: 0x8, addend: 0x0, symName: __ZNSt3__117__compressed_pairIPlNS_9allocatorIlEEEC1B8ue170006IDnNS_18__default_init_tagEEEOT_OT0_, symObjAddr: 0xD54C, symBinAddr: 0x10000EBB4, symSize: 0x3C }
  - { offsetInCU: 0x3E65C, offset: 0x3E65C, size: 0x8, addend: 0x0, symName: __ZNSt3__117__compressed_pairIPlNS_9allocatorIlEEEC2B8ue170006IDnNS_18__default_init_tagEEEOT_OT0_, symObjAddr: 0xD588, symBinAddr: 0x10000EBF0, symSize: 0x40 }
  - { offsetInCU: 0x3E6B4, offset: 0x3E6B4, size: 0x8, addend: 0x0, symName: __ZNSt3__122__compressed_pair_elemIPlLi0ELb0EEC2B8ue170006IDnvEEOT_, symObjAddr: 0xD5C8, symBinAddr: 0x10000EC30, symSize: 0x1C }
  - { offsetInCU: 0x3E6F6, offset: 0x3E6F6, size: 0x8, addend: 0x0, symName: __ZNSt3__122__compressed_pair_elemINS_9allocatorIlEELi1ELb1EEC2B8ue170006ENS_18__default_init_tagE, symObjAddr: 0xD5E4, symBinAddr: 0x10000EC4C, symSize: 0x2C }
  - { offsetInCU: 0x3E72A, offset: 0x3E72A, size: 0x8, addend: 0x0, symName: __ZNSt3__19allocatorIlEC2B8ue170006Ev, symObjAddr: 0xD610, symBinAddr: 0x10000EC78, symSize: 0x2C }
  - { offsetInCU: 0x3E754, offset: 0x3E754, size: 0x8, addend: 0x0, symName: __ZNSt3__116__non_trivial_ifILb1ENS_9allocatorIlEEEC2B8ue170006Ev, symObjAddr: 0xD63C, symBinAddr: 0x10000ECA4, symSize: 0x14 }
  - { offsetInCU: 0x3E77E, offset: 0x3E77E, size: 0x8, addend: 0x0, symName: __ZN6reader30_pull_process_symbols_from_csvENSt3__112basic_stringIcNS0_11char_traitsIcEENS0_9allocatorIcEEEEPNS0_6vectorIS6_NS4_IS6_EEEE, symObjAddr: 0xD650, symBinAddr: 0x10000ECB8, symSize: 0x7EC }
  - { offsetInCU: 0x3E953, offset: 0x3E953, size: 0x8, addend: 0x0, symName: __ZNSt3__13mapINS_12basic_stringIcNS_11char_traitsIcEENS_9allocatorIcEEEENS0_IlNS0_IS6_dNS_4lessIS6_EENS4_INS_4pairIKS6_dEEEEEENS7_IlEENS4_INS9_IKlSD_EEEEEES8_NS4_INS9_ISA_SI_EEEEEaSB8ue170006EOSL_, symObjAddr: 0xDE3C, symBinAddr: 0x10000F4A4, symSize: 0x34 }
  - { offsetInCU: 0x3E988, offset: 0x3E988, size: 0x8, addend: 0x0, symName: __ZNSt3__16vectorINS_12basic_stringIcNS_11char_traitsIcEENS_9allocatorIcEEEENS4_IS6_EEEixB8ue170006Em, symObjAddr: 0xDE70, symBinAddr: 0x10000F4D8, symSize: 0x2C }
  - { offsetInCU: 0x3E9BF, offset: 0x3E9BF, size: 0x8, addend: 0x0, symName: __ZNSt3__13mapIlNS0_INS_12basic_stringIcNS_11char_traitsIcEENS_9allocatorIcEEEEdNS_4lessIS6_EENS4_INS_4pairIKS6_dEEEEEENS7_IlEENS4_INS9_IKlSD_EEEEE5beginB8ue170006Ev, symObjAddr: 0xDE9C, symBinAddr: 0x10000F504, symSize: 0x38 }
  - { offsetInCU: 0x3E9E5, offset: 0x3E9E5, size: 0x8, addend: 0x0, symName: __ZNSt3__13mapIlNS0_INS_12basic_stringIcNS_11char_traitsIcEENS_9allocatorIcEEEEdNS_4lessIS6_EENS4_INS_4pairIKS6_dEEEEEENS7_IlEENS4_INS9_IKlSD_EEEEE3endB8ue170006Ev, symObjAddr: 0xDED4, symBinAddr: 0x10000F53C, symSize: 0x38 }
  - { offsetInCU: 0x3EA0B, offset: 0x3EA0B, size: 0x8, addend: 0x0, symName: __ZNKSt3__114__map_iteratorINS_15__tree_iteratorINS_12__value_typeIlNS_3mapINS_12basic_stringIcNS_11char_traitsIcEENS_9allocatorIcEEEEdNS_4lessIS9_EENS7_INS_4pairIKS9_dEEEEEEEEPNS_11__tree_nodeISH_PvEElEEEdeB8ue170006Ev, symObjAddr: 0xDF3C, symBinAddr: 0x10000F5A4, symSize: 0x28 }
  - { offsetInCU: 0x3EA31, offset: 0x3EA31, size: 0x8, addend: 0x0, symName: __ZNSt3__16vectorIlNS_9allocatorIlEEE9push_backB8ue170006ERKl, symObjAddr: 0xDF64, symBinAddr: 0x10000F5CC, symSize: 0x6C }
  - { offsetInCU: 0x3EA68, offset: 0x3EA68, size: 0x8, addend: 0x0, symName: __ZNSt3__114__map_iteratorINS_15__tree_iteratorINS_12__value_typeIlNS_3mapINS_12basic_stringIcNS_11char_traitsIcEENS_9allocatorIcEEEEdNS_4lessIS9_EENS7_INS_4pairIKS9_dEEEEEEEEPNS_11__tree_nodeISH_PvEElEEEppB8ue170006Ev, symObjAddr: 0xDFD0, symBinAddr: 0x10000F638, symSize: 0x2C }
  - { offsetInCU: 0x3EB3F, offset: 0x3EB3F, size: 0x8, addend: 0x0, symName: __ZNSt3__114basic_ifstreamIcNS_11char_traitsIcEEEC1ERKNS_12basic_stringIcS2_NS_9allocatorIcEEEEj, symObjAddr: 0xDFFC, symBinAddr: 0x10000F664, symSize: 0x16C }
  - { offsetInCU: 0x3EB89, offset: 0x3EB89, size: 0x8, addend: 0x0, symName: __ZNKSt3__19basic_iosIcNS_11char_traitsIcEEEcvbB8ue170006Ev, symObjAddr: 0xE1C4, symBinAddr: 0x10000F82C, symSize: 0x2C }
  - { offsetInCU: 0x3EBAF, offset: 0x3EBAF, size: 0x8, addend: 0x0, symName: __ZNSt3__112basic_stringIcNS_11char_traitsIcEENS_9allocatorIcEEE5beginB8ue170006Ev, symObjAddr: 0xE284, symBinAddr: 0x10000F8EC, symSize: 0x4C }
  - { offsetInCU: 0x3EBD5, offset: 0x3EBD5, size: 0x8, addend: 0x0, symName: __ZNSt3__112basic_stringIcNS_11char_traitsIcEENS_9allocatorIcEEE3endB8ue170006Ev, symObjAddr: 0xE2D0, symBinAddr: 0x10000F938, symSize: 0x54 }
  - { offsetInCU: 0x3EC35, offset: 0x3EC35, size: 0x8, addend: 0x0, symName: __ZNSt3__118basic_stringstreamIcNS_11char_traitsIcEENS_9allocatorIcEEEC1B8ue170006ERKNS_12basic_stringIcS2_S4_EEj, symObjAddr: 0xE324, symBinAddr: 0x10000F98C, symSize: 0x110 }
  - { offsetInCU: 0x3EC83, offset: 0x3EC83, size: 0x8, addend: 0x0, symName: __ZNSt3__118basic_stringstreamIcNS_11char_traitsIcEENS_9allocatorIcEEED1Ev, symObjAddr: 0xE74C, symBinAddr: 0x10000FDB4, symSize: 0x40 }
  - { offsetInCU: 0x3ECB6, offset: 0x3ECB6, size: 0x8, addend: 0x0, symName: __ZNSt3__114basic_ifstreamIcNS_11char_traitsIcEEED1Ev, symObjAddr: 0xE78C, symBinAddr: 0x10000FDF4, symSize: 0x40 }
  - { offsetInCU: 0x3ECE3, offset: 0x3ECE3, size: 0x8, addend: 0x0, symName: __ZNSt3__19basic_iosIcNS_11char_traitsIcEEEC2B8ue170006Ev, symObjAddr: 0xE7CC, symBinAddr: 0x10000FE34, symSize: 0x44 }
  - { offsetInCU: 0x3ED0D, offset: 0x3ED0D, size: 0x8, addend: 0x0, symName: __ZNSt3__113basic_istreamIcNS_11char_traitsIcEEEC2B8ue170006EPNS_15basic_streambufIcS2_EE, symObjAddr: 0xE810, symBinAddr: 0x10000FE78, symSize: 0x64 }
  - { offsetInCU: 0x3ED52, offset: 0x3ED52, size: 0x8, addend: 0x0, symName: __ZNSt3__113basic_filebufIcNS_11char_traitsIcEEE4openERKNS_12basic_stringIcS2_NS_9allocatorIcEEEEj, symObjAddr: 0xE874, symBinAddr: 0x10000FEDC, symSize: 0x44 }
  - { offsetInCU: 0x3ED96, offset: 0x3ED96, size: 0x8, addend: 0x0, symName: __ZNSt3__19basic_iosIcNS_11char_traitsIcEEE8setstateB8ue170006Ej, symObjAddr: 0xE8B8, symBinAddr: 0x10000FF20, symSize: 0x2C }
  - { offsetInCU: 0x3EDCB, offset: 0x3EDCB, size: 0x8, addend: 0x0, symName: __ZNSt3__18ios_baseC2B8ue170006Ev, symObjAddr: 0xE8E4, symBinAddr: 0x10000FF4C, symSize: 0x24 }
  - { offsetInCU: 0x3EDF5, offset: 0x3EDF5, size: 0x8, addend: 0x0, symName: __ZNSt3__19basic_iosIcNS_11char_traitsIcEEE4initB8ue170006EPNS_15basic_streambufIcS2_EE, symObjAddr: 0xE908, symBinAddr: 0x10000FF70, symSize: 0x44 }
  - { offsetInCU: 0x3EE2C, offset: 0x3EE2C, size: 0x8, addend: 0x0, symName: __ZNSt3__111char_traitsIcE3eofB8ue170006Ev, symObjAddr: 0xE94C, symBinAddr: 0x10000FFB4, symSize: 0x8 }
  - { offsetInCU: 0x3EE40, offset: 0x3EE40, size: 0x8, addend: 0x0, symName: __ZNKSt3__112basic_stringIcNS_11char_traitsIcEENS_9allocatorIcEEE5c_strB8ue170006Ev, symObjAddr: 0xE954, symBinAddr: 0x10000FFBC, symSize: 0x24 }
  - { offsetInCU: 0x3EE66, offset: 0x3EE66, size: 0x8, addend: 0x0, symName: __ZNSt3__18ios_base8setstateB8ue170006Ej, symObjAddr: 0xE978, symBinAddr: 0x10000FFE0, symSize: 0x34 }
  - { offsetInCU: 0x3EE9D, offset: 0x3EE9D, size: 0x8, addend: 0x0, symName: __ZNKSt3__19basic_iosIcNS_11char_traitsIcEEE5widenB8ue170006Ec, symObjAddr: 0xEBE4, symBinAddr: 0x10001024C, symSize: 0x84 }
  - { offsetInCU: 0x3EEF7, offset: 0x3EEF7, size: 0x8, addend: 0x0, symName: __ZNKSt3__113basic_istreamIcNS_11char_traitsIcEEE6sentrycvbB8ue170006Ev, symObjAddr: 0xEC68, symBinAddr: 0x1000102D0, symSize: 0x1C }
  - { offsetInCU: 0x3EF1D, offset: 0x3EF1D, size: 0x8, addend: 0x0, symName: __ZNSt3__112basic_stringIcNS_11char_traitsIcEENS_9allocatorIcEEE5clearB8ue170006Ev, symObjAddr: 0xEC84, symBinAddr: 0x1000102EC, symSize: 0x78 }
  - { offsetInCU: 0x3EF45, offset: 0x3EF45, size: 0x8, addend: 0x0, symName: __ZNKSt3__19basic_iosIcNS_11char_traitsIcEEE5rdbufB8ue170006Ev, symObjAddr: 0xECFC, symBinAddr: 0x100010364, symSize: 0x24 }
  - { offsetInCU: 0x3EF6D, offset: 0x3EF6D, size: 0x8, addend: 0x0, symName: __ZNSt3__115basic_streambufIcNS_11char_traitsIcEEE6sbumpcB8ue170006Ev, symObjAddr: 0xED20, symBinAddr: 0x100010388, symSize: 0x78 }
  - { offsetInCU: 0x3EF93, offset: 0x3EF93, size: 0x8, addend: 0x0, symName: __ZNSt3__111char_traitsIcE11eq_int_typeB8ue170006Eii, symObjAddr: 0xED98, symBinAddr: 0x100010400, symSize: 0x28 }
  - { offsetInCU: 0x3EFC6, offset: 0x3EFC6, size: 0x8, addend: 0x0, symName: __ZNSt3__111char_traitsIcE12to_char_typeB8ue170006Ei, symObjAddr: 0xEDC0, symBinAddr: 0x100010428, symSize: 0x18 }
  - { offsetInCU: 0x3EFE9, offset: 0x3EFE9, size: 0x8, addend: 0x0, symName: __ZNSt3__111char_traitsIcE2eqEcc, symObjAddr: 0xEDD8, symBinAddr: 0x100010440, symSize: 0x28 }
  - { offsetInCU: 0x3F01A, offset: 0x3F01A, size: 0x8, addend: 0x0, symName: __ZNKSt3__112basic_stringIcNS_11char_traitsIcEENS_9allocatorIcEEE8max_sizeB8ue170006Ev, symObjAddr: 0xEE00, symBinAddr: 0x100010468, symSize: 0xAC }
  - { offsetInCU: 0x3F06C, offset: 0x3F06C, size: 0x8, addend: 0x0, symName: __ZNSt3__18ios_base18__setstate_nothrowB8ue170006Ej, symObjAddr: 0xEEAC, symBinAddr: 0x100010514, symSize: 0x64 }
  - { offsetInCU: 0x3F0A1, offset: 0x3F0A1, size: 0x8, addend: 0x0, symName: __ZNKSt3__19basic_iosIcNS_11char_traitsIcEEE10exceptionsB8ue170006Ev, symObjAddr: 0xEF10, symBinAddr: 0x100010578, symSize: 0x24 }
  - { offsetInCU: 0x3F0C7, offset: 0x3F0C7, size: 0x8, addend: 0x0, symName: __ZNSt3__111char_traitsIcE6assignB8ue170006ERcRKc, symObjAddr: 0xEF34, symBinAddr: 0x10001059C, symSize: 0x24 }
  - { offsetInCU: 0x3F0F8, offset: 0x3F0F8, size: 0x8, addend: 0x0, symName: __ZNSt3__112basic_stringIcNS_11char_traitsIcEENS_9allocatorIcEEE18__get_long_pointerB8ue170006Ev, symObjAddr: 0xEF58, symBinAddr: 0x1000105C0, symSize: 0x28 }
  - { offsetInCU: 0x3F11E, offset: 0x3F11E, size: 0x8, addend: 0x0, symName: __ZNSt3__112basic_stringIcNS_11char_traitsIcEENS_9allocatorIcEEE15__set_long_sizeB8ue170006Em, symObjAddr: 0xEF80, symBinAddr: 0x1000105E8, symSize: 0x38 }
  - { offsetInCU: 0x3F153, offset: 0x3F153, size: 0x8, addend: 0x0, symName: __ZNSt3__112basic_stringIcNS_11char_traitsIcEENS_9allocatorIcEEE19__get_short_pointerB8ue170006Ev, symObjAddr: 0xEFB8, symBinAddr: 0x100010620, symSize: 0x28 }
  - { offsetInCU: 0x3F179, offset: 0x3F179, size: 0x8, addend: 0x0, symName: __ZNSt3__112basic_stringIcNS_11char_traitsIcEENS_9allocatorIcEEE16__set_short_sizeB8ue170006Em, symObjAddr: 0xEFE0, symBinAddr: 0x100010648, symSize: 0x78 }
  - { offsetInCU: 0x3F1AE, offset: 0x3F1AE, size: 0x8, addend: 0x0, symName: __ZNSt3__117__compressed_pairINS_12basic_stringIcNS_11char_traitsIcEENS_9allocatorIcEEE5__repES5_E5firstB8ue170006Ev, symObjAddr: 0xF058, symBinAddr: 0x1000106C0, symSize: 0x24 }
  - { offsetInCU: 0x3F1D4, offset: 0x3F1D4, size: 0x8, addend: 0x0, symName: __ZNSt3__122__compressed_pair_elemINS_12basic_stringIcNS_11char_traitsIcEENS_9allocatorIcEEE5__repELi0ELb0EE5__getB8ue170006Ev, symObjAddr: 0xF07C, symBinAddr: 0x1000106E4, symSize: 0x14 }
  - { offsetInCU: 0x3F1FA, offset: 0x3F1FA, size: 0x8, addend: 0x0, symName: __ZNSt3__114pointer_traitsIPcE10pointer_toB8ue170006ERc, symObjAddr: 0xF090, symBinAddr: 0x1000106F8, symSize: 0x14 }
  - { offsetInCU: 0x3F21D, offset: 0x3F21D, size: 0x8, addend: 0x0, symName: __ZNKSt3__18ios_base5rdbufB8ue170006Ev, symObjAddr: 0xF0A4, symBinAddr: 0x10001070C, symSize: 0x18 }
  - { offsetInCU: 0x3F243, offset: 0x3F243, size: 0x8, addend: 0x0, symName: __ZNSt3__111char_traitsIcE11to_int_typeB8ue170006Ec, symObjAddr: 0xF0BC, symBinAddr: 0x100010724, symSize: 0x14 }
  - { offsetInCU: 0x3F272, offset: 0x3F272, size: 0x8, addend: 0x0, symName: __ZNSt3__116allocator_traitsINS_9allocatorIcEEE8max_sizeB8ue170006IS2_vEEmRKS2_, symObjAddr: 0xF0D0, symBinAddr: 0x100010738, symSize: 0x24 }
  - { offsetInCU: 0x3F2A0, offset: 0x3F2A0, size: 0x8, addend: 0x0, symName: __ZNKSt3__112basic_stringIcNS_11char_traitsIcEENS_9allocatorIcEEE7__allocB8ue170006Ev, symObjAddr: 0xF0F4, symBinAddr: 0x10001075C, symSize: 0x24 }
  - { offsetInCU: 0x3F2C6, offset: 0x3F2C6, size: 0x8, addend: 0x0, symName: __ZNSt3__114numeric_limitsImE3maxB8ue170006Ev, symObjAddr: 0xF118, symBinAddr: 0x100010780, symSize: 0x14 }
  - { offsetInCU: 0x3F2DA, offset: 0x3F2DA, size: 0x8, addend: 0x0, symName: __ZNKSt3__19allocatorIcE8max_sizeB8ue170006Ev, symObjAddr: 0xF12C, symBinAddr: 0x100010794, symSize: 0x14 }
  - { offsetInCU: 0x3F300, offset: 0x3F300, size: 0x8, addend: 0x0, symName: __ZNKSt3__117__compressed_pairINS_12basic_stringIcNS_11char_traitsIcEENS_9allocatorIcEEE5__repES5_E6secondB8ue170006Ev, symObjAddr: 0xF140, symBinAddr: 0x1000107A8, symSize: 0x24 }
  - { offsetInCU: 0x3F326, offset: 0x3F326, size: 0x8, addend: 0x0, symName: __ZNKSt3__122__compressed_pair_elemINS_9allocatorIcEELi1ELb1EE5__getB8ue170006Ev, symObjAddr: 0xF164, symBinAddr: 0x1000107CC, symSize: 0x14 }
  - { offsetInCU: 0x3F34C, offset: 0x3F34C, size: 0x8, addend: 0x0, symName: __ZNSt3__123__libcpp_numeric_limitsImLb1EE3maxB8ue170006Ev, symObjAddr: 0xF178, symBinAddr: 0x1000107E0, symSize: 0x8 }
  - { offsetInCU: 0x3F360, offset: 0x3F360, size: 0x8, addend: 0x0, symName: __ZNKSt3__18ios_base10exceptionsB8ue170006Ev, symObjAddr: 0xF180, symBinAddr: 0x1000107E8, symSize: 0x18 }
  - { offsetInCU: 0x3F3B6, offset: 0x3F3B6, size: 0x8, addend: 0x0, symName: __ZNKSt3__15ctypeIcE5widenB8ue170006Ec, symObjAddr: 0xF1C4, symBinAddr: 0x10001082C, symSize: 0x38 }
  - { offsetInCU: 0x3F3EB, offset: 0x3F3EB, size: 0x8, addend: 0x0, symName: __ZNKSt3__19basic_iosIcNS_11char_traitsIcEEE4failB8ue170006Ev, symObjAddr: 0xF1FC, symBinAddr: 0x100010864, symSize: 0x28 }
  - { offsetInCU: 0x3F411, offset: 0x3F411, size: 0x8, addend: 0x0, symName: __ZNKSt3__18ios_base4failB8ue170006Ev, symObjAddr: 0xF224, symBinAddr: 0x10001088C, symSize: 0x28 }
  - { offsetInCU: 0x3F439, offset: 0x3F439, size: 0x8, addend: 0x0, symName: __ZNKSt3__111__wrap_iterIPcEdeB8ue170006Ev, symObjAddr: 0xF280, symBinAddr: 0x1000108E8, symSize: 0x18 }
  - { offsetInCU: 0x3F45F, offset: 0x3F45F, size: 0x8, addend: 0x0, symName: __ZNSt3__111__wrap_iterIPcEppB8ue170006Ev, symObjAddr: 0xF298, symBinAddr: 0x100010900, symSize: 0x20 }
  - { offsetInCU: 0x3F485, offset: 0x3F485, size: 0x8, addend: 0x0, symName: __ZNKSt3__111__wrap_iterIPcE4baseB8ue170006Ev, symObjAddr: 0xF300, symBinAddr: 0x100010968, symSize: 0x18 }
  - { offsetInCU: 0x3F4AB, offset: 0x3F4AB, size: 0x8, addend: 0x0, symName: __ZNSt3__112basic_stringIcNS_11char_traitsIcEENS_9allocatorIcEEE15__make_iteratorB8ue170006EPc, symObjAddr: 0xF318, symBinAddr: 0x100010980, symSize: 0x30 }
  - { offsetInCU: 0x3F4E0, offset: 0x3F4E0, size: 0x8, addend: 0x0, symName: __ZNSt3__112basic_stringIcNS_11char_traitsIcEENS_9allocatorIcEEE13__get_pointerB8ue170006Ev, symObjAddr: 0xF348, symBinAddr: 0x1000109B0, symSize: 0x54 }
  - { offsetInCU: 0x3F506, offset: 0x3F506, size: 0x8, addend: 0x0, symName: __ZNSt3__111__wrap_iterIPcEC1B8ue170006ES1_, symObjAddr: 0xF39C, symBinAddr: 0x100010A04, symSize: 0x34 }
  - { offsetInCU: 0x3F53E, offset: 0x3F53E, size: 0x8, addend: 0x0, symName: __ZNSt3__111__wrap_iterIPcEC2B8ue170006ES1_, symObjAddr: 0xF3D0, symBinAddr: 0x100010A38, symSize: 0x20 }
  - { offsetInCU: 0x3F576, offset: 0x3F576, size: 0x8, addend: 0x0, symName: __ZNSt3__114basic_iostreamIcNS_11char_traitsIcEEEC2B8ue170006EPNS_15basic_streambufIcS2_EE, symObjAddr: 0xF3F0, symBinAddr: 0x100010A58, symSize: 0xAC }
  - { offsetInCU: 0x3F5BC, offset: 0x3F5BC, size: 0x8, addend: 0x0, symName: __ZNSt3__115basic_stringbufIcNS_11char_traitsIcEENS_9allocatorIcEEEC1B8ue170006ERKNS_12basic_stringIcS2_S4_EEj, symObjAddr: 0xF49C, symBinAddr: 0x100010B04, symSize: 0x3C }
  - { offsetInCU: 0x3F604, offset: 0x3F604, size: 0x8, addend: 0x0, symName: __ZNSt3__113basic_ostreamIcNS_11char_traitsIcEEEC2B8ue170006Ev, symObjAddr: 0xF4D8, symBinAddr: 0x100010B40, symSize: 0x34 }
  - { offsetInCU: 0x3F63B, offset: 0x3F63B, size: 0x8, addend: 0x0, symName: __ZNSt3__115basic_stringbufIcNS_11char_traitsIcEENS_9allocatorIcEEEC2B8ue170006ERKNS_12basic_stringIcS2_S4_EEj, symObjAddr: 0xF50C, symBinAddr: 0x100010B74, symSize: 0xB4 }
  - { offsetInCU: 0x3F683, offset: 0x3F683, size: 0x8, addend: 0x0, symName: __ZNKSt3__112basic_stringIcNS_11char_traitsIcEENS_9allocatorIcEEE13get_allocatorB8ue170006Ev, symObjAddr: 0xF5C0, symBinAddr: 0x100010C28, symSize: 0x24 }
  - { offsetInCU: 0x3F6A9, offset: 0x3F6A9, size: 0x8, addend: 0x0, symName: __ZNSt3__112basic_stringIcNS_11char_traitsIcEENS_9allocatorIcEEEC1B8ue170006ERKS4_, symObjAddr: 0xF5E4, symBinAddr: 0x100010C4C, symSize: 0x34 }
  - { offsetInCU: 0x3F6E2, offset: 0x3F6E2, size: 0x8, addend: 0x0, symName: __ZNSt3__112basic_stringIcNS_11char_traitsIcEENS_9allocatorIcEEEC2B8ue170006ERKS4_, symObjAddr: 0xF618, symBinAddr: 0x100010C80, symSize: 0x4C }
  - { offsetInCU: 0x3F71B, offset: 0x3F71B, size: 0x8, addend: 0x0, symName: __ZNSt3__117__compressed_pairINS_12basic_stringIcNS_11char_traitsIcEENS_9allocatorIcEEE5__repES5_EC1B8ue170006INS_18__default_init_tagERKS5_EEOT_OT0_, symObjAddr: 0xF664, symBinAddr: 0x100010CCC, symSize: 0x3C }
  - { offsetInCU: 0x3F773, offset: 0x3F773, size: 0x8, addend: 0x0, symName: __ZNSt3__112basic_stringIcNS_11char_traitsIcEENS_9allocatorIcEEE14__default_initB8ue170006Ev, symObjAddr: 0xF6A0, symBinAddr: 0x100010D08, symSize: 0x40 }
  - { offsetInCU: 0x3F799, offset: 0x3F799, size: 0x8, addend: 0x0, symName: __ZNSt3__117__compressed_pairINS_12basic_stringIcNS_11char_traitsIcEENS_9allocatorIcEEE5__repES5_EC2B8ue170006INS_18__default_init_tagERKS5_EEOT_OT0_, symObjAddr: 0xF6E0, symBinAddr: 0x100010D48, symSize: 0x40 }
  - { offsetInCU: 0x3F7F1, offset: 0x3F7F1, size: 0x8, addend: 0x0, symName: __ZNSt3__122__compressed_pair_elemINS_12basic_stringIcNS_11char_traitsIcEENS_9allocatorIcEEE5__repELi0ELb0EEC2B8ue170006ENS_18__default_init_tagE, symObjAddr: 0xF720, symBinAddr: 0x100010D88, symSize: 0x14 }
  - { offsetInCU: 0x3F825, offset: 0x3F825, size: 0x8, addend: 0x0, symName: __ZNSt3__122__compressed_pair_elemINS_9allocatorIcEELi1ELb1EEC2B8ue170006IRKS2_vEEOT_, symObjAddr: 0xF734, symBinAddr: 0x100010D9C, symSize: 0x18 }
  - { offsetInCU: 0x3F867, offset: 0x3F867, size: 0x8, addend: 0x0, symName: __ZNKSt3__18ios_base5widthB8ue170006Ev, symObjAddr: 0xF74C, symBinAddr: 0x100010DB4, symSize: 0x18 }
  - { offsetInCU: 0x3F88F, offset: 0x3F88F, size: 0x8, addend: 0x0, symName: __ZNSt3__115basic_streambufIcNS_11char_traitsIcEEE5sgetcB8ue170006Ev, symObjAddr: 0xF764, symBinAddr: 0x100010DCC, symSize: 0x70 }
  - { offsetInCU: 0x3F8B5, offset: 0x3F8B5, size: 0x8, addend: 0x0, symName: __ZNKSt3__15ctypeIcE2isB8ue170006Ejc, symObjAddr: 0xF7D4, symBinAddr: 0x100010E3C, symSize: 0x7C }
  - { offsetInCU: 0x3F8F9, offset: 0x3F8F9, size: 0x8, addend: 0x0, symName: __ZNSt3__18ios_base5widthB8ue170006El, symObjAddr: 0xF850, symBinAddr: 0x100010EB8, symSize: 0x2C }
  - { offsetInCU: 0x3F93E, offset: 0x3F93E, size: 0x8, addend: 0x0, symName: __Z7isasciii, symObjAddr: 0xF87C, symBinAddr: 0x100010EE4, symSize: 0x24 }
  - { offsetInCU: 0x3F96B, offset: 0x3F96B, size: 0x8, addend: 0x0, symName: __ZNSt3__118basic_stringstreamIcNS_11char_traitsIcEENS_9allocatorIcEEED2Ev, symObjAddr: 0xF8A0, symBinAddr: 0x100010F08, symSize: 0x6C }
  - { offsetInCU: 0x3F9A5, offset: 0x3F9A5, size: 0x8, addend: 0x0, symName: __ZThn16_NSt3__118basic_stringstreamIcNS_11char_traitsIcEENS_9allocatorIcEEED1Ev, symObjAddr: 0xF90C, symBinAddr: 0x100010F74, symSize: 0x1C }
  - { offsetInCU: 0x3F9BC, offset: 0x3F9BC, size: 0x8, addend: 0x0, symName: __ZTv0_n24_NSt3__118basic_stringstreamIcNS_11char_traitsIcEENS_9allocatorIcEEED1Ev, symObjAddr: 0xF928, symBinAddr: 0x100010F90, symSize: 0x28 }
  - { offsetInCU: 0x3F9D9, offset: 0x3F9D9, size: 0x8, addend: 0x0, symName: __ZNSt3__115basic_stringbufIcNS_11char_traitsIcEENS_9allocatorIcEEED1Ev, symObjAddr: 0xF950, symBinAddr: 0x100010FB8, symSize: 0x2C }
  - { offsetInCU: 0x3FA06, offset: 0x3FA06, size: 0x8, addend: 0x0, symName: __ZNSt3__115basic_stringbufIcNS_11char_traitsIcEENS_9allocatorIcEEED2Ev, symObjAddr: 0xF97C, symBinAddr: 0x100010FE4, symSize: 0x48 }
  - { offsetInCU: 0x3FA33, offset: 0x3FA33, size: 0x8, addend: 0x0, symName: __ZNSt3__114basic_ifstreamIcNS_11char_traitsIcEEED2Ev, symObjAddr: 0xF9C4, symBinAddr: 0x10001102C, symSize: 0x64 }
  - { offsetInCU: 0x3FA6D, offset: 0x3FA6D, size: 0x8, addend: 0x0, symName: __ZTv0_n24_NSt3__114basic_ifstreamIcNS_11char_traitsIcEEED1Ev, symObjAddr: 0xFA28, symBinAddr: 0x100011090, symSize: 0x28 }
  - { offsetInCU: 0x3FA84, offset: 0x3FA84, size: 0x8, addend: 0x0, symName: __ZNSt3__16__treeINS_12__value_typeINS_12basic_stringIcNS_11char_traitsIcEENS_9allocatorIcEEEENS_3mapIlNS8_IS7_dNS_4lessIS7_EENS5_INS_4pairIKS7_dEEEEEENS9_IlEENS5_INSB_IKlSF_EEEEEEEENS_19__map_value_compareIS7_SL_SA_Lb1EEENS5_ISL_EEEaSEOSP_, symObjAddr: 0xFA50, symBinAddr: 0x1000110B8, symSize: 0x34 }
  - { offsetInCU: 0x3FABB, offset: 0x3FABB, size: 0x8, addend: 0x0, symName: __ZNSt3__16__treeINS_12__value_typeINS_12basic_stringIcNS_11char_traitsIcEENS_9allocatorIcEEEENS_3mapIlNS8_IS7_dNS_4lessIS7_EENS5_INS_4pairIKS7_dEEEEEENS9_IlEENS5_INSB_IKlSF_EEEEEEEENS_19__map_value_compareIS7_SL_SA_Lb1EEENS5_ISL_EEE13__move_assignERSP_NS_17integral_constantIbLb1EEE, symObjAddr: 0xFA84, symBinAddr: 0x1000110EC, symSize: 0x138 }
  - { offsetInCU: 0x3FAFD, offset: 0x3FAFD, size: 0x8, addend: 0x0, symName: __ZNSt3__16__treeINS_12__value_typeINS_12basic_stringIcNS_11char_traitsIcEENS_9allocatorIcEEEENS_3mapIlNS8_IS7_dNS_4lessIS7_EENS5_INS_4pairIKS7_dEEEEEENS9_IlEENS5_INSB_IKlSF_EEEEEEEENS_19__map_value_compareIS7_SL_SA_Lb1EEENS5_ISL_EEE7destroyEPNS_11__tree_nodeISL_PvEE, symObjAddr: 0xFBBC, symBinAddr: 0x100011224, symSize: 0xA8 }
  - { offsetInCU: 0x3FB49, offset: 0x3FB49, size: 0x8, addend: 0x0, symName: __ZNSt3__16__treeINS_12__value_typeINS_12basic_stringIcNS_11char_traitsIcEENS_9allocatorIcEEEENS_3mapIlNS8_IS7_dNS_4lessIS7_EENS5_INS_4pairIKS7_dEEEEEENS9_IlEENS5_INSB_IKlSF_EEEEEEEENS_19__map_value_compareIS7_SL_SA_Lb1EEENS5_ISL_EEE19__move_assign_allocB8ue170006ERSP_, symObjAddr: 0xFC64, symBinAddr: 0x1000112CC, symSize: 0x2C }
  - { offsetInCU: 0x3FB7E, offset: 0x3FB7E, size: 0x8, addend: 0x0, symName: __ZNSt3__16__treeINS_12__value_typeINS_12basic_stringIcNS_11char_traitsIcEENS_9allocatorIcEEEENS_3mapIlNS8_IS7_dNS_4lessIS7_EENS5_INS_4pairIKS7_dEEEEEENS9_IlEENS5_INSB_IKlSF_EEEEEEEENS_19__map_value_compareIS7_SL_SA_Lb1EEENS5_ISL_EEE19__move_assign_allocB8ue170006ERSP_NS_17integral_constantIbLb1EEE, symObjAddr: 0xFC90, symBinAddr: 0x1000112F8, symSize: 0x38 }
  - { offsetInCU: 0x3FBBE, offset: 0x3FBBE, size: 0x8, addend: 0x0, symName: __ZNSt3__16vectorIlNS_9allocatorIlEEE9__end_capB8ue170006Ev, symObjAddr: 0xFD2C, symBinAddr: 0x100011394, symSize: 0x28 }
  - { offsetInCU: 0x3FBE4, offset: 0x3FBE4, size: 0x8, addend: 0x0, symName: __ZNSt3__16vectorIlNS_9allocatorIlEEE22__construct_one_at_endB8ue170006IJRKlEEEvDpOT_, symObjAddr: 0xFD54, symBinAddr: 0x1000113BC, symSize: 0x90 }
  - { offsetInCU: 0x3FC33, offset: 0x3FC33, size: 0x8, addend: 0x0, symName: __ZNSt3__16vectorIlNS_9allocatorIlEEE21__push_back_slow_pathIRKlEEvOT_, symObjAddr: 0xFDE4, symBinAddr: 0x10001144C, symSize: 0xD8 }
  - { offsetInCU: 0x3FC91, offset: 0x3FC91, size: 0x8, addend: 0x0, symName: __ZNSt3__117__compressed_pairIPlNS_9allocatorIlEEE5firstB8ue170006Ev, symObjAddr: 0xFEBC, symBinAddr: 0x100011524, symSize: 0x24 }
  - { offsetInCU: 0x3FCB7, offset: 0x3FCB7, size: 0x8, addend: 0x0, symName: __ZNSt3__122__compressed_pair_elemIPlLi0ELb0EE5__getB8ue170006Ev, symObjAddr: 0xFEE0, symBinAddr: 0x100011548, symSize: 0x14 }
  - { offsetInCU: 0x3FCF9, offset: 0x3FCF9, size: 0x8, addend: 0x0, symName: __ZNSt3__16vectorIlNS_9allocatorIlEEE21_ConstructTransactionC1B8ue170006ERS3_m, symObjAddr: 0xFEF4, symBinAddr: 0x10001155C, symSize: 0x3C }
  - { offsetInCU: 0x3FD41, offset: 0x3FD41, size: 0x8, addend: 0x0, symName: __ZNSt3__116allocator_traitsINS_9allocatorIlEEE9constructB8ue170006IlJRKlEvEEvRS2_PT_DpOT0_, symObjAddr: 0xFF30, symBinAddr: 0x100011598, symSize: 0x34 }
  - { offsetInCU: 0x3FD98, offset: 0x3FD98, size: 0x8, addend: 0x0, symName: __ZNSt3__16vectorIlNS_9allocatorIlEEE7__allocB8ue170006Ev, symObjAddr: 0xFF64, symBinAddr: 0x1000115CC, symSize: 0x28 }
  - { offsetInCU: 0x3FDBE, offset: 0x3FDBE, size: 0x8, addend: 0x0, symName: __ZNSt3__16vectorIlNS_9allocatorIlEEE21_ConstructTransactionD1B8ue170006Ev, symObjAddr: 0xFFA0, symBinAddr: 0x100011608, symSize: 0x2C }
  - { offsetInCU: 0x3FDE8, offset: 0x3FDE8, size: 0x8, addend: 0x0, symName: __ZNSt3__16vectorIlNS_9allocatorIlEEE21_ConstructTransactionC2B8ue170006ERS3_m, symObjAddr: 0xFFCC, symBinAddr: 0x100011634, symSize: 0x44 }
  - { offsetInCU: 0x3FE30, offset: 0x3FE30, size: 0x8, addend: 0x0, symName: __ZNSt3__19allocatorIlE9constructB8ue170006IlJRKlEEEvPT_DpOT0_, symObjAddr: 0x10010, symBinAddr: 0x100011678, symSize: 0x28 }
  - { offsetInCU: 0x3FE86, offset: 0x3FE86, size: 0x8, addend: 0x0, symName: __ZNSt3__117__compressed_pairIPlNS_9allocatorIlEEE6secondB8ue170006Ev, symObjAddr: 0x10038, symBinAddr: 0x1000116A0, symSize: 0x24 }
  - { offsetInCU: 0x3FEAC, offset: 0x3FEAC, size: 0x8, addend: 0x0, symName: __ZNSt3__122__compressed_pair_elemINS_9allocatorIlEELi1ELb1EE5__getB8ue170006Ev, symObjAddr: 0x1005C, symBinAddr: 0x1000116C4, symSize: 0x14 }
  - { offsetInCU: 0x3FED2, offset: 0x3FED2, size: 0x8, addend: 0x0, symName: __ZNSt3__16vectorIlNS_9allocatorIlEEE21_ConstructTransactionD2B8ue170006Ev, symObjAddr: 0x10070, symBinAddr: 0x1000116D8, symSize: 0x20 }
  - { offsetInCU: 0x3FEFC, offset: 0x3FEFC, size: 0x8, addend: 0x0, symName: __ZNKSt3__16vectorIlNS_9allocatorIlEEE11__recommendB8ue170006Em, symObjAddr: 0x10090, symBinAddr: 0x1000116F8, symSize: 0xB4 }
  - { offsetInCU: 0x3FF51, offset: 0x3FF51, size: 0x8, addend: 0x0, symName: __ZNSt3__114__split_bufferIlRNS_9allocatorIlEEEC1EmmS3_, symObjAddr: 0x10144, symBinAddr: 0x1000117AC, symSize: 0x44 }
  - { offsetInCU: 0x3FFA7, offset: 0x3FFA7, size: 0x8, addend: 0x0, symName: __ZNSt3__114__split_bufferIlRNS_9allocatorIlEEED1Ev, symObjAddr: 0x10298, symBinAddr: 0x100011900, symSize: 0x2C }
  - { offsetInCU: 0x3FFD3, offset: 0x3FFD3, size: 0x8, addend: 0x0, symName: __ZNKSt3__16vectorIlNS_9allocatorIlEEE8max_sizeEv, symObjAddr: 0x102C4, symBinAddr: 0x10001192C, symSize: 0x60 }
  - { offsetInCU: 0x3FFFB, offset: 0x3FFFB, size: 0x8, addend: 0x0, symName: __ZNKSt3__16vectorIlNS_9allocatorIlEEE20__throw_length_errorB8ue170006Ev, symObjAddr: 0x10324, symBinAddr: 0x10001198C, symSize: 0x1C }
  - { offsetInCU: 0x40021, offset: 0x40021, size: 0x8, addend: 0x0, symName: __ZNKSt3__16vectorIlNS_9allocatorIlEEE8capacityB8ue170006Ev, symObjAddr: 0x10340, symBinAddr: 0x1000119A8, symSize: 0x40 }
  - { offsetInCU: 0x40052, offset: 0x40052, size: 0x8, addend: 0x0, symName: __ZNSt3__116allocator_traitsINS_9allocatorIlEEE8max_sizeB8ue170006IS2_vEEmRKS2_, symObjAddr: 0x10380, symBinAddr: 0x1000119E8, symSize: 0x24 }
  - { offsetInCU: 0x40080, offset: 0x40080, size: 0x8, addend: 0x0, symName: __ZNKSt3__16vectorIlNS_9allocatorIlEEE7__allocB8ue170006Ev, symObjAddr: 0x103A4, symBinAddr: 0x100011A0C, symSize: 0x28 }
  - { offsetInCU: 0x400A6, offset: 0x400A6, size: 0x8, addend: 0x0, symName: __ZNKSt3__19allocatorIlE8max_sizeB8ue170006Ev, symObjAddr: 0x103CC, symBinAddr: 0x100011A34, symSize: 0x14 }
  - { offsetInCU: 0x400CC, offset: 0x400CC, size: 0x8, addend: 0x0, symName: __ZNKSt3__117__compressed_pairIPlNS_9allocatorIlEEE6secondB8ue170006Ev, symObjAddr: 0x103E0, symBinAddr: 0x100011A48, symSize: 0x24 }
  - { offsetInCU: 0x400F2, offset: 0x400F2, size: 0x8, addend: 0x0, symName: __ZNKSt3__122__compressed_pair_elemINS_9allocatorIlEELi1ELb1EE5__getB8ue170006Ev, symObjAddr: 0x10404, symBinAddr: 0x100011A6C, symSize: 0x14 }
  - { offsetInCU: 0x40118, offset: 0x40118, size: 0x8, addend: 0x0, symName: __ZNKSt3__16vectorIlNS_9allocatorIlEEE9__end_capB8ue170006Ev, symObjAddr: 0x10418, symBinAddr: 0x100011A80, symSize: 0x28 }
  - { offsetInCU: 0x4013E, offset: 0x4013E, size: 0x8, addend: 0x0, symName: __ZNKSt3__117__compressed_pairIPlNS_9allocatorIlEEE5firstB8ue170006Ev, symObjAddr: 0x10440, symBinAddr: 0x100011AA8, symSize: 0x24 }
  - { offsetInCU: 0x40164, offset: 0x40164, size: 0x8, addend: 0x0, symName: __ZNKSt3__122__compressed_pair_elemIPlLi0ELb0EE5__getB8ue170006Ev, symObjAddr: 0x10464, symBinAddr: 0x100011ACC, symSize: 0x14 }
  - { offsetInCU: 0x4018A, offset: 0x4018A, size: 0x8, addend: 0x0, symName: __ZNSt3__114__split_bufferIlRNS_9allocatorIlEEEC2EmmS3_, symObjAddr: 0x10478, symBinAddr: 0x100011AE0, symSize: 0xD4 }
  - { offsetInCU: 0x401FD, offset: 0x401FD, size: 0x8, addend: 0x0, symName: __ZNSt3__117__compressed_pairIPlRNS_9allocatorIlEEEC1B8ue170006IDnS4_EEOT_OT0_, symObjAddr: 0x1054C, symBinAddr: 0x100011BB4, symSize: 0x3C }
  - { offsetInCU: 0x40255, offset: 0x40255, size: 0x8, addend: 0x0, symName: __ZNSt3__114__split_bufferIlRNS_9allocatorIlEEE7__allocB8ue170006Ev, symObjAddr: 0x105C8, symBinAddr: 0x100011C30, symSize: 0x28 }
  - { offsetInCU: 0x4027B, offset: 0x4027B, size: 0x8, addend: 0x0, symName: __ZNSt3__114__split_bufferIlRNS_9allocatorIlEEE9__end_capB8ue170006Ev, symObjAddr: 0x105F0, symBinAddr: 0x100011C58, symSize: 0x28 }
  - { offsetInCU: 0x402A1, offset: 0x402A1, size: 0x8, addend: 0x0, symName: __ZNSt3__117__compressed_pairIPlRNS_9allocatorIlEEEC2B8ue170006IDnS4_EEOT_OT0_, symObjAddr: 0x10618, symBinAddr: 0x100011C80, symSize: 0x48 }
  - { offsetInCU: 0x402F9, offset: 0x402F9, size: 0x8, addend: 0x0, symName: __ZNSt3__122__compressed_pair_elemIRNS_9allocatorIlEELi1ELb0EEC2B8ue170006IS3_vEEOT_, symObjAddr: 0x10660, symBinAddr: 0x100011CC8, symSize: 0x20 }
  - { offsetInCU: 0x4033B, offset: 0x4033B, size: 0x8, addend: 0x0, symName: __ZNSt3__19allocatorIlE8allocateB8ue170006Em, symObjAddr: 0x10680, symBinAddr: 0x100011CE8, symSize: 0x58 }
  - { offsetInCU: 0x4036F, offset: 0x4036F, size: 0x8, addend: 0x0, symName: __ZNSt3__117__compressed_pairIPlRNS_9allocatorIlEEE6secondB8ue170006Ev, symObjAddr: 0x106D8, symBinAddr: 0x100011D40, symSize: 0x28 }
  - { offsetInCU: 0x40395, offset: 0x40395, size: 0x8, addend: 0x0, symName: __ZNSt3__122__compressed_pair_elemIRNS_9allocatorIlEELi1ELb0EE5__getB8ue170006Ev, symObjAddr: 0x10700, symBinAddr: 0x100011D68, symSize: 0x18 }
  - { offsetInCU: 0x403BB, offset: 0x403BB, size: 0x8, addend: 0x0, symName: __ZNSt3__117__compressed_pairIPlRNS_9allocatorIlEEE5firstB8ue170006Ev, symObjAddr: 0x10718, symBinAddr: 0x100011D80, symSize: 0x24 }
  - { offsetInCU: 0x403E1, offset: 0x403E1, size: 0x8, addend: 0x0, symName: __ZNKSt3__16vectorIlNS_9allocatorIlEEE17__annotate_deleteB8ue170006Ev, symObjAddr: 0x1073C, symBinAddr: 0x100011DA4, symSize: 0xB8 }
  - { offsetInCU: 0x40407, offset: 0x40407, size: 0x8, addend: 0x0, symName: __ZNSt3__116reverse_iteratorIPlEC1B8ue170006ES1_, symObjAddr: 0x1086C, symBinAddr: 0x100011ED4, symSize: 0x34 }
  - { offsetInCU: 0x4043F, offset: 0x4043F, size: 0x8, addend: 0x0, symName: __ZNKSt3__116reverse_iteratorIPlE4baseB8ue170006Ev, symObjAddr: 0x108A0, symBinAddr: 0x100011F08, symSize: 0x18 }
  - { offsetInCU: 0x40465, offset: 0x40465, size: 0x8, addend: 0x0, symName: __ZNKSt3__16vectorIlNS_9allocatorIlEEE14__annotate_newB8ue170006Em, symObjAddr: 0x108F4, symBinAddr: 0x100011F5C, symSize: 0xAC }
  - { offsetInCU: 0x4049A, offset: 0x4049A, size: 0x8, addend: 0x0, symName: __ZNKSt3__16vectorIlNS_9allocatorIlEEE31__annotate_contiguous_containerB8ue170006EPKvS5_S5_S5_, symObjAddr: 0x109A0, symBinAddr: 0x100012008, symSize: 0x20 }
  - { offsetInCU: 0x404EC, offset: 0x404EC, size: 0x8, addend: 0x0, symName: __ZNKSt3__16vectorIlNS_9allocatorIlEEE4dataB8ue170006Ev, symObjAddr: 0x109C0, symBinAddr: 0x100012028, symSize: 0x28 }
  - { offsetInCU: 0x4053A, offset: 0x4053A, size: 0x8, addend: 0x0, symName: __ZNKSt3__111__move_loopINS_17_ClassicAlgPolicyEEclB8ue170006INS_16reverse_iteratorIPlEES6_S6_EENS_4pairIT_T1_EES8_T0_S9_, symObjAddr: 0x10CD8, symBinAddr: 0x100012340, symSize: 0xA0 }
  - { offsetInCU: 0x405AB, offset: 0x405AB, size: 0x8, addend: 0x0, symName: __ZNSt3__18_IterOpsINS_17_ClassicAlgPolicyEE11__iter_moveB8ue170006IRNS_16reverse_iteratorIPlEEEENS_9enable_ifIXsr12is_referenceIDTdeclsr3stdE7declvalIRT_EEEEE5valueEDTclsr3stdE4movedeclsr3stdE7declvalISA_EEEEE4typeEOS9_, symObjAddr: 0x10F0C, symBinAddr: 0x100012574, symSize: 0x28 }
  - { offsetInCU: 0x405D7, offset: 0x405D7, size: 0x8, addend: 0x0, symName: __ZNKSt3__116reverse_iteratorIPlEdeB8ue170006Ev, symObjAddr: 0x10F34, symBinAddr: 0x10001259C, symSize: 0x28 }
  - { offsetInCU: 0x4060B, offset: 0x4060B, size: 0x8, addend: 0x0, symName: __ZNSt3__116reverse_iteratorIPlEppB8ue170006Ev, symObjAddr: 0x10F5C, symBinAddr: 0x1000125C4, symSize: 0x20 }
  - { offsetInCU: 0x40631, offset: 0x40631, size: 0x8, addend: 0x0, symName: __ZNSt3__18_IterOpsINS_17_ClassicAlgPolicyEE25__validate_iter_referenceB8ue170006IRNS_16reverse_iteratorIPlEEEEvv, symObjAddr: 0x10F7C, symBinAddr: 0x1000125E4, symSize: 0x4 }
  - { offsetInCU: 0x4064F, offset: 0x4064F, size: 0x8, addend: 0x0, symName: __ZNSt3__118__unwrap_iter_implINS_16reverse_iteratorIPlEELb0EE8__unwrapB8ue170006ES3_, symObjAddr: 0x10F80, symBinAddr: 0x1000125E8, symSize: 0x24 }
  - { offsetInCU: 0x40678, offset: 0x40678, size: 0x8, addend: 0x0, symName: __ZNSt3__14pairINS_16reverse_iteratorIPlEES3_EC1B8ue170006IS3_S3_LPv0EEEOT_OT0_, symObjAddr: 0x10FA4, symBinAddr: 0x10001260C, symSize: 0x3C }
  - { offsetInCU: 0x406D6, offset: 0x406D6, size: 0x8, addend: 0x0, symName: __ZNSt3__14pairINS_16reverse_iteratorIPlEES3_EC2B8ue170006IS3_S3_LPv0EEEOT_OT0_, symObjAddr: 0x10FE0, symBinAddr: 0x100012648, symSize: 0x34 }
  - { offsetInCU: 0x40734, offset: 0x40734, size: 0x8, addend: 0x0, symName: __ZNSt3__118__unwrap_iter_implINS_16reverse_iteratorIPlEELb0EE8__rewrapB8ue170006ES3_S3_, symObjAddr: 0x11014, symBinAddr: 0x10001267C, symSize: 0x2C }
  - { offsetInCU: 0x40761, offset: 0x40761, size: 0x8, addend: 0x0, symName: __ZNSt3__116reverse_iteratorIPlEC2B8ue170006ES1_, symObjAddr: 0x11040, symBinAddr: 0x1000126A8, symSize: 0x28 }
  - { offsetInCU: 0x40799, offset: 0x40799, size: 0x8, addend: 0x0, symName: __ZNSt3__114__split_bufferIlRNS_9allocatorIlEEED2Ev, symObjAddr: 0x11068, symBinAddr: 0x1000126D0, symSize: 0x8C }
  - { offsetInCU: 0x407C5, offset: 0x407C5, size: 0x8, addend: 0x0, symName: __ZNSt3__114__split_bufferIlRNS_9allocatorIlEEE5clearB8ue170006Ev, symObjAddr: 0x110F4, symBinAddr: 0x10001275C, symSize: 0x28 }
  - { offsetInCU: 0x407EB, offset: 0x407EB, size: 0x8, addend: 0x0, symName: __ZNSt3__116allocator_traitsINS_9allocatorIlEEE10deallocateB8ue170006ERS2_Plm, symObjAddr: 0x1111C, symBinAddr: 0x100012784, symSize: 0x34 }
  - { offsetInCU: 0x4082D, offset: 0x4082D, size: 0x8, addend: 0x0, symName: __ZNKSt3__114__split_bufferIlRNS_9allocatorIlEEE8capacityB8ue170006Ev, symObjAddr: 0x11150, symBinAddr: 0x1000127B8, symSize: 0x40 }
  - { offsetInCU: 0x40853, offset: 0x40853, size: 0x8, addend: 0x0, symName: __ZNSt3__114__split_bufferIlRNS_9allocatorIlEEE17__destruct_at_endB8ue170006EPl, symObjAddr: 0x11190, symBinAddr: 0x1000127F8, symSize: 0x2C }
  - { offsetInCU: 0x40887, offset: 0x40887, size: 0x8, addend: 0x0, symName: __ZNSt3__114__split_bufferIlRNS_9allocatorIlEEE17__destruct_at_endB8ue170006EPlNS_17integral_constantIbLb0EEE, symObjAddr: 0x111BC, symBinAddr: 0x100012824, symSize: 0x80 }
  - { offsetInCU: 0x408C7, offset: 0x408C7, size: 0x8, addend: 0x0, symName: __ZNSt3__116allocator_traitsINS_9allocatorIlEEE7destroyB8ue170006IlvEEvRS2_PT_, symObjAddr: 0x1123C, symBinAddr: 0x1000128A4, symSize: 0x2C }
  - { offsetInCU: 0x40904, offset: 0x40904, size: 0x8, addend: 0x0, symName: __ZNSt3__19allocatorIlE7destroyB8ue170006EPl, symObjAddr: 0x11268, symBinAddr: 0x1000128D0, symSize: 0x14 }
  - { offsetInCU: 0x40938, offset: 0x40938, size: 0x8, addend: 0x0, symName: __ZNSt3__19allocatorIlE10deallocateB8ue170006EPlm, symObjAddr: 0x1127C, symBinAddr: 0x1000128E4, symSize: 0x40 }
  - { offsetInCU: 0x4097A, offset: 0x4097A, size: 0x8, addend: 0x0, symName: __ZNKSt3__114__split_bufferIlRNS_9allocatorIlEEE9__end_capB8ue170006Ev, symObjAddr: 0x112BC, symBinAddr: 0x100012924, symSize: 0x28 }
  - { offsetInCU: 0x409A0, offset: 0x409A0, size: 0x8, addend: 0x0, symName: __ZNKSt3__117__compressed_pairIPlRNS_9allocatorIlEEE5firstB8ue170006Ev, symObjAddr: 0x112E4, symBinAddr: 0x10001294C, symSize: 0x24 }
  - { offsetInCU: 0x409C6, offset: 0x409C6, size: 0x8, addend: 0x0, symName: __ZNSt3__115__tree_iteratorINS_12__value_typeIlNS_3mapINS_12basic_stringIcNS_11char_traitsIcEENS_9allocatorIcEEEEdNS_4lessIS8_EENS6_INS_4pairIKS8_dEEEEEEEEPNS_11__tree_nodeISG_PvEElEppB8ue170006Ev, symObjAddr: 0x11308, symBinAddr: 0x100012970, symSize: 0x38 }
  - { offsetInCU: 0x409EC, offset: 0x409EC, size: 0x8, addend: 0x0, symName: __ZNSt3__16vectorIlNS_9allocatorIlEEED2B8ue170006Ev, symObjAddr: 0x11340, symBinAddr: 0x1000129A8, symSize: 0x44 }
  - { offsetInCU: 0x40A16, offset: 0x40A16, size: 0x8, addend: 0x0, symName: __ZNSt3__16vectorIlNS_9allocatorIlEEE16__destroy_vectorC1B8ue170006ERS3_, symObjAddr: 0x11384, symBinAddr: 0x1000129EC, symSize: 0x34 }
  - { offsetInCU: 0x40A4F, offset: 0x40A4F, size: 0x8, addend: 0x0, symName: __ZNSt3__16vectorIlNS_9allocatorIlEEE16__destroy_vectorclB8ue170006Ev, symObjAddr: 0x113B8, symBinAddr: 0x100012A20, symSize: 0x90 }
  - { offsetInCU: 0x40A75, offset: 0x40A75, size: 0x8, addend: 0x0, symName: __ZNSt3__16vectorIlNS_9allocatorIlEEE16__destroy_vectorC2B8ue170006ERS3_, symObjAddr: 0x11448, symBinAddr: 0x100012AB0, symSize: 0x20 }
  - { offsetInCU: 0x40AAE, offset: 0x40AAE, size: 0x8, addend: 0x0, symName: __ZNSt3__16vectorIlNS_9allocatorIlEEE7__clearB8ue170006Ev, symObjAddr: 0x11468, symBinAddr: 0x100012AD0, symSize: 0x28 }
  - { offsetInCU: 0x40AD4, offset: 0x40AD4, size: 0x8, addend: 0x0, symName: __ZNSt3__16vectorIlNS_9allocatorIlEEE22__base_destruct_at_endB8ue170006EPl, symObjAddr: 0x11490, symBinAddr: 0x100012AF8, symSize: 0x8C }
  - { offsetInCU: 0x40B18, offset: 0x40B18, size: 0x8, addend: 0x0, symName: __ZNSt3__13mapINS_12basic_stringIcNS_11char_traitsIcEENS_9allocatorIcEEEEiNS_4lessIS6_EENS4_INS_4pairIKS6_iEEEEED2B8ue170006Ev, symObjAddr: 0x1151C, symBinAddr: 0x100012B84, symSize: 0x2C }
  - { offsetInCU: 0x40B42, offset: 0x40B42, size: 0x8, addend: 0x0, symName: __ZNSt3__16__treeINS_12__value_typeINS_12basic_stringIcNS_11char_traitsIcEENS_9allocatorIcEEEEiEENS_19__map_value_compareIS7_S8_NS_4lessIS7_EELb1EEENS5_IS8_EEED1Ev, symObjAddr: 0x11548, symBinAddr: 0x100012BB0, symSize: 0x2C }
  - { offsetInCU: 0x40B6E, offset: 0x40B6E, size: 0x8, addend: 0x0, symName: __ZNSt3__16__treeINS_12__value_typeINS_12basic_stringIcNS_11char_traitsIcEENS_9allocatorIcEEEEiEENS_19__map_value_compareIS7_S8_NS_4lessIS7_EELb1EEENS5_IS8_EEED2Ev, symObjAddr: 0x11574, symBinAddr: 0x100012BDC, symSize: 0x38 }
  - { offsetInCU: 0x40B9A, offset: 0x40B9A, size: 0x8, addend: 0x0, symName: __ZNSt3__16__treeINS_12__value_typeINS_12basic_stringIcNS_11char_traitsIcEENS_9allocatorIcEEEEiEENS_19__map_value_compareIS7_S8_NS_4lessIS7_EELb1EEENS5_IS8_EEE7destroyEPNS_11__tree_nodeIS8_PvEE, symObjAddr: 0x115AC, symBinAddr: 0x100012C14, symSize: 0xA8 }
  - { offsetInCU: 0x40BE6, offset: 0x40BE6, size: 0x8, addend: 0x0, symName: __ZNSt3__13mapINS_12basic_stringIcNS_11char_traitsIcEENS_9allocatorIcEEEENS0_IlNS0_IS6_dNS_4lessIS6_EENS4_INS_4pairIKS6_dEEEEEENS7_IlEENS4_INS9_IKlSD_EEEEEES8_NS4_INS9_ISA_SI_EEEEED2B8ue170006Ev, symObjAddr: 0x11654, symBinAddr: 0x100012CBC, symSize: 0x2C }
  - { offsetInCU: 0x40C10, offset: 0x40C10, size: 0x8, addend: 0x0, symName: __ZNSt3__16__treeINS_12__value_typeINS_12basic_stringIcNS_11char_traitsIcEENS_9allocatorIcEEEENS_3mapIlNS8_IS7_dNS_4lessIS7_EENS5_INS_4pairIKS7_dEEEEEENS9_IlEENS5_INSB_IKlSF_EEEEEEEENS_19__map_value_compareIS7_SL_SA_Lb1EEENS5_ISL_EEED1Ev, symObjAddr: 0x11680, symBinAddr: 0x100012CE8, symSize: 0x2C }
  - { offsetInCU: 0x40C3C, offset: 0x40C3C, size: 0x8, addend: 0x0, symName: __ZNSt3__16__treeINS_12__value_typeINS_12basic_stringIcNS_11char_traitsIcEENS_9allocatorIcEEEENS_3mapIlNS8_IS7_dNS_4lessIS7_EENS5_INS_4pairIKS7_dEEEEEENS9_IlEENS5_INSB_IKlSF_EEEEEEEENS_19__map_value_compareIS7_SL_SA_Lb1EEENS5_ISL_EEED2Ev, symObjAddr: 0x116AC, symBinAddr: 0x100012D14, symSize: 0x38 }
  - { offsetInCU: 0x40C68, offset: 0x40C68, size: 0x8, addend: 0x0, symName: __ZNSt3__13mapINS_12basic_stringIcNS_11char_traitsIcEENS_9allocatorIcEEEEPNS_6vectorI3barNS4_IS8_EEEENS_4lessIS6_EENS4_INS_4pairIKS6_SB_EEEEED1B8ue170006Ev, symObjAddr: 0x116E4, symBinAddr: 0x100012D4C, symSize: 0x2C }
  - { offsetInCU: 0x40C92, offset: 0x40C92, size: 0x8, addend: 0x0, symName: __ZNSt3__13mapINS_12basic_stringIcNS_11char_traitsIcEENS_9allocatorIcEEEEPNS_6vectorI3barNS4_IS8_EEEENS_4lessIS6_EENS4_INS_4pairIKS6_SB_EEEEED2B8ue170006Ev, symObjAddr: 0x11710, symBinAddr: 0x100012D78, symSize: 0x2C }
  - { offsetInCU: 0x40CBC, offset: 0x40CBC, size: 0x8, addend: 0x0, symName: __ZNSt3__16__treeINS_12__value_typeINS_12basic_stringIcNS_11char_traitsIcEENS_9allocatorIcEEEEPNS_6vectorI3barNS5_IS9_EEEEEENS_19__map_value_compareIS7_SD_NS_4lessIS7_EELb1EEENS5_ISD_EEED1Ev, symObjAddr: 0x1173C, symBinAddr: 0x100012DA4, symSize: 0x2C }
  - { offsetInCU: 0x40CE8, offset: 0x40CE8, size: 0x8, addend: 0x0, symName: __ZNSt3__16__treeINS_12__value_typeINS_12basic_stringIcNS_11char_traitsIcEENS_9allocatorIcEEEEPNS_6vectorI3barNS5_IS9_EEEEEENS_19__map_value_compareIS7_SD_NS_4lessIS7_EELb1EEENS5_ISD_EEED2Ev, symObjAddr: 0x11768, symBinAddr: 0x100012DD0, symSize: 0x38 }
  - { offsetInCU: 0x40D14, offset: 0x40D14, size: 0x8, addend: 0x0, symName: __ZNSt3__16__treeINS_12__value_typeINS_12basic_stringIcNS_11char_traitsIcEENS_9allocatorIcEEEEPNS_6vectorI3barNS5_IS9_EEEEEENS_19__map_value_compareIS7_SD_NS_4lessIS7_EELb1EEENS5_ISD_EEE7destroyEPNS_11__tree_nodeISD_PvEE, symObjAddr: 0x117A0, symBinAddr: 0x100012E08, symSize: 0xAC }
  - { offsetInCU: 0x40D60, offset: 0x40D60, size: 0x8, addend: 0x0, symName: __ZNKSt3__16__treeINS_12__value_typeINS_12basic_stringIcNS_11char_traitsIcEENS_9allocatorIcEEEEPNS_6vectorI3barNS5_IS9_EEEEEENS_19__map_value_compareIS7_SD_NS_4lessIS7_EELb1EEENS5_ISD_EEE6__rootB8ue170006Ev, symObjAddr: 0x1184C, symBinAddr: 0x100012EB4, symSize: 0x28 }
  - { offsetInCU: 0x40D86, offset: 0x40D86, size: 0x8, addend: 0x0, symName: __ZNSt3__16__treeINS_12__value_typeINS_12basic_stringIcNS_11char_traitsIcEENS_9allocatorIcEEEEPNS_6vectorI3barNS5_IS9_EEEEEENS_19__map_value_compareIS7_SD_NS_4lessIS7_EELb1EEENS5_ISD_EEE12__node_allocB8ue170006Ev, symObjAddr: 0x11874, symBinAddr: 0x100012EDC, symSize: 0x28 }
  - { offsetInCU: 0x40DAC, offset: 0x40DAC, size: 0x8, addend: 0x0, symName: __ZNSt3__116allocator_traitsINS_9allocatorINS_11__tree_nodeINS_12__value_typeINS_12basic_stringIcNS_11char_traitsIcEENS1_IcEEEEPNS_6vectorI3barNS1_ISA_EEEEEEPvEEEEE7destroyB8ue170006INS_4pairIKS8_SD_EEvvEEvRSH_PT_, symObjAddr: 0x1189C, symBinAddr: 0x100012F04, symSize: 0x28 }
  - { offsetInCU: 0x40DE6, offset: 0x40DE6, size: 0x8, addend: 0x0, symName: __ZNSt3__122__tree_key_value_typesINS_12__value_typeINS_12basic_stringIcNS_11char_traitsIcEENS_9allocatorIcEEEEPNS_6vectorI3barNS5_IS9_EEEEEEE9__get_ptrB8ue170006ERSD_, symObjAddr: 0x118C4, symBinAddr: 0x100012F2C, symSize: 0x24 }
  - { offsetInCU: 0x40E0A, offset: 0x40E0A, size: 0x8, addend: 0x0, symName: __ZNSt3__116allocator_traitsINS_9allocatorINS_11__tree_nodeINS_12__value_typeINS_12basic_stringIcNS_11char_traitsIcEENS1_IcEEEEPNS_6vectorI3barNS1_ISA_EEEEEEPvEEEEE10deallocateB8ue170006ERSH_PSG_m, symObjAddr: 0x118E8, symBinAddr: 0x100012F50, symSize: 0x34 }
  - { offsetInCU: 0x40E4C, offset: 0x40E4C, size: 0x8, addend: 0x0, symName: __ZNSt3__117__compressed_pairINS_15__tree_end_nodeIPNS_16__tree_node_baseIPvEEEENS_9allocatorINS_11__tree_nodeINS_12__value_typeINS_12basic_stringIcNS_11char_traitsIcEENS7_IcEEEEPNS_6vectorI3barNS7_ISG_EEEEEES3_EEEEE6secondB8ue170006Ev, symObjAddr: 0x1191C, symBinAddr: 0x100012F84, symSize: 0x24 }
  - { offsetInCU: 0x40E72, offset: 0x40E72, size: 0x8, addend: 0x0, symName: __ZNSt3__122__compressed_pair_elemINS_9allocatorINS_11__tree_nodeINS_12__value_typeINS_12basic_stringIcNS_11char_traitsIcEENS1_IcEEEEPNS_6vectorI3barNS1_ISA_EEEEEEPvEEEELi1ELb1EE5__getB8ue170006Ev, symObjAddr: 0x11940, symBinAddr: 0x100012FA8, symSize: 0x14 }
  - { offsetInCU: 0x40E98, offset: 0x40E98, size: 0x8, addend: 0x0, symName: __ZNSt3__14pairIKNS_12basic_stringIcNS_11char_traitsIcEENS_9allocatorIcEEEEPNS_6vectorI3barNS4_IS9_EEEEED1Ev, symObjAddr: 0x11954, symBinAddr: 0x100012FBC, symSize: 0x2C }
  - { offsetInCU: 0x40EC4, offset: 0x40EC4, size: 0x8, addend: 0x0, symName: __ZNSt3__14pairIKNS_12basic_stringIcNS_11char_traitsIcEENS_9allocatorIcEEEEPNS_6vectorI3barNS4_IS9_EEEEED2Ev, symObjAddr: 0x11980, symBinAddr: 0x100012FE8, symSize: 0x2C }
  - { offsetInCU: 0x40EF0, offset: 0x40EF0, size: 0x8, addend: 0x0, symName: __ZNSt3__112__value_typeINS_12basic_stringIcNS_11char_traitsIcEENS_9allocatorIcEEEEPNS_6vectorI3barNS4_IS8_EEEEE11__get_valueB8ue170006Ev, symObjAddr: 0x119AC, symBinAddr: 0x100013014, symSize: 0x14 }
  - { offsetInCU: 0x40F16, offset: 0x40F16, size: 0x8, addend: 0x0, symName: __ZNSt3__19allocatorINS_11__tree_nodeINS_12__value_typeINS_12basic_stringIcNS_11char_traitsIcEENS0_IcEEEEPNS_6vectorI3barNS0_IS9_EEEEEEPvEEE10deallocateB8ue170006EPSF_m, symObjAddr: 0x119C0, symBinAddr: 0x100013028, symSize: 0x40 }
  - { offsetInCU: 0x40F58, offset: 0x40F58, size: 0x8, addend: 0x0, symName: __ZNKSt3__16__treeINS_12__value_typeINS_12basic_stringIcNS_11char_traitsIcEENS_9allocatorIcEEEEPNS_6vectorI3barNS5_IS9_EEEEEENS_19__map_value_compareIS7_SD_NS_4lessIS7_EELb1EEENS5_ISD_EEE10__end_nodeB8ue170006Ev, symObjAddr: 0x11A00, symBinAddr: 0x100013068, symSize: 0x2C }
  - { offsetInCU: 0x40F7E, offset: 0x40F7E, size: 0x8, addend: 0x0, symName: __ZNKSt3__117__compressed_pairINS_15__tree_end_nodeIPNS_16__tree_node_baseIPvEEEENS_9allocatorINS_11__tree_nodeINS_12__value_typeINS_12basic_stringIcNS_11char_traitsIcEENS7_IcEEEEPNS_6vectorI3barNS7_ISG_EEEEEES3_EEEEE5firstB8ue170006Ev, symObjAddr: 0x11A2C, symBinAddr: 0x100013094, symSize: 0x24 }
  - { offsetInCU: 0x40FA4, offset: 0x40FA4, size: 0x8, addend: 0x0, symName: __ZN14naivePortfolioC2EP11dataHandlerRNSt3__15dequeIP5eventNS2_9allocatorIS5_EEEEll, symObjAddr: 0x11A50, symBinAddr: 0x1000130B8, symSize: 0x1E0 }
  - { offsetInCU: 0x41053, offset: 0x41053, size: 0x8, addend: 0x0, symName: __ZN9portfolioC2Ev, symObjAddr: 0x11C30, symBinAddr: 0x100013298, symSize: 0x64 }
  - { offsetInCU: 0x4107F, offset: 0x4107F, size: 0x8, addend: 0x0, symName: __ZNSt3__13mapINS_12basic_stringIcNS_11char_traitsIcEENS_9allocatorIcEEEEdNS_4lessIS6_EENS4_INS_4pairIKS6_dEEEEEixERSA_, symObjAddr: 0x11C94, symBinAddr: 0x1000132FC, symSize: 0x80 }
  - { offsetInCU: 0x410B6, offset: 0x410B6, size: 0x8, addend: 0x0, symName: __ZN14naivePortfolio23construct_all_positionsEv, symObjAddr: 0x11D14, symBinAddr: 0x10001337C, symSize: 0x1E8 }
  - { offsetInCU: 0x41143, offset: 0x41143, size: 0x8, addend: 0x0, symName: __ZNSt3__16vectorINS_3mapINS_12basic_stringIcNS_11char_traitsIcEENS_9allocatorIcEEEEdNS_4lessIS7_EENS5_INS_4pairIKS7_dEEEEEENS5_ISE_EEEaSB8ue170006EOSG_, symObjAddr: 0x11EFC, symBinAddr: 0x100013564, symSize: 0x34 }
  - { offsetInCU: 0x4117A, offset: 0x4117A, size: 0x8, addend: 0x0, symName: __ZNSt3__16vectorINS_3mapINS_12basic_stringIcNS_11char_traitsIcEENS_9allocatorIcEEEEdNS_4lessIS7_EENS5_INS_4pairIKS7_dEEEEEENS5_ISE_EEED1B8ue170006Ev, symObjAddr: 0x11F30, symBinAddr: 0x100013598, symSize: 0x2C }
  - { offsetInCU: 0x411A4, offset: 0x411A4, size: 0x8, addend: 0x0, symName: __ZN14naivePortfolio22construct_all_holdingsEv, symObjAddr: 0x11F5C, symBinAddr: 0x1000135C4, symSize: 0x278 }
  - { offsetInCU: 0x411E7, offset: 0x411E7, size: 0x8, addend: 0x0, symName: __ZN14naivePortfolio26construct_current_holdingsEv, symObjAddr: 0x121D4, symBinAddr: 0x10001383C, symSize: 0x1C0 }
  - { offsetInCU: 0x4121C, offset: 0x4121C, size: 0x8, addend: 0x0, symName: __ZNSt3__13mapINS_12basic_stringIcNS_11char_traitsIcEENS_9allocatorIcEEEEdNS_4lessIS6_EENS4_INS_4pairIKS6_dEEEEEaSB8ue170006EOSD_, symObjAddr: 0x12394, symBinAddr: 0x1000139FC, symSize: 0x34 }
  - { offsetInCU: 0x41251, offset: 0x41251, size: 0x8, addend: 0x0, symName: __ZN9portfolioD2Ev, symObjAddr: 0x123C8, symBinAddr: 0x100013A30, symSize: 0x64 }
  - { offsetInCU: 0x4127B, offset: 0x4127B, size: 0x8, addend: 0x0, symName: __ZN14naivePortfolioD1Ev, symObjAddr: 0x1242C, symBinAddr: 0x100013A94, symSize: 0x2C }
  - { offsetInCU: 0x412A7, offset: 0x412A7, size: 0x8, addend: 0x0, symName: __ZN14naivePortfolioD0Ev, symObjAddr: 0x12458, symBinAddr: 0x100013AC0, symSize: 0x30 }
  - { offsetInCU: 0x412D3, offset: 0x412D3, size: 0x8, addend: 0x0, symName: __ZN14naivePortfolio16update_timeindexE5event, symObjAddr: 0x12488, symBinAddr: 0x100013AF0, symSize: 0x7DC }
  - { offsetInCU: 0x4142E, offset: 0x4142E, size: 0x8, addend: 0x0, symName: __ZN14naivePortfolio13update_signalE11signalEvent, symObjAddr: 0x12C64, symBinAddr: 0x1000142CC, symSize: 0xB4 }
  - { offsetInCU: 0x41477, offset: 0x41477, size: 0x8, addend: 0x0, symName: __ZN14naivePortfolio11update_fillE9fillEvent, symObjAddr: 0x12D18, symBinAddr: 0x100014380, symSize: 0xD8 }
  - { offsetInCU: 0x414AC, offset: 0x414AC, size: 0x8, addend: 0x0, symName: __ZNSt3__16vectorINS_3mapINS_12basic_stringIcNS_11char_traitsIcEENS_9allocatorIcEEEEdNS_4lessIS7_EENS5_INS_4pairIKS7_dEEEEEENS5_ISE_EEEC1B8ue170006Ev, symObjAddr: 0x12DF0, symBinAddr: 0x100014458, symSize: 0x2C }
  - { offsetInCU: 0x414D6, offset: 0x414D6, size: 0x8, addend: 0x0, symName: __ZN9portfolioD1Ev, symObjAddr: 0x12E1C, symBinAddr: 0x100014484, symSize: 0x2C }
  - { offsetInCU: 0x41500, offset: 0x41500, size: 0x8, addend: 0x0, symName: __ZN9portfolioD0Ev, symObjAddr: 0x12E48, symBinAddr: 0x1000144B0, symSize: 0x30 }
  - { offsetInCU: 0x4152A, offset: 0x4152A, size: 0x8, addend: 0x0, symName: __ZN9portfolio16update_timeindexE5event, symObjAddr: 0x12E78, symBinAddr: 0x1000144E0, symSize: 0x14 }
  - { offsetInCU: 0x4155F, offset: 0x4155F, size: 0x8, addend: 0x0, symName: __ZN9portfolio13update_signalE11signalEvent, symObjAddr: 0x12E8C, symBinAddr: 0x1000144F4, symSize: 0x14 }
  - { offsetInCU: 0x41594, offset: 0x41594, size: 0x8, addend: 0x0, symName: __ZN9portfolio11update_fillE9fillEvent, symObjAddr: 0x12EA0, symBinAddr: 0x100014508, symSize: 0x14 }
  - { offsetInCU: 0x415C9, offset: 0x415C9, size: 0x8, addend: 0x0, symName: __ZNSt3__16vectorINS_3mapINS_12basic_stringIcNS_11char_traitsIcEENS_9allocatorIcEEEEdNS_4lessIS7_EENS5_INS_4pairIKS7_dEEEEEENS5_ISE_EEEC2B8ue170006Ev, symObjAddr: 0x12EB4, symBinAddr: 0x10001451C, symSize: 0x4C }
  - { offsetInCU: 0x415F3, offset: 0x415F3, size: 0x8, addend: 0x0, symName: __ZNSt3__117__compressed_pairIPNS_3mapINS_12basic_stringIcNS_11char_traitsIcEENS_9allocatorIcEEEEdNS_4lessIS7_EENS5_INS_4pairIKS7_dEEEEEENS5_ISE_EEEC1B8ue170006IDnNS_18__default_init_tagEEEOT_OT0_, symObjAddr: 0x12F00, symBinAddr: 0x100014568, symSize: 0x3C }
  - { offsetInCU: 0x4164B, offset: 0x4164B, size: 0x8, addend: 0x0, symName: __ZNSt3__117__compressed_pairIPNS_3mapINS_12basic_stringIcNS_11char_traitsIcEENS_9allocatorIcEEEEdNS_4lessIS7_EENS5_INS_4pairIKS7_dEEEEEENS5_ISE_EEEC2B8ue170006IDnNS_18__default_init_tagEEEOT_OT0_, symObjAddr: 0x12F3C, symBinAddr: 0x1000145A4, symSize: 0x40 }
  - { offsetInCU: 0x416A3, offset: 0x416A3, size: 0x8, addend: 0x0, symName: __ZNSt3__122__compressed_pair_elemIPNS_3mapINS_12basic_stringIcNS_11char_traitsIcEENS_9allocatorIcEEEEdNS_4lessIS7_EENS5_INS_4pairIKS7_dEEEEEELi0ELb0EEC2B8ue170006IDnvEEOT_, symObjAddr: 0x12F7C, symBinAddr: 0x1000145E4, symSize: 0x1C }
  - { offsetInCU: 0x416E5, offset: 0x416E5, size: 0x8, addend: 0x0, symName: __ZNSt3__122__compressed_pair_elemINS_9allocatorINS_3mapINS_12basic_stringIcNS_11char_traitsIcEENS1_IcEEEEdNS_4lessIS7_EENS1_INS_4pairIKS7_dEEEEEEEELi1ELb1EEC2B8ue170006ENS_18__default_init_tagE, symObjAddr: 0x12F98, symBinAddr: 0x100014600, symSize: 0x2C }
  - { offsetInCU: 0x41719, offset: 0x41719, size: 0x8, addend: 0x0, symName: __ZNSt3__19allocatorINS_3mapINS_12basic_stringIcNS_11char_traitsIcEENS0_IcEEEEdNS_4lessIS6_EENS0_INS_4pairIKS6_dEEEEEEEC2B8ue170006Ev, symObjAddr: 0x12FC4, symBinAddr: 0x10001462C, symSize: 0x2C }
  - { offsetInCU: 0x41743, offset: 0x41743, size: 0x8, addend: 0x0, symName: __ZNSt3__116__non_trivial_ifILb1ENS_9allocatorINS_3mapINS_12basic_stringIcNS_11char_traitsIcEENS1_IcEEEEdNS_4lessIS7_EENS1_INS_4pairIKS7_dEEEEEEEEEC2B8ue170006Ev, symObjAddr: 0x12FF0, symBinAddr: 0x100014658, symSize: 0x14 }
  - { offsetInCU: 0x4176D, offset: 0x4176D, size: 0x8, addend: 0x0, symName: __ZNSt3__16__treeINS_12__value_typeINS_12basic_stringIcNS_11char_traitsIcEENS_9allocatorIcEEEEdEENS_19__map_value_compareIS7_S8_NS_4lessIS7_EELb1EEENS5_IS8_EEE25__emplace_unique_key_argsIS7_JRKNS_21piecewise_construct_tENS_5tupleIJRKS7_EEENSJ_IJEEEEEENS_4pairINS_15__tree_iteratorIS8_PNS_11__tree_nodeIS8_PvEElEEbEERKT_DpOT0_, symObjAddr: 0x13004, symBinAddr: 0x10001466C, symSize: 0x100 }
  - { offsetInCU: 0x41843, offset: 0x41843, size: 0x8, addend: 0x0, symName: __ZNKSt3__115__tree_iteratorINS_12__value_typeINS_12basic_stringIcNS_11char_traitsIcEENS_9allocatorIcEEEEdEEPNS_11__tree_nodeIS8_PvEElEptB8ue170006Ev, symObjAddr: 0x13104, symBinAddr: 0x10001476C, symSize: 0x2C }
  - { offsetInCU: 0x41869, offset: 0x41869, size: 0x8, addend: 0x0, symName: __ZNSt3__16__treeINS_12__value_typeINS_12basic_stringIcNS_11char_traitsIcEENS_9allocatorIcEEEEdEENS_19__map_value_compareIS7_S8_NS_4lessIS7_EELb1EEENS5_IS8_EEE16__construct_nodeIJRKNS_21piecewise_construct_tENS_5tupleIJRKS7_EEENSJ_IJEEEEEENS_10unique_ptrINS_11__tree_nodeIS8_PvEENS_22__tree_node_destructorINS5_ISR_EEEEEEDpOT_, symObjAddr: 0x13130, symBinAddr: 0x100014798, symSize: 0x120 }
  - { offsetInCU: 0x418F2, offset: 0x418F2, size: 0x8, addend: 0x0, symName: __ZNSt3__116allocator_traitsINS_9allocatorINS_11__tree_nodeINS_12__value_typeINS_12basic_stringIcNS_11char_traitsIcEENS1_IcEEEEdEEPvEEEEE9constructB8ue170006INS_4pairIKS8_dEEJRKNS_21piecewise_construct_tENS_5tupleIJRSG_EEENSL_IJEEEEvEEvRSC_PT_DpOT0_, symObjAddr: 0x13250, symBinAddr: 0x1000148B8, symSize: 0x44 }
  - { offsetInCU: 0x41971, offset: 0x41971, size: 0x8, addend: 0x0, symName: __ZNSt3__19allocatorINS_11__tree_nodeINS_12__value_typeINS_12basic_stringIcNS_11char_traitsIcEENS0_IcEEEEdEEPvEEE9constructB8ue170006INS_4pairIKS7_dEEJRKNS_21piecewise_construct_tENS_5tupleIJRSE_EEENSJ_IJEEEEEEvPT_DpOT0_, symObjAddr: 0x13294, symBinAddr: 0x1000148FC, symSize: 0x44 }
  - { offsetInCU: 0x419ED, offset: 0x419ED, size: 0x8, addend: 0x0, symName: __ZNSt3__14pairIKNS_12basic_stringIcNS_11char_traitsIcEENS_9allocatorIcEEEEdEC1B8ue170006IJRS7_EJEEENS_21piecewise_construct_tENS_5tupleIJDpT_EEENSC_IJDpT0_EEE, symObjAddr: 0x132D8, symBinAddr: 0x100014940, symSize: 0x3C }
  - { offsetInCU: 0x41A54, offset: 0x41A54, size: 0x8, addend: 0x0, symName: __ZNSt3__14pairIKNS_12basic_stringIcNS_11char_traitsIcEENS_9allocatorIcEEEEdEC1B8ue170006IJRS7_EJEJLm0EEJEEENS_21piecewise_construct_tERNS_5tupleIJDpT_EEERNSC_IJDpT0_EEENS_15__tuple_indicesIJXspT1_EEEENSL_IJXspT2_EEEE, symObjAddr: 0x13314, symBinAddr: 0x10001497C, symSize: 0x3C }
  - { offsetInCU: 0x41AE1, offset: 0x41AE1, size: 0x8, addend: 0x0, symName: __ZNSt3__14pairIKNS_12basic_stringIcNS_11char_traitsIcEENS_9allocatorIcEEEEdEC2B8ue170006IJRS7_EJEJLm0EEJEEENS_21piecewise_construct_tERNS_5tupleIJDpT_EEERNSC_IJDpT0_EEENS_15__tuple_indicesIJXspT1_EEEENSL_IJXspT2_EEEE, symObjAddr: 0x13350, symBinAddr: 0x1000149B8, symSize: 0x4C }
  - { offsetInCU: 0x41B6E, offset: 0x41B6E, size: 0x8, addend: 0x0, symName: __ZNSt3__114pointer_traitsIPNS_12__value_typeINS_12basic_stringIcNS_11char_traitsIcEENS_9allocatorIcEEEEdEEE10pointer_toB8ue170006ERS8_, symObjAddr: 0x1339C, symBinAddr: 0x100014A04, symSize: 0x14 }
  - { offsetInCU: 0x41B91, offset: 0x41B91, size: 0x8, addend: 0x0, symName: __ZNKSt3__115__tree_iteratorINS_12__value_typeINS_12basic_stringIcNS_11char_traitsIcEENS_9allocatorIcEEEEdEEPNS_11__tree_nodeIS8_PvEElE8__get_npB8ue170006Ev, symObjAddr: 0x133B0, symBinAddr: 0x100014A18, symSize: 0x18 }
  - { offsetInCU: 0x41BB7, offset: 0x41BB7, size: 0x8, addend: 0x0, symName: __ZNSt3__16vectorINS_3mapINS_12basic_stringIcNS_11char_traitsIcEENS_9allocatorIcEEEEdNS_4lessIS7_EENS5_INS_4pairIKS7_dEEEEEENS5_ISE_EEE9push_backB8ue170006ERKSE_, symObjAddr: 0x133C8, symBinAddr: 0x100014A30, symSize: 0x6C }
  - { offsetInCU: 0x41BEE, offset: 0x41BEE, size: 0x8, addend: 0x0, symName: __ZNSt3__16vectorINS_3mapINS_12basic_stringIcNS_11char_traitsIcEENS_9allocatorIcEEEEdNS_4lessIS7_EENS5_INS_4pairIKS7_dEEEEEENS5_ISE_EEE9__end_capB8ue170006Ev, symObjAddr: 0x13434, symBinAddr: 0x100014A9C, symSize: 0x28 }
  - { offsetInCU: 0x41C14, offset: 0x41C14, size: 0x8, addend: 0x0, symName: __ZNSt3__16vectorINS_3mapINS_12basic_stringIcNS_11char_traitsIcEENS_9allocatorIcEEEEdNS_4lessIS7_EENS5_INS_4pairIKS7_dEEEEEENS5_ISE_EEE22__construct_one_at_endB8ue170006IJRKSE_EEEvDpOT_, symObjAddr: 0x1345C, symBinAddr: 0x100014AC4, symSize: 0x90 }
  - { offsetInCU: 0x41C63, offset: 0x41C63, size: 0x8, addend: 0x0, symName: __ZNSt3__16vectorINS_3mapINS_12basic_stringIcNS_11char_traitsIcEENS_9allocatorIcEEEEdNS_4lessIS7_EENS5_INS_4pairIKS7_dEEEEEENS5_ISE_EEE21__push_back_slow_pathIRKSE_EEvOT_, symObjAddr: 0x134EC, symBinAddr: 0x100014B54, symSize: 0xD8 }
  - { offsetInCU: 0x41CC1, offset: 0x41CC1, size: 0x8, addend: 0x0, symName: __ZNSt3__117__compressed_pairIPNS_3mapINS_12basic_stringIcNS_11char_traitsIcEENS_9allocatorIcEEEEdNS_4lessIS7_EENS5_INS_4pairIKS7_dEEEEEENS5_ISE_EEE5firstB8ue170006Ev, symObjAddr: 0x135C4, symBinAddr: 0x100014C2C, symSize: 0x24 }
  - { offsetInCU: 0x41CE7, offset: 0x41CE7, size: 0x8, addend: 0x0, symName: __ZNSt3__122__compressed_pair_elemIPNS_3mapINS_12basic_stringIcNS_11char_traitsIcEENS_9allocatorIcEEEEdNS_4lessIS7_EENS5_INS_4pairIKS7_dEEEEEELi0ELb0EE5__getB8ue170006Ev, symObjAddr: 0x135E8, symBinAddr: 0x100014C50, symSize: 0x14 }
  - { offsetInCU: 0x41D29, offset: 0x41D29, size: 0x8, addend: 0x0, symName: __ZNSt3__16vectorINS_3mapINS_12basic_stringIcNS_11char_traitsIcEENS_9allocatorIcEEEEdNS_4lessIS7_EENS5_INS_4pairIKS7_dEEEEEENS5_ISE_EEE21_ConstructTransactionC1B8ue170006ERSG_m, symObjAddr: 0x135FC, symBinAddr: 0x100014C64, symSize: 0x3C }
  - { offsetInCU: 0x41D71, offset: 0x41D71, size: 0x8, addend: 0x0, symName: __ZNSt3__116allocator_traitsINS_9allocatorINS_3mapINS_12basic_stringIcNS_11char_traitsIcEENS1_IcEEEEdNS_4lessIS7_EENS1_INS_4pairIKS7_dEEEEEEEEE9constructB8ue170006ISE_JRKSE_EvEEvRSF_PT_DpOT0_, symObjAddr: 0x13638, symBinAddr: 0x100014CA0, symSize: 0x34 }
  - { offsetInCU: 0x41DC8, offset: 0x41DC8, size: 0x8, addend: 0x0, symName: __ZNSt3__16vectorINS_3mapINS_12basic_stringIcNS_11char_traitsIcEENS_9allocatorIcEEEEdNS_4lessIS7_EENS5_INS_4pairIKS7_dEEEEEENS5_ISE_EEE7__allocB8ue170006Ev, symObjAddr: 0x1366C, symBinAddr: 0x100014CD4, symSize: 0x28 }
  - { offsetInCU: 0x41DEE, offset: 0x41DEE, size: 0x8, addend: 0x0, symName: __ZNSt3__16vectorINS_3mapINS_12basic_stringIcNS_11char_traitsIcEENS_9allocatorIcEEEEdNS_4lessIS7_EENS5_INS_4pairIKS7_dEEEEEENS5_ISE_EEE21_ConstructTransactionD1B8ue170006Ev, symObjAddr: 0x136A8, symBinAddr: 0x100014D10, symSize: 0x2C }
  - { offsetInCU: 0x41E18, offset: 0x41E18, size: 0x8, addend: 0x0, symName: __ZNSt3__16vectorINS_3mapINS_12basic_stringIcNS_11char_traitsIcEENS_9allocatorIcEEEEdNS_4lessIS7_EENS5_INS_4pairIKS7_dEEEEEENS5_ISE_EEE21_ConstructTransactionC2B8ue170006ERSG_m, symObjAddr: 0x136D4, symBinAddr: 0x100014D3C, symSize: 0x4C }
  - { offsetInCU: 0x41E60, offset: 0x41E60, size: 0x8, addend: 0x0, symName: __ZNSt3__19allocatorINS_3mapINS_12basic_stringIcNS_11char_traitsIcEENS0_IcEEEEdNS_4lessIS6_EENS0_INS_4pairIKS6_dEEEEEEE9constructB8ue170006ISD_JRKSD_EEEvPT_DpOT0_, symObjAddr: 0x13720, symBinAddr: 0x100014D88, symSize: 0x30 }
  - { offsetInCU: 0x41EB6, offset: 0x41EB6, size: 0x8, addend: 0x0, symName: __ZNSt3__117__compressed_pairIPNS_3mapINS_12basic_stringIcNS_11char_traitsIcEENS_9allocatorIcEEEEdNS_4lessIS7_EENS5_INS_4pairIKS7_dEEEEEENS5_ISE_EEE6secondB8ue170006Ev, symObjAddr: 0x13750, symBinAddr: 0x100014DB8, symSize: 0x24 }
  - { offsetInCU: 0x41EDC, offset: 0x41EDC, size: 0x8, addend: 0x0, symName: __ZNSt3__122__compressed_pair_elemINS_9allocatorINS_3mapINS_12basic_stringIcNS_11char_traitsIcEENS1_IcEEEEdNS_4lessIS7_EENS1_INS_4pairIKS7_dEEEEEEEELi1ELb1EE5__getB8ue170006Ev, symObjAddr: 0x13774, symBinAddr: 0x100014DDC, symSize: 0x14 }
  - { offsetInCU: 0x41F02, offset: 0x41F02, size: 0x8, addend: 0x0, symName: __ZNSt3__16vectorINS_3mapINS_12basic_stringIcNS_11char_traitsIcEENS_9allocatorIcEEEEdNS_4lessIS7_EENS5_INS_4pairIKS7_dEEEEEENS5_ISE_EEE21_ConstructTransactionD2B8ue170006Ev, symObjAddr: 0x13788, symBinAddr: 0x100014DF0, symSize: 0x20 }
  - { offsetInCU: 0x41F2C, offset: 0x41F2C, size: 0x8, addend: 0x0, symName: __ZNKSt3__16vectorINS_3mapINS_12basic_stringIcNS_11char_traitsIcEENS_9allocatorIcEEEEdNS_4lessIS7_EENS5_INS_4pairIKS7_dEEEEEENS5_ISE_EEE11__recommendB8ue170006Em, symObjAddr: 0x137A8, symBinAddr: 0x100014E10, symSize: 0xB4 }
  - { offsetInCU: 0x41F81, offset: 0x41F81, size: 0x8, addend: 0x0, symName: __ZNKSt3__16vectorINS_3mapINS_12basic_stringIcNS_11char_traitsIcEENS_9allocatorIcEEEEdNS_4lessIS7_EENS5_INS_4pairIKS7_dEEEEEENS5_ISE_EEE4sizeB8ue170006Ev, symObjAddr: 0x1385C, symBinAddr: 0x100014EC4, symSize: 0x28 }
  - { offsetInCU: 0x41FA7, offset: 0x41FA7, size: 0x8, addend: 0x0, symName: __ZNSt3__114__split_bufferINS_3mapINS_12basic_stringIcNS_11char_traitsIcEENS_9allocatorIcEEEEdNS_4lessIS7_EENS5_INS_4pairIKS7_dEEEEEERNS5_ISE_EEEC1EmmSG_, symObjAddr: 0x13884, symBinAddr: 0x100014EEC, symSize: 0x44 }
  - { offsetInCU: 0x41FFD, offset: 0x41FFD, size: 0x8, addend: 0x0, symName: __ZNSt3__114__split_bufferINS_3mapINS_12basic_stringIcNS_11char_traitsIcEENS_9allocatorIcEEEEdNS_4lessIS7_EENS5_INS_4pairIKS7_dEEEEEERNS5_ISE_EEED1Ev, symObjAddr: 0x139D8, symBinAddr: 0x100015040, symSize: 0x2C }
  - { offsetInCU: 0x42029, offset: 0x42029, size: 0x8, addend: 0x0, symName: __ZNKSt3__16vectorINS_3mapINS_12basic_stringIcNS_11char_traitsIcEENS_9allocatorIcEEEEdNS_4lessIS7_EENS5_INS_4pairIKS7_dEEEEEENS5_ISE_EEE8max_sizeEv, symObjAddr: 0x13A04, symBinAddr: 0x10001506C, symSize: 0x60 }
  - { offsetInCU: 0x42051, offset: 0x42051, size: 0x8, addend: 0x0, symName: __ZNKSt3__16vectorINS_3mapINS_12basic_stringIcNS_11char_traitsIcEENS_9allocatorIcEEEEdNS_4lessIS7_EENS5_INS_4pairIKS7_dEEEEEENS5_ISE_EEE20__throw_length_errorB8ue170006Ev, symObjAddr: 0x13A64, symBinAddr: 0x1000150CC, symSize: 0x1C }
  - { offsetInCU: 0x42077, offset: 0x42077, size: 0x8, addend: 0x0, symName: __ZNKSt3__16vectorINS_3mapINS_12basic_stringIcNS_11char_traitsIcEENS_9allocatorIcEEEEdNS_4lessIS7_EENS5_INS_4pairIKS7_dEEEEEENS5_ISE_EEE8capacityB8ue170006Ev, symObjAddr: 0x13A80, symBinAddr: 0x1000150E8, symSize: 0x40 }
  - { offsetInCU: 0x420A8, offset: 0x420A8, size: 0x8, addend: 0x0, symName: __ZNSt3__116allocator_traitsINS_9allocatorINS_3mapINS_12basic_stringIcNS_11char_traitsIcEENS1_IcEEEEdNS_4lessIS7_EENS1_INS_4pairIKS7_dEEEEEEEEE8max_sizeB8ue170006ISF_vEEmRKSF_, symObjAddr: 0x13AC0, symBinAddr: 0x100015128, symSize: 0x24 }
  - { offsetInCU: 0x420D6, offset: 0x420D6, size: 0x8, addend: 0x0, symName: __ZNKSt3__16vectorINS_3mapINS_12basic_stringIcNS_11char_traitsIcEENS_9allocatorIcEEEEdNS_4lessIS7_EENS5_INS_4pairIKS7_dEEEEEENS5_ISE_EEE7__allocB8ue170006Ev, symObjAddr: 0x13AE4, symBinAddr: 0x10001514C, symSize: 0x28 }
  - { offsetInCU: 0x420FC, offset: 0x420FC, size: 0x8, addend: 0x0, symName: __ZNKSt3__19allocatorINS_3mapINS_12basic_stringIcNS_11char_traitsIcEENS0_IcEEEEdNS_4lessIS6_EENS0_INS_4pairIKS6_dEEEEEEE8max_sizeB8ue170006Ev, symObjAddr: 0x13B0C, symBinAddr: 0x100015174, symSize: 0x18 }
  - { offsetInCU: 0x42122, offset: 0x42122, size: 0x8, addend: 0x0, symName: __ZNKSt3__117__compressed_pairIPNS_3mapINS_12basic_stringIcNS_11char_traitsIcEENS_9allocatorIcEEEEdNS_4lessIS7_EENS5_INS_4pairIKS7_dEEEEEENS5_ISE_EEE6secondB8ue170006Ev, symObjAddr: 0x13B24, symBinAddr: 0x10001518C, symSize: 0x24 }
  - { offsetInCU: 0x42148, offset: 0x42148, size: 0x8, addend: 0x0, symName: __ZNKSt3__122__compressed_pair_elemINS_9allocatorINS_3mapINS_12basic_stringIcNS_11char_traitsIcEENS1_IcEEEEdNS_4lessIS7_EENS1_INS_4pairIKS7_dEEEEEEEELi1ELb1EE5__getB8ue170006Ev, symObjAddr: 0x13B48, symBinAddr: 0x1000151B0, symSize: 0x14 }
  - { offsetInCU: 0x4216E, offset: 0x4216E, size: 0x8, addend: 0x0, symName: __ZNKSt3__16vectorINS_3mapINS_12basic_stringIcNS_11char_traitsIcEENS_9allocatorIcEEEEdNS_4lessIS7_EENS5_INS_4pairIKS7_dEEEEEENS5_ISE_EEE9__end_capB8ue170006Ev, symObjAddr: 0x13B5C, symBinAddr: 0x1000151C4, symSize: 0x28 }
  - { offsetInCU: 0x42194, offset: 0x42194, size: 0x8, addend: 0x0, symName: __ZNKSt3__117__compressed_pairIPNS_3mapINS_12basic_stringIcNS_11char_traitsIcEENS_9allocatorIcEEEEdNS_4lessIS7_EENS5_INS_4pairIKS7_dEEEEEENS5_ISE_EEE5firstB8ue170006Ev, symObjAddr: 0x13B84, symBinAddr: 0x1000151EC, symSize: 0x24 }
  - { offsetInCU: 0x421BA, offset: 0x421BA, size: 0x8, addend: 0x0, symName: __ZNKSt3__122__compressed_pair_elemIPNS_3mapINS_12basic_stringIcNS_11char_traitsIcEENS_9allocatorIcEEEEdNS_4lessIS7_EENS5_INS_4pairIKS7_dEEEEEELi0ELb0EE5__getB8ue170006Ev, symObjAddr: 0x13BA8, symBinAddr: 0x100015210, symSize: 0x14 }
  - { offsetInCU: 0x421E0, offset: 0x421E0, size: 0x8, addend: 0x0, symName: __ZNSt3__114__split_bufferINS_3mapINS_12basic_stringIcNS_11char_traitsIcEENS_9allocatorIcEEEEdNS_4lessIS7_EENS5_INS_4pairIKS7_dEEEEEERNS5_ISE_EEEC2EmmSG_, symObjAddr: 0x13BBC, symBinAddr: 0x100015224, symSize: 0xE0 }
  - { offsetInCU: 0x42253, offset: 0x42253, size: 0x8, addend: 0x0, symName: __ZNSt3__117__compressed_pairIPNS_3mapINS_12basic_stringIcNS_11char_traitsIcEENS_9allocatorIcEEEEdNS_4lessIS7_EENS5_INS_4pairIKS7_dEEEEEERNS5_ISE_EEEC1B8ue170006IDnSH_EEOT_OT0_, symObjAddr: 0x13C9C, symBinAddr: 0x100015304, symSize: 0x3C }
  - { offsetInCU: 0x422AB, offset: 0x422AB, size: 0x8, addend: 0x0, symName: __ZNSt3__114__split_bufferINS_3mapINS_12basic_stringIcNS_11char_traitsIcEENS_9allocatorIcEEEEdNS_4lessIS7_EENS5_INS_4pairIKS7_dEEEEEERNS5_ISE_EEE7__allocB8ue170006Ev, symObjAddr: 0x13D18, symBinAddr: 0x100015380, symSize: 0x28 }
  - { offsetInCU: 0x422D1, offset: 0x422D1, size: 0x8, addend: 0x0, symName: __ZNSt3__114__split_bufferINS_3mapINS_12basic_stringIcNS_11char_traitsIcEENS_9allocatorIcEEEEdNS_4lessIS7_EENS5_INS_4pairIKS7_dEEEEEERNS5_ISE_EEE9__end_capB8ue170006Ev, symObjAddr: 0x13D40, symBinAddr: 0x1000153A8, symSize: 0x28 }
  - { offsetInCU: 0x422F7, offset: 0x422F7, size: 0x8, addend: 0x0, symName: __ZNSt3__117__compressed_pairIPNS_3mapINS_12basic_stringIcNS_11char_traitsIcEENS_9allocatorIcEEEEdNS_4lessIS7_EENS5_INS_4pairIKS7_dEEEEEERNS5_ISE_EEEC2B8ue170006IDnSH_EEOT_OT0_, symObjAddr: 0x13D68, symBinAddr: 0x1000153D0, symSize: 0x48 }
  - { offsetInCU: 0x4234F, offset: 0x4234F, size: 0x8, addend: 0x0, symName: __ZNSt3__122__compressed_pair_elemIRNS_9allocatorINS_3mapINS_12basic_stringIcNS_11char_traitsIcEENS1_IcEEEEdNS_4lessIS7_EENS1_INS_4pairIKS7_dEEEEEEEELi1ELb0EEC2B8ue170006ISG_vEEOT_, symObjAddr: 0x13DB0, symBinAddr: 0x100015418, symSize: 0x20 }
  - { offsetInCU: 0x42391, offset: 0x42391, size: 0x8, addend: 0x0, symName: __ZNSt3__19allocatorINS_3mapINS_12basic_stringIcNS_11char_traitsIcEENS0_IcEEEEdNS_4lessIS6_EENS0_INS_4pairIKS6_dEEEEEEE8allocateB8ue170006Em, symObjAddr: 0x13DD0, symBinAddr: 0x100015438, symSize: 0x5C }
  - { offsetInCU: 0x423C5, offset: 0x423C5, size: 0x8, addend: 0x0, symName: __ZNSt3__117__compressed_pairIPNS_3mapINS_12basic_stringIcNS_11char_traitsIcEENS_9allocatorIcEEEEdNS_4lessIS7_EENS5_INS_4pairIKS7_dEEEEEERNS5_ISE_EEE6secondB8ue170006Ev, symObjAddr: 0x13E2C, symBinAddr: 0x100015494, symSize: 0x28 }
  - { offsetInCU: 0x423EB, offset: 0x423EB, size: 0x8, addend: 0x0, symName: __ZNSt3__122__compressed_pair_elemIRNS_9allocatorINS_3mapINS_12basic_stringIcNS_11char_traitsIcEENS1_IcEEEEdNS_4lessIS7_EENS1_INS_4pairIKS7_dEEEEEEEELi1ELb0EE5__getB8ue170006Ev, symObjAddr: 0x13E54, symBinAddr: 0x1000154BC, symSize: 0x18 }
  - { offsetInCU: 0x42411, offset: 0x42411, size: 0x8, addend: 0x0, symName: __ZNSt3__117__compressed_pairIPNS_3mapINS_12basic_stringIcNS_11char_traitsIcEENS_9allocatorIcEEEEdNS_4lessIS7_EENS5_INS_4pairIKS7_dEEEEEERNS5_ISE_EEE5firstB8ue170006Ev, symObjAddr: 0x13E6C, symBinAddr: 0x1000154D4, symSize: 0x24 }
  - { offsetInCU: 0x42437, offset: 0x42437, size: 0x8, addend: 0x0, symName: __ZNKSt3__16vectorINS_3mapINS_12basic_stringIcNS_11char_traitsIcEENS_9allocatorIcEEEEdNS_4lessIS7_EENS5_INS_4pairIKS7_dEEEEEENS5_ISE_EEE17__annotate_deleteB8ue170006Ev, symObjAddr: 0x13E90, symBinAddr: 0x1000154F8, symSize: 0xD4 }
  - { offsetInCU: 0x4245D, offset: 0x4245D, size: 0x8, addend: 0x0, symName: __ZNSt3__116reverse_iteratorIPNS_3mapINS_12basic_stringIcNS_11char_traitsIcEENS_9allocatorIcEEEEdNS_4lessIS7_EENS5_INS_4pairIKS7_dEEEEEEEC1B8ue170006ESF_, symObjAddr: 0x14090, symBinAddr: 0x1000156F8, symSize: 0x34 }
  - { offsetInCU: 0x42495, offset: 0x42495, size: 0x8, addend: 0x0, symName: __ZNKSt3__116reverse_iteratorIPNS_3mapINS_12basic_stringIcNS_11char_traitsIcEENS_9allocatorIcEEEEdNS_4lessIS7_EENS5_INS_4pairIKS7_dEEEEEEE4baseB8ue170006Ev, symObjAddr: 0x140C4, symBinAddr: 0x10001572C, symSize: 0x18 }
  - { offsetInCU: 0x424BB, offset: 0x424BB, size: 0x8, addend: 0x0, symName: __ZNKSt3__16vectorINS_3mapINS_12basic_stringIcNS_11char_traitsIcEENS_9allocatorIcEEEEdNS_4lessIS7_EENS5_INS_4pairIKS7_dEEEEEENS5_ISE_EEE14__annotate_newB8ue170006Em, symObjAddr: 0x14118, symBinAddr: 0x100015780, symSize: 0xC8 }
  - { offsetInCU: 0x424F0, offset: 0x424F0, size: 0x8, addend: 0x0, symName: __ZNKSt3__16vectorINS_3mapINS_12basic_stringIcNS_11char_traitsIcEENS_9allocatorIcEEEEdNS_4lessIS7_EENS5_INS_4pairIKS7_dEEEEEENS5_ISE_EEE31__annotate_contiguous_containerB8ue170006EPKvSI_SI_SI_, symObjAddr: 0x141E0, symBinAddr: 0x100015848, symSize: 0x20 }
  - { offsetInCU: 0x42542, offset: 0x42542, size: 0x8, addend: 0x0, symName: __ZNKSt3__16vectorINS_3mapINS_12basic_stringIcNS_11char_traitsIcEENS_9allocatorIcEEEEdNS_4lessIS7_EENS5_INS_4pairIKS7_dEEEEEENS5_ISE_EEE4dataB8ue170006Ev, symObjAddr: 0x14200, symBinAddr: 0x100015868, symSize: 0x28 }
  - { offsetInCU: 0x42568, offset: 0x42568, size: 0x8, addend: 0x0, symName: __ZNSt3__129_AllocatorDestroyRangeReverseINS_9allocatorINS_3mapINS_12basic_stringIcNS_11char_traitsIcEENS1_IcEEEEdNS_4lessIS7_EENS1_INS_4pairIKS7_dEEEEEEEENS_16reverse_iteratorIPSE_EEEC1B8ue170006ERSF_RSI_SL_, symObjAddr: 0x14274, symBinAddr: 0x1000158DC, symSize: 0x44 }
  - { offsetInCU: 0x425BF, offset: 0x425BF, size: 0x8, addend: 0x0, symName: __ZNSt3__116allocator_traitsINS_9allocatorINS_3mapINS_12basic_stringIcNS_11char_traitsIcEENS1_IcEEEEdNS_4lessIS7_EENS1_INS_4pairIKS7_dEEEEEEEEE9constructB8ue170006ISE_JSE_EvEEvRSF_PT_DpOT0_, symObjAddr: 0x14300, symBinAddr: 0x100015968, symSize: 0x34 }
  - { offsetInCU: 0x42616, offset: 0x42616, size: 0x8, addend: 0x0, symName: __ZNKSt3__116reverse_iteratorIPNS_3mapINS_12basic_stringIcNS_11char_traitsIcEENS_9allocatorIcEEEEdNS_4lessIS7_EENS5_INS_4pairIKS7_dEEEEEEEdeB8ue170006Ev, symObjAddr: 0x14358, symBinAddr: 0x1000159C0, symSize: 0x28 }
  - { offsetInCU: 0x4264A, offset: 0x4264A, size: 0x8, addend: 0x0, symName: __ZNSt3__116reverse_iteratorIPNS_3mapINS_12basic_stringIcNS_11char_traitsIcEENS_9allocatorIcEEEEdNS_4lessIS7_EENS5_INS_4pairIKS7_dEEEEEEEppB8ue170006Ev, symObjAddr: 0x14380, symBinAddr: 0x1000159E8, symSize: 0x20 }
  - { offsetInCU: 0x42670, offset: 0x42670, size: 0x8, addend: 0x0, symName: __ZNSt3__128__exception_guard_exceptionsINS_29_AllocatorDestroyRangeReverseINS_9allocatorINS_3mapINS_12basic_stringIcNS_11char_traitsIcEENS2_IcEEEEdNS_4lessIS8_EENS2_INS_4pairIKS8_dEEEEEEEENS_16reverse_iteratorIPSF_EEEEE10__completeB8ue170006Ev, symObjAddr: 0x143A0, symBinAddr: 0x100015A08, symSize: 0x1C }
  - { offsetInCU: 0x42696, offset: 0x42696, size: 0x8, addend: 0x0, symName: __ZNSt3__128__exception_guard_exceptionsINS_29_AllocatorDestroyRangeReverseINS_9allocatorINS_3mapINS_12basic_stringIcNS_11char_traitsIcEENS2_IcEEEEdNS_4lessIS8_EENS2_INS_4pairIKS8_dEEEEEEEENS_16reverse_iteratorIPSF_EEEEED1B8ue170006Ev, symObjAddr: 0x143BC, symBinAddr: 0x100015A24, symSize: 0x2C }
  - { offsetInCU: 0x426C0, offset: 0x426C0, size: 0x8, addend: 0x0, symName: __ZNSt3__128__exception_guard_exceptionsINS_29_AllocatorDestroyRangeReverseINS_9allocatorINS_3mapINS_12basic_stringIcNS_11char_traitsIcEENS2_IcEEEEdNS_4lessIS8_EENS2_INS_4pairIKS8_dEEEEEEEENS_16reverse_iteratorIPSF_EEEEEC1B8ue170006ESK_, symObjAddr: 0x143E8, symBinAddr: 0x100015A50, symSize: 0x34 }
  - { offsetInCU: 0x426F9, offset: 0x426F9, size: 0x8, addend: 0x0, symName: __ZNSt3__128__exception_guard_exceptionsINS_29_AllocatorDestroyRangeReverseINS_9allocatorINS_3mapINS_12basic_stringIcNS_11char_traitsIcEENS2_IcEEEEdNS_4lessIS8_EENS2_INS_4pairIKS8_dEEEEEEEENS_16reverse_iteratorIPSF_EEEEEC2B8ue170006ESK_, symObjAddr: 0x1441C, symBinAddr: 0x100015A84, symSize: 0x30 }
  - { offsetInCU: 0x42732, offset: 0x42732, size: 0x8, addend: 0x0, symName: __ZNSt3__129_AllocatorDestroyRangeReverseINS_9allocatorINS_3mapINS_12basic_stringIcNS_11char_traitsIcEENS1_IcEEEEdNS_4lessIS7_EENS1_INS_4pairIKS7_dEEEEEEEENS_16reverse_iteratorIPSE_EEEC2B8ue170006ERSF_RSI_SL_, symObjAddr: 0x1444C, symBinAddr: 0x100015AB4, symSize: 0x38 }
  - { offsetInCU: 0x42789, offset: 0x42789, size: 0x8, addend: 0x0, symName: __ZNSt3__19allocatorINS_3mapINS_12basic_stringIcNS_11char_traitsIcEENS0_IcEEEEdNS_4lessIS6_EENS0_INS_4pairIKS6_dEEEEEEE9constructB8ue170006ISD_JSD_EEEvPT_DpOT0_, symObjAddr: 0x14484, symBinAddr: 0x100015AEC, symSize: 0x30 }
  - { offsetInCU: 0x427DF, offset: 0x427DF, size: 0x8, addend: 0x0, symName: __ZNSt3__13mapINS_12basic_stringIcNS_11char_traitsIcEENS_9allocatorIcEEEEdNS_4lessIS6_EENS4_INS_4pairIKS6_dEEEEEC1B8ue170006EOSD_, symObjAddr: 0x144B4, symBinAddr: 0x100015B1C, symSize: 0x34 }
  - { offsetInCU: 0x42818, offset: 0x42818, size: 0x8, addend: 0x0, symName: __ZNSt3__13mapINS_12basic_stringIcNS_11char_traitsIcEENS_9allocatorIcEEEEdNS_4lessIS6_EENS4_INS_4pairIKS6_dEEEEEC2B8ue170006EOSD_, symObjAddr: 0x144E8, symBinAddr: 0x100015B50, symSize: 0x34 }
  - { offsetInCU: 0x42851, offset: 0x42851, size: 0x8, addend: 0x0, symName: __ZNSt3__16__treeINS_12__value_typeINS_12basic_stringIcNS_11char_traitsIcEENS_9allocatorIcEEEEdEENS_19__map_value_compareIS7_S8_NS_4lessIS7_EELb1EEENS5_IS8_EEEC1EOSE_, symObjAddr: 0x1451C, symBinAddr: 0x100015B84, symSize: 0x34 }
  - { offsetInCU: 0x4288C, offset: 0x4288C, size: 0x8, addend: 0x0, symName: __ZNSt3__16__treeINS_12__value_typeINS_12basic_stringIcNS_11char_traitsIcEENS_9allocatorIcEEEEdEENS_19__map_value_compareIS7_S8_NS_4lessIS7_EELb1EEENS5_IS8_EEEC2EOSE_, symObjAddr: 0x14550, symBinAddr: 0x100015BB8, symSize: 0xFC }
  - { offsetInCU: 0x428CD, offset: 0x428CD, size: 0x8, addend: 0x0, symName: __ZNSt3__119__to_address_helperINS_16reverse_iteratorIPNS_3mapINS_12basic_stringIcNS_11char_traitsIcEENS_9allocatorIcEEEEdNS_4lessIS8_EENS6_INS_4pairIKS8_dEEEEEEEEvE6__callB8ue170006ERKSH_, symObjAddr: 0x1464C, symBinAddr: 0x100015CB4, symSize: 0x38 }
  - { offsetInCU: 0x428F0, offset: 0x428F0, size: 0x8, addend: 0x0, symName: __ZNKSt3__116reverse_iteratorIPNS_3mapINS_12basic_stringIcNS_11char_traitsIcEENS_9allocatorIcEEEEdNS_4lessIS7_EENS5_INS_4pairIKS7_dEEEEEEEptB8ue170006Ev, symObjAddr: 0x14684, symBinAddr: 0x100015CEC, symSize: 0x24 }
  - { offsetInCU: 0x42916, offset: 0x42916, size: 0x8, addend: 0x0, symName: __ZNSt3__128__exception_guard_exceptionsINS_29_AllocatorDestroyRangeReverseINS_9allocatorINS_3mapINS_12basic_stringIcNS_11char_traitsIcEENS2_IcEEEEdNS_4lessIS8_EENS2_INS_4pairIKS8_dEEEEEEEENS_16reverse_iteratorIPSF_EEEEED2B8ue170006Ev, symObjAddr: 0x146A8, symBinAddr: 0x100015D10, symSize: 0x50 }
  - { offsetInCU: 0x42940, offset: 0x42940, size: 0x8, addend: 0x0, symName: __ZNKSt3__129_AllocatorDestroyRangeReverseINS_9allocatorINS_3mapINS_12basic_stringIcNS_11char_traitsIcEENS1_IcEEEEdNS_4lessIS7_EENS1_INS_4pairIKS7_dEEEEEEEENS_16reverse_iteratorIPSE_EEEclB8ue170006Ev, symObjAddr: 0x146F8, symBinAddr: 0x100015D60, symSize: 0xB4 }
  - { offsetInCU: 0x42967, offset: 0x42967, size: 0x8, addend: 0x0, symName: __ZNSt3__116reverse_iteratorINS0_IPNS_3mapINS_12basic_stringIcNS_11char_traitsIcEENS_9allocatorIcEEEEdNS_4lessIS7_EENS5_INS_4pairIKS7_dEEEEEEEEEC1B8ue170006ESG_, symObjAddr: 0x1481C, symBinAddr: 0x100015E84, symSize: 0x3C }
  - { offsetInCU: 0x4299F, offset: 0x4299F, size: 0x8, addend: 0x0, symName: __ZNSt3__116allocator_traitsINS_9allocatorINS_3mapINS_12basic_stringIcNS_11char_traitsIcEENS1_IcEEEEdNS_4lessIS7_EENS1_INS_4pairIKS7_dEEEEEEEEE7destroyB8ue170006ISE_vEEvRSF_PT_, symObjAddr: 0x148B8, symBinAddr: 0x100015F20, symSize: 0x2C }
  - { offsetInCU: 0x429DC, offset: 0x429DC, size: 0x8, addend: 0x0, symName: __ZNSt3__116reverse_iteratorINS0_IPNS_3mapINS_12basic_stringIcNS_11char_traitsIcEENS_9allocatorIcEEEEdNS_4lessIS7_EENS5_INS_4pairIKS7_dEEEEEEEEEppB8ue170006Ev, symObjAddr: 0x14908, symBinAddr: 0x100015F70, symSize: 0x30 }
  - { offsetInCU: 0x42A02, offset: 0x42A02, size: 0x8, addend: 0x0, symName: __ZNKSt3__116reverse_iteratorINS0_IPNS_3mapINS_12basic_stringIcNS_11char_traitsIcEENS_9allocatorIcEEEEdNS_4lessIS7_EENS5_INS_4pairIKS7_dEEEEEEEEE4baseB8ue170006Ev, symObjAddr: 0x14938, symBinAddr: 0x100015FA0, symSize: 0x24 }
  - { offsetInCU: 0x42A28, offset: 0x42A28, size: 0x8, addend: 0x0, symName: __ZNSt3__19allocatorINS_3mapINS_12basic_stringIcNS_11char_traitsIcEENS0_IcEEEEdNS_4lessIS6_EENS0_INS_4pairIKS6_dEEEEEEE7destroyB8ue170006EPSD_, symObjAddr: 0x1495C, symBinAddr: 0x100015FC4, symSize: 0x28 }
  - { offsetInCU: 0x42A62, offset: 0x42A62, size: 0x8, addend: 0x0, symName: __ZNSt3__119__to_address_helperINS_16reverse_iteratorINS1_IPNS_3mapINS_12basic_stringIcNS_11char_traitsIcEENS_9allocatorIcEEEEdNS_4lessIS8_EENS6_INS_4pairIKS8_dEEEEEEEEEEvE6__callB8ue170006ERKSI_, symObjAddr: 0x14984, symBinAddr: 0x100015FEC, symSize: 0x38 }
  - { offsetInCU: 0x42A85, offset: 0x42A85, size: 0x8, addend: 0x0, symName: __ZNKSt3__116reverse_iteratorINS0_IPNS_3mapINS_12basic_stringIcNS_11char_traitsIcEENS_9allocatorIcEEEEdNS_4lessIS7_EENS5_INS_4pairIKS7_dEEEEEEEEEptB8ue170006Ev, symObjAddr: 0x149BC, symBinAddr: 0x100016024, symSize: 0x24 }
  - { offsetInCU: 0x42AAB, offset: 0x42AAB, size: 0x8, addend: 0x0, symName: __ZNKSt3__116reverse_iteratorINS0_IPNS_3mapINS_12basic_stringIcNS_11char_traitsIcEENS_9allocatorIcEEEEdNS_4lessIS7_EENS5_INS_4pairIKS7_dEEEEEEEEEdeB8ue170006Ev, symObjAddr: 0x149E0, symBinAddr: 0x100016048, symSize: 0x34 }
  - { offsetInCU: 0x42ADF, offset: 0x42ADF, size: 0x8, addend: 0x0, symName: __ZNSt3__116reverse_iteratorIPNS_3mapINS_12basic_stringIcNS_11char_traitsIcEENS_9allocatorIcEEEEdNS_4lessIS7_EENS5_INS_4pairIKS7_dEEEEEEEmmB8ue170006Ev, symObjAddr: 0x14A14, symBinAddr: 0x10001607C, symSize: 0x20 }
  - { offsetInCU: 0x42B05, offset: 0x42B05, size: 0x8, addend: 0x0, symName: __ZNSt3__116reverse_iteratorINS0_IPNS_3mapINS_12basic_stringIcNS_11char_traitsIcEENS_9allocatorIcEEEEdNS_4lessIS7_EENS5_INS_4pairIKS7_dEEEEEEEEEC2B8ue170006ESG_, symObjAddr: 0x14A34, symBinAddr: 0x10001609C, symSize: 0x2C }
  - { offsetInCU: 0x42B3D, offset: 0x42B3D, size: 0x8, addend: 0x0, symName: __ZNSt3__116reverse_iteratorIPNS_3mapINS_12basic_stringIcNS_11char_traitsIcEENS_9allocatorIcEEEEdNS_4lessIS7_EENS5_INS_4pairIKS7_dEEEEEEEC2B8ue170006ESF_, symObjAddr: 0x14A60, symBinAddr: 0x1000160C8, symSize: 0x28 }
  - { offsetInCU: 0x42B75, offset: 0x42B75, size: 0x8, addend: 0x0, symName: __ZNSt3__114__split_bufferINS_3mapINS_12basic_stringIcNS_11char_traitsIcEENS_9allocatorIcEEEEdNS_4lessIS7_EENS5_INS_4pairIKS7_dEEEEEERNS5_ISE_EEED2Ev, symObjAddr: 0x14A88, symBinAddr: 0x1000160F0, symSize: 0x8C }
  - { offsetInCU: 0x42BA1, offset: 0x42BA1, size: 0x8, addend: 0x0, symName: __ZNSt3__114__split_bufferINS_3mapINS_12basic_stringIcNS_11char_traitsIcEENS_9allocatorIcEEEEdNS_4lessIS7_EENS5_INS_4pairIKS7_dEEEEEERNS5_ISE_EEE5clearB8ue170006Ev, symObjAddr: 0x14B14, symBinAddr: 0x10001617C, symSize: 0x28 }
  - { offsetInCU: 0x42BC7, offset: 0x42BC7, size: 0x8, addend: 0x0, symName: __ZNSt3__116allocator_traitsINS_9allocatorINS_3mapINS_12basic_stringIcNS_11char_traitsIcEENS1_IcEEEEdNS_4lessIS7_EENS1_INS_4pairIKS7_dEEEEEEEEE10deallocateB8ue170006ERSF_PSE_m, symObjAddr: 0x14B3C, symBinAddr: 0x1000161A4, symSize: 0x34 }
  - { offsetInCU: 0x42C09, offset: 0x42C09, size: 0x8, addend: 0x0, symName: __ZNKSt3__114__split_bufferINS_3mapINS_12basic_stringIcNS_11char_traitsIcEENS_9allocatorIcEEEEdNS_4lessIS7_EENS5_INS_4pairIKS7_dEEEEEERNS5_ISE_EEE8capacityB8ue170006Ev, symObjAddr: 0x14B70, symBinAddr: 0x1000161D8, symSize: 0x40 }
  - { offsetInCU: 0x42C2F, offset: 0x42C2F, size: 0x8, addend: 0x0, symName: __ZNSt3__114__split_bufferINS_3mapINS_12basic_stringIcNS_11char_traitsIcEENS_9allocatorIcEEEEdNS_4lessIS7_EENS5_INS_4pairIKS7_dEEEEEERNS5_ISE_EEE17__destruct_at_endB8ue170006EPSE_, symObjAddr: 0x14BB0, symBinAddr: 0x100016218, symSize: 0x2C }
  - { offsetInCU: 0x42C63, offset: 0x42C63, size: 0x8, addend: 0x0, symName: __ZNSt3__114__split_bufferINS_3mapINS_12basic_stringIcNS_11char_traitsIcEENS_9allocatorIcEEEEdNS_4lessIS7_EENS5_INS_4pairIKS7_dEEEEEERNS5_ISE_EEE17__destruct_at_endB8ue170006EPSE_NS_17integral_constantIbLb0EEE, symObjAddr: 0x14BDC, symBinAddr: 0x100016244, symSize: 0x80 }
  - { offsetInCU: 0x42CA3, offset: 0x42CA3, size: 0x8, addend: 0x0, symName: __ZNSt3__19allocatorINS_3mapINS_12basic_stringIcNS_11char_traitsIcEENS0_IcEEEEdNS_4lessIS6_EENS0_INS_4pairIKS6_dEEEEEEE10deallocateB8ue170006EPSD_m, symObjAddr: 0x14C5C, symBinAddr: 0x1000162C4, symSize: 0x44 }
  - { offsetInCU: 0x42CE5, offset: 0x42CE5, size: 0x8, addend: 0x0, symName: __ZNKSt3__114__split_bufferINS_3mapINS_12basic_stringIcNS_11char_traitsIcEENS_9allocatorIcEEEEdNS_4lessIS7_EENS5_INS_4pairIKS7_dEEEEEERNS5_ISE_EEE9__end_capB8ue170006Ev, symObjAddr: 0x14CA0, symBinAddr: 0x100016308, symSize: 0x28 }
  - { offsetInCU: 0x42D0B, offset: 0x42D0B, size: 0x8, addend: 0x0, symName: __ZNKSt3__117__compressed_pairIPNS_3mapINS_12basic_stringIcNS_11char_traitsIcEENS_9allocatorIcEEEEdNS_4lessIS7_EENS5_INS_4pairIKS7_dEEEEEERNS5_ISE_EEE5firstB8ue170006Ev, symObjAddr: 0x14CC8, symBinAddr: 0x100016330, symSize: 0x24 }
  - { offsetInCU: 0x42D31, offset: 0x42D31, size: 0x8, addend: 0x0, symName: __ZNSt3__16vectorINS_3mapINS_12basic_stringIcNS_11char_traitsIcEENS_9allocatorIcEEEEdNS_4lessIS7_EENS5_INS_4pairIKS7_dEEEEEENS5_ISE_EEE13__move_assignERSG_NS_17integral_constantIbLb1EEE, symObjAddr: 0x14CEC, symBinAddr: 0x100016354, symSize: 0x94 }
  - { offsetInCU: 0x42D73, offset: 0x42D73, size: 0x8, addend: 0x0, symName: __ZNSt3__16vectorINS_3mapINS_12basic_stringIcNS_11char_traitsIcEENS_9allocatorIcEEEEdNS_4lessIS7_EENS5_INS_4pairIKS7_dEEEEEENS5_ISE_EEE13__vdeallocateEv, symObjAddr: 0x14D80, symBinAddr: 0x1000163E8, symSize: 0x94 }
  - { offsetInCU: 0x42D9B, offset: 0x42D9B, size: 0x8, addend: 0x0, symName: __ZNSt3__16vectorINS_3mapINS_12basic_stringIcNS_11char_traitsIcEENS_9allocatorIcEEEEdNS_4lessIS7_EENS5_INS_4pairIKS7_dEEEEEENS5_ISE_EEE19__move_assign_allocB8ue170006ERSG_, symObjAddr: 0x14E14, symBinAddr: 0x10001647C, symSize: 0x2C }
  - { offsetInCU: 0x42DD0, offset: 0x42DD0, size: 0x8, addend: 0x0, symName: __ZNSt3__16vectorINS_3mapINS_12basic_stringIcNS_11char_traitsIcEENS_9allocatorIcEEEEdNS_4lessIS7_EENS5_INS_4pairIKS7_dEEEEEENS5_ISE_EEE5clearB8ue170006Ev, symObjAddr: 0x14E40, symBinAddr: 0x1000164A8, symSize: 0x44 }
  - { offsetInCU: 0x42E05, offset: 0x42E05, size: 0x8, addend: 0x0, symName: __ZNSt3__16vectorINS_3mapINS_12basic_stringIcNS_11char_traitsIcEENS_9allocatorIcEEEEdNS_4lessIS7_EENS5_INS_4pairIKS7_dEEEEEENS5_ISE_EEE7__clearB8ue170006Ev, symObjAddr: 0x14E84, symBinAddr: 0x1000164EC, symSize: 0x28 }
  - { offsetInCU: 0x42E2B, offset: 0x42E2B, size: 0x8, addend: 0x0, symName: __ZNKSt3__16vectorINS_3mapINS_12basic_stringIcNS_11char_traitsIcEENS_9allocatorIcEEEEdNS_4lessIS7_EENS5_INS_4pairIKS7_dEEEEEENS5_ISE_EEE17__annotate_shrinkB8ue170006Em, symObjAddr: 0x14EAC, symBinAddr: 0x100016514, symSize: 0xD0 }
  - { offsetInCU: 0x42E60, offset: 0x42E60, size: 0x8, addend: 0x0, symName: __ZNSt3__16vectorINS_3mapINS_12basic_stringIcNS_11char_traitsIcEENS_9allocatorIcEEEEdNS_4lessIS7_EENS5_INS_4pairIKS7_dEEEEEENS5_ISE_EEE22__base_destruct_at_endB8ue170006EPSE_, symObjAddr: 0x14F7C, symBinAddr: 0x1000165E4, symSize: 0x8C }
  - { offsetInCU: 0x42EA4, offset: 0x42EA4, size: 0x8, addend: 0x0, symName: __ZNSt3__16vectorINS_3mapINS_12basic_stringIcNS_11char_traitsIcEENS_9allocatorIcEEEEdNS_4lessIS7_EENS5_INS_4pairIKS7_dEEEEEENS5_ISE_EEE19__move_assign_allocB8ue170006ERSG_NS_17integral_constantIbLb1EEE, symObjAddr: 0x15008, symBinAddr: 0x100016670, symSize: 0x38 }
  - { offsetInCU: 0x42EE4, offset: 0x42EE4, size: 0x8, addend: 0x0, symName: __ZNSt3__16vectorINS_3mapINS_12basic_stringIcNS_11char_traitsIcEENS_9allocatorIcEEEEdNS_4lessIS7_EENS5_INS_4pairIKS7_dEEEEEENS5_ISE_EEED2B8ue170006Ev, symObjAddr: 0x15040, symBinAddr: 0x1000166A8, symSize: 0x44 }
  - { offsetInCU: 0x42F0E, offset: 0x42F0E, size: 0x8, addend: 0x0, symName: __ZNSt3__16vectorINS_3mapINS_12basic_stringIcNS_11char_traitsIcEENS_9allocatorIcEEEEdNS_4lessIS7_EENS5_INS_4pairIKS7_dEEEEEENS5_ISE_EEE16__destroy_vectorC1B8ue170006ERSG_, symObjAddr: 0x15084, symBinAddr: 0x1000166EC, symSize: 0x34 }
  - { offsetInCU: 0x42F47, offset: 0x42F47, size: 0x8, addend: 0x0, symName: __ZNSt3__16vectorINS_3mapINS_12basic_stringIcNS_11char_traitsIcEENS_9allocatorIcEEEEdNS_4lessIS7_EENS5_INS_4pairIKS7_dEEEEEENS5_ISE_EEE16__destroy_vectorclB8ue170006Ev, symObjAddr: 0x150B8, symBinAddr: 0x100016720, symSize: 0x90 }
  - { offsetInCU: 0x42F6D, offset: 0x42F6D, size: 0x8, addend: 0x0, symName: __ZNSt3__16vectorINS_3mapINS_12basic_stringIcNS_11char_traitsIcEENS_9allocatorIcEEEEdNS_4lessIS7_EENS5_INS_4pairIKS7_dEEEEEENS5_ISE_EEE16__destroy_vectorC2B8ue170006ERSG_, symObjAddr: 0x15148, symBinAddr: 0x1000167B0, symSize: 0x20 }
  - { offsetInCU: 0x42FA6, offset: 0x42FA6, size: 0x8, addend: 0x0, symName: __ZNSt3__16__treeINS_12__value_typeINS_12basic_stringIcNS_11char_traitsIcEENS_9allocatorIcEEEEdEENS_19__map_value_compareIS7_S8_NS_4lessIS7_EELb1EEENS5_IS8_EEEaSEOSE_, symObjAddr: 0x15168, symBinAddr: 0x1000167D0, symSize: 0x34 }
  - { offsetInCU: 0x42FDD, offset: 0x42FDD, size: 0x8, addend: 0x0, symName: __ZNSt3__16__treeINS_12__value_typeINS_12basic_stringIcNS_11char_traitsIcEENS_9allocatorIcEEEEdEENS_19__map_value_compareIS7_S8_NS_4lessIS7_EELb1EEENS5_IS8_EEE13__move_assignERSE_NS_17integral_constantIbLb1EEE, symObjAddr: 0x1519C, symBinAddr: 0x100016804, symSize: 0x138 }
  - { offsetInCU: 0x4301F, offset: 0x4301F, size: 0x8, addend: 0x0, symName: __ZNSt3__16__treeINS_12__value_typeINS_12basic_stringIcNS_11char_traitsIcEENS_9allocatorIcEEEEdEENS_19__map_value_compareIS7_S8_NS_4lessIS7_EELb1EEENS5_IS8_EEE19__move_assign_allocB8ue170006ERSE_, symObjAddr: 0x152D4, symBinAddr: 0x10001693C, symSize: 0x2C }
  - { offsetInCU: 0x43054, offset: 0x43054, size: 0x8, addend: 0x0, symName: __ZNSt3__16__treeINS_12__value_typeINS_12basic_stringIcNS_11char_traitsIcEENS_9allocatorIcEEEEdEENS_19__map_value_compareIS7_S8_NS_4lessIS7_EELb1EEENS5_IS8_EEE19__move_assign_allocB8ue170006ERSE_NS_17integral_constantIbLb1EEE, symObjAddr: 0x15300, symBinAddr: 0x100016968, symSize: 0x38 }
  - { offsetInCU: 0x43094, offset: 0x43094, size: 0x8, addend: 0x0, symName: __ZN14naivePortfolioD2Ev, symObjAddr: 0x15338, symBinAddr: 0x1000169A0, symSize: 0x2C }
  - { offsetInCU: 0x430C0, offset: 0x430C0, size: 0x8, addend: 0x0, symName: __ZNSt3__13mapINS_12basic_stringIcNS_11char_traitsIcEENS_9allocatorIcEEEE3barNS_4lessIS6_EENS4_INS_4pairIKS6_S7_EEEEEC1B8ue170006Ev, symObjAddr: 0x15364, symBinAddr: 0x1000169CC, symSize: 0x2C }
  - { offsetInCU: 0x430EA, offset: 0x430EA, size: 0x8, addend: 0x0, symName: __ZNSt3__16vectorI3barNS_9allocatorIS1_EEE4backB8ue170006Ev, symObjAddr: 0x15390, symBinAddr: 0x1000169F8, symSize: 0x1C }
  - { offsetInCU: 0x43110, offset: 0x43110, size: 0x8, addend: 0x0, symName: __ZNSt3__13mapINS_12basic_stringIcNS_11char_traitsIcEENS_9allocatorIcEEEE3barNS_4lessIS6_EENS4_INS_4pairIKS6_S7_EEEEEixERSB_, symObjAddr: 0x153AC, symBinAddr: 0x100016A14, symSize: 0x80 }
  - { offsetInCU: 0x43147, offset: 0x43147, size: 0x8, addend: 0x0, symName: __ZNSt3__16vectorINS_12basic_stringIcNS_11char_traitsIcEENS_9allocatorIcEEEENS4_IS6_EEE2atEm, symObjAddr: 0x1542C, symBinAddr: 0x100016A94, symSize: 0x68 }
  - { offsetInCU: 0x4317E, offset: 0x4317E, size: 0x8, addend: 0x0, symName: __ZNSt3__13mapINS_12basic_stringIcNS_11char_traitsIcEENS_9allocatorIcEEEEdNS_4lessIS6_EENS4_INS_4pairIKS6_dEEEEEaSB8ue170006ERKSD_, symObjAddr: 0x15494, symBinAddr: 0x100016AFC, symSize: 0x34 }
  - { offsetInCU: 0x431B3, offset: 0x431B3, size: 0x8, addend: 0x0, symName: __ZNSt3__13mapINS_12basic_stringIcNS_11char_traitsIcEENS_9allocatorIcEEEE3barNS_4lessIS6_EENS4_INS_4pairIKS6_S7_EEEEED1B8ue170006Ev, symObjAddr: 0x154C8, symBinAddr: 0x100016B30, symSize: 0x2C }
  - { offsetInCU: 0x431DD, offset: 0x431DD, size: 0x8, addend: 0x0, symName: __ZNSt3__13mapINS_12basic_stringIcNS_11char_traitsIcEENS_9allocatorIcEEEE3barNS_4lessIS6_EENS4_INS_4pairIKS6_S7_EEEEEC2B8ue170006Ev, symObjAddr: 0x154F4, symBinAddr: 0x100016B5C, symSize: 0x40 }
  - { offsetInCU: 0x43207, offset: 0x43207, size: 0x8, addend: 0x0, symName: __ZNSt3__119__map_value_compareINS_12basic_stringIcNS_11char_traitsIcEENS_9allocatorIcEEEENS_12__value_typeIS6_3barEENS_4lessIS6_EELb1EEC1B8ue170006ESB_, symObjAddr: 0x15534, symBinAddr: 0x100016B9C, symSize: 0x2C }
  - { offsetInCU: 0x43240, offset: 0x43240, size: 0x8, addend: 0x0, symName: __ZNSt3__16__treeINS_12__value_typeINS_12basic_stringIcNS_11char_traitsIcEENS_9allocatorIcEEEE3barEENS_19__map_value_compareIS7_S9_NS_4lessIS7_EELb1EEENS5_IS9_EEEC1ERKSD_, symObjAddr: 0x15560, symBinAddr: 0x100016BC8, symSize: 0x34 }
  - { offsetInCU: 0x4327B, offset: 0x4327B, size: 0x8, addend: 0x0, symName: __ZNSt3__119__map_value_compareINS_12basic_stringIcNS_11char_traitsIcEENS_9allocatorIcEEEENS_12__value_typeIS6_3barEENS_4lessIS6_EELb1EEC2B8ue170006ESB_, symObjAddr: 0x15594, symBinAddr: 0x100016BFC, symSize: 0x14 }
  - { offsetInCU: 0x432B4, offset: 0x432B4, size: 0x8, addend: 0x0, symName: __ZNSt3__16__treeINS_12__value_typeINS_12basic_stringIcNS_11char_traitsIcEENS_9allocatorIcEEEE3barEENS_19__map_value_compareIS7_S9_NS_4lessIS7_EELb1EEENS5_IS9_EEEC2ERKSD_, symObjAddr: 0x155A8, symBinAddr: 0x100016C10, symSize: 0x7C }
  - { offsetInCU: 0x432EF, offset: 0x432EF, size: 0x8, addend: 0x0, symName: __ZNSt3__117__compressed_pairINS_15__tree_end_nodeIPNS_16__tree_node_baseIPvEEEENS_9allocatorINS_11__tree_nodeINS_12__value_typeINS_12basic_stringIcNS_11char_traitsIcEENS7_IcEEEE3barEES3_EEEEEC1B8ue170006ILb1EvEEv, symObjAddr: 0x15624, symBinAddr: 0x100016C8C, symSize: 0x2C }
  - { offsetInCU: 0x43324, offset: 0x43324, size: 0x8, addend: 0x0, symName: __ZNSt3__117__compressed_pairImNS_19__map_value_compareINS_12basic_stringIcNS_11char_traitsIcEENS_9allocatorIcEEEENS_12__value_typeIS7_3barEENS_4lessIS7_EELb1EEEEC1B8ue170006IiRKSD_EEOT_OT0_, symObjAddr: 0x15650, symBinAddr: 0x100016CB8, symSize: 0x3C }
  - { offsetInCU: 0x4337C, offset: 0x4337C, size: 0x8, addend: 0x0, symName: __ZNSt3__16__treeINS_12__value_typeINS_12basic_stringIcNS_11char_traitsIcEENS_9allocatorIcEEEE3barEENS_19__map_value_compareIS7_S9_NS_4lessIS7_EELb1EEENS5_IS9_EEE10__end_nodeB8ue170006Ev, symObjAddr: 0x1568C, symBinAddr: 0x100016CF4, symSize: 0x2C }
  - { offsetInCU: 0x433A2, offset: 0x433A2, size: 0x8, addend: 0x0, symName: __ZNSt3__16__treeINS_12__value_typeINS_12basic_stringIcNS_11char_traitsIcEENS_9allocatorIcEEEE3barEENS_19__map_value_compareIS7_S9_NS_4lessIS7_EELb1EEENS5_IS9_EEE12__begin_nodeB8ue170006Ev, symObjAddr: 0x156B8, symBinAddr: 0x100016D20, symSize: 0x14 }
  - { offsetInCU: 0x433C8, offset: 0x433C8, size: 0x8, addend: 0x0, symName: __ZNSt3__117__compressed_pairINS_15__tree_end_nodeIPNS_16__tree_node_baseIPvEEEENS_9allocatorINS_11__tree_nodeINS_12__value_typeINS_12basic_stringIcNS_11char_traitsIcEENS7_IcEEEE3barEES3_EEEEEC2B8ue170006ILb1EvEEv, symObjAddr: 0x156CC, symBinAddr: 0x100016D34, symSize: 0x34 }
  - { offsetInCU: 0x433FD, offset: 0x433FD, size: 0x8, addend: 0x0, symName: __ZNSt3__122__compressed_pair_elemINS_9allocatorINS_11__tree_nodeINS_12__value_typeINS_12basic_stringIcNS_11char_traitsIcEENS1_IcEEEE3barEEPvEEEELi1ELb1EEC2B8ue170006ENS_16__value_init_tagE, symObjAddr: 0x15700, symBinAddr: 0x100016D68, symSize: 0x2C }
  - { offsetInCU: 0x43431, offset: 0x43431, size: 0x8, addend: 0x0, symName: __ZNSt3__19allocatorINS_11__tree_nodeINS_12__value_typeINS_12basic_stringIcNS_11char_traitsIcEENS0_IcEEEE3barEEPvEEEC2B8ue170006Ev, symObjAddr: 0x1572C, symBinAddr: 0x100016D94, symSize: 0x2C }
  - { offsetInCU: 0x4345B, offset: 0x4345B, size: 0x8, addend: 0x0, symName: __ZNSt3__116__non_trivial_ifILb1ENS_9allocatorINS_11__tree_nodeINS_12__value_typeINS_12basic_stringIcNS_11char_traitsIcEENS1_IcEEEE3barEEPvEEEEEC2B8ue170006Ev, symObjAddr: 0x15758, symBinAddr: 0x100016DC0, symSize: 0x14 }
  - { offsetInCU: 0x43485, offset: 0x43485, size: 0x8, addend: 0x0, symName: __ZNSt3__117__compressed_pairImNS_19__map_value_compareINS_12basic_stringIcNS_11char_traitsIcEENS_9allocatorIcEEEENS_12__value_typeIS7_3barEENS_4lessIS7_EELb1EEEEC2B8ue170006IiRKSD_EEOT_OT0_, symObjAddr: 0x1576C, symBinAddr: 0x100016DD4, symSize: 0x44 }
  - { offsetInCU: 0x434DD, offset: 0x434DD, size: 0x8, addend: 0x0, symName: __ZNSt3__122__compressed_pair_elemINS_19__map_value_compareINS_12basic_stringIcNS_11char_traitsIcEENS_9allocatorIcEEEENS_12__value_typeIS7_3barEENS_4lessIS7_EELb1EEELi1ELb1EEC2B8ue170006IRKSD_vEEOT_, symObjAddr: 0x157B0, symBinAddr: 0x100016E18, symSize: 0x18 }
  - { offsetInCU: 0x4351F, offset: 0x4351F, size: 0x8, addend: 0x0, symName: __ZNSt3__117__compressed_pairINS_15__tree_end_nodeIPNS_16__tree_node_baseIPvEEEENS_9allocatorINS_11__tree_nodeINS_12__value_typeINS_12basic_stringIcNS_11char_traitsIcEENS7_IcEEEE3barEES3_EEEEE5firstB8ue170006Ev, symObjAddr: 0x157C8, symBinAddr: 0x100016E30, symSize: 0x24 }
  - { offsetInCU: 0x43545, offset: 0x43545, size: 0x8, addend: 0x0, symName: __ZNSt3__16__treeINS_12__value_typeINS_12basic_stringIcNS_11char_traitsIcEENS_9allocatorIcEEEE3barEENS_19__map_value_compareIS7_S9_NS_4lessIS7_EELb1EEENS5_IS9_EEE25__emplace_unique_key_argsIS7_JRKNS_21piecewise_construct_tENS_5tupleIJRKS7_EEENSK_IJEEEEEENS_4pairINS_15__tree_iteratorIS9_PNS_11__tree_nodeIS9_PvEElEEbEERKT_DpOT0_, symObjAddr: 0x157EC, symBinAddr: 0x100016E54, symSize: 0x100 }
  - { offsetInCU: 0x4361B, offset: 0x4361B, size: 0x8, addend: 0x0, symName: __ZNKSt3__115__tree_iteratorINS_12__value_typeINS_12basic_stringIcNS_11char_traitsIcEENS_9allocatorIcEEEE3barEEPNS_11__tree_nodeIS9_PvEElEptB8ue170006Ev, symObjAddr: 0x158EC, symBinAddr: 0x100016F54, symSize: 0x2C }
  - { offsetInCU: 0x43641, offset: 0x43641, size: 0x8, addend: 0x0, symName: __ZNSt3__112__value_typeINS_12basic_stringIcNS_11char_traitsIcEENS_9allocatorIcEEEE3barE11__get_valueB8ue170006Ev, symObjAddr: 0x15918, symBinAddr: 0x100016F80, symSize: 0x14 }
  - { offsetInCU: 0x43667, offset: 0x43667, size: 0x8, addend: 0x0, symName: __ZNSt3__16__treeINS_12__value_typeINS_12basic_stringIcNS_11char_traitsIcEENS_9allocatorIcEEEE3barEENS_19__map_value_compareIS7_S9_NS_4lessIS7_EELb1EEENS5_IS9_EEE12__find_equalIS7_EERPNS_16__tree_node_baseIPvEERPNS_15__tree_end_nodeISK_EERKT_, symObjAddr: 0x1592C, symBinAddr: 0x100016F94, symSize: 0x184 }
  - { offsetInCU: 0x436D4, offset: 0x436D4, size: 0x8, addend: 0x0, symName: __ZNSt3__16__treeINS_12__value_typeINS_12basic_stringIcNS_11char_traitsIcEENS_9allocatorIcEEEE3barEENS_19__map_value_compareIS7_S9_NS_4lessIS7_EELb1EEENS5_IS9_EEE16__construct_nodeIJRKNS_21piecewise_construct_tENS_5tupleIJRKS7_EEENSK_IJEEEEEENS_10unique_ptrINS_11__tree_nodeIS9_PvEENS_22__tree_node_destructorINS5_ISS_EEEEEEDpOT_, symObjAddr: 0x15AB0, symBinAddr: 0x100017118, symSize: 0x120 }
  - { offsetInCU: 0x4375D, offset: 0x4375D, size: 0x8, addend: 0x0, symName: __ZNSt3__16__treeINS_12__value_typeINS_12basic_stringIcNS_11char_traitsIcEENS_9allocatorIcEEEE3barEENS_19__map_value_compareIS7_S9_NS_4lessIS7_EELb1EEENS5_IS9_EEE16__insert_node_atEPNS_15__tree_end_nodeIPNS_16__tree_node_baseIPvEEEERSK_SK_, symObjAddr: 0x15BD0, symBinAddr: 0x100017238, symSize: 0xCC }
  - { offsetInCU: 0x437B2, offset: 0x437B2, size: 0x8, addend: 0x0, symName: __ZNKSt3__110unique_ptrINS_11__tree_nodeINS_12__value_typeINS_12basic_stringIcNS_11char_traitsIcEENS_9allocatorIcEEEE3barEEPvEENS_22__tree_node_destructorINS6_ISC_EEEEE3getB8ue170006Ev, symObjAddr: 0x15C9C, symBinAddr: 0x100017304, symSize: 0x28 }
  - { offsetInCU: 0x437D8, offset: 0x437D8, size: 0x8, addend: 0x0, symName: __ZNSt3__110unique_ptrINS_11__tree_nodeINS_12__value_typeINS_12basic_stringIcNS_11char_traitsIcEENS_9allocatorIcEEEE3barEEPvEENS_22__tree_node_destructorINS6_ISC_EEEEE7releaseB8ue170006Ev, symObjAddr: 0x15CC4, symBinAddr: 0x10001732C, symSize: 0x44 }
  - { offsetInCU: 0x4380D, offset: 0x4380D, size: 0x8, addend: 0x0, symName: __ZNSt3__110unique_ptrINS_11__tree_nodeINS_12__value_typeINS_12basic_stringIcNS_11char_traitsIcEENS_9allocatorIcEEEE3barEEPvEENS_22__tree_node_destructorINS6_ISC_EEEEED1B8ue170006Ev, symObjAddr: 0x15D08, symBinAddr: 0x100017370, symSize: 0x2C }
  - { offsetInCU: 0x43837, offset: 0x43837, size: 0x8, addend: 0x0, symName: __ZNSt3__115__tree_iteratorINS_12__value_typeINS_12basic_stringIcNS_11char_traitsIcEENS_9allocatorIcEEEE3barEEPNS_11__tree_nodeIS9_PvEElEC1B8ue170006ESD_, symObjAddr: 0x15D34, symBinAddr: 0x10001739C, symSize: 0x34 }
  - { offsetInCU: 0x43876, offset: 0x43876, size: 0x8, addend: 0x0, symName: __ZNSt3__14pairINS_15__tree_iteratorINS_12__value_typeINS_12basic_stringIcNS_11char_traitsIcEENS_9allocatorIcEEEE3barEEPNS_11__tree_nodeISA_PvEElEEbEC1B8ue170006ISF_RbLSC_0EEEOT_OT0_, symObjAddr: 0x15D68, symBinAddr: 0x1000173D0, symSize: 0x3C }
  - { offsetInCU: 0x438D4, offset: 0x438D4, size: 0x8, addend: 0x0, symName: __ZNKSt3__16__treeINS_12__value_typeINS_12basic_stringIcNS_11char_traitsIcEENS_9allocatorIcEEEE3barEENS_19__map_value_compareIS7_S9_NS_4lessIS7_EELb1EEENS5_IS9_EEE6__rootB8ue170006Ev, symObjAddr: 0x15DA4, symBinAddr: 0x10001740C, symSize: 0x28 }
  - { offsetInCU: 0x438FA, offset: 0x438FA, size: 0x8, addend: 0x0, symName: __ZNKSt3__16__treeINS_12__value_typeINS_12basic_stringIcNS_11char_traitsIcEENS_9allocatorIcEEEE3barEENS_19__map_value_compareIS7_S9_NS_4lessIS7_EELb1EEENS5_IS9_EEE10__root_ptrB8ue170006Ev, symObjAddr: 0x15DCC, symBinAddr: 0x100017434, symSize: 0x24 }
  - { offsetInCU: 0x43920, offset: 0x43920, size: 0x8, addend: 0x0, symName: __ZNSt3__16__treeINS_12__value_typeINS_12basic_stringIcNS_11char_traitsIcEENS_9allocatorIcEEEE3barEENS_19__map_value_compareIS7_S9_NS_4lessIS7_EELb1EEENS5_IS9_EEE10value_compB8ue170006Ev, symObjAddr: 0x15DF0, symBinAddr: 0x100017458, symSize: 0x28 }
  - { offsetInCU: 0x43946, offset: 0x43946, size: 0x8, addend: 0x0, symName: __ZNKSt3__119__map_value_compareINS_12basic_stringIcNS_11char_traitsIcEENS_9allocatorIcEEEENS_12__value_typeIS6_3barEENS_4lessIS6_EELb1EEclB8ue170006ERKS6_RKS9_, symObjAddr: 0x15E18, symBinAddr: 0x100017480, symSize: 0x50 }
  - { offsetInCU: 0x4398A, offset: 0x4398A, size: 0x8, addend: 0x0, symName: __ZNKSt3__119__map_value_compareINS_12basic_stringIcNS_11char_traitsIcEENS_9allocatorIcEEEENS_12__value_typeIS6_3barEENS_4lessIS6_EELb1EEclB8ue170006ERKS9_RKS6_, symObjAddr: 0x15E68, symBinAddr: 0x1000174D0, symSize: 0x48 }
  - { offsetInCU: 0x439CE, offset: 0x439CE, size: 0x8, addend: 0x0, symName: __ZNKSt3__16__treeINS_12__value_typeINS_12basic_stringIcNS_11char_traitsIcEENS_9allocatorIcEEEE3barEENS_19__map_value_compareIS7_S9_NS_4lessIS7_EELb1EEENS5_IS9_EEE10__end_nodeB8ue170006Ev, symObjAddr: 0x15EB0, symBinAddr: 0x100017518, symSize: 0x2C }
  - { offsetInCU: 0x439F4, offset: 0x439F4, size: 0x8, addend: 0x0, symName: __ZNKSt3__117__compressed_pairINS_15__tree_end_nodeIPNS_16__tree_node_baseIPvEEEENS_9allocatorINS_11__tree_nodeINS_12__value_typeINS_12basic_stringIcNS_11char_traitsIcEENS7_IcEEEE3barEES3_EEEEE5firstB8ue170006Ev, symObjAddr: 0x15EDC, symBinAddr: 0x100017544, symSize: 0x24 }
  - { offsetInCU: 0x43A1A, offset: 0x43A1A, size: 0x8, addend: 0x0, symName: __ZNSt3__117__compressed_pairImNS_19__map_value_compareINS_12basic_stringIcNS_11char_traitsIcEENS_9allocatorIcEEEENS_12__value_typeIS7_3barEENS_4lessIS7_EELb1EEEE6secondB8ue170006Ev, symObjAddr: 0x15F00, symBinAddr: 0x100017568, symSize: 0x24 }
  - { offsetInCU: 0x43A40, offset: 0x43A40, size: 0x8, addend: 0x0, symName: __ZNSt3__122__compressed_pair_elemINS_19__map_value_compareINS_12basic_stringIcNS_11char_traitsIcEENS_9allocatorIcEEEENS_12__value_typeIS7_3barEENS_4lessIS7_EELb1EEELi1ELb1EE5__getB8ue170006Ev, symObjAddr: 0x15F24, symBinAddr: 0x10001758C, symSize: 0x14 }
  - { offsetInCU: 0x43A66, offset: 0x43A66, size: 0x8, addend: 0x0, symName: __ZNKSt3__112__value_typeINS_12basic_stringIcNS_11char_traitsIcEENS_9allocatorIcEEEE3barE11__get_valueB8ue170006Ev, symObjAddr: 0x15F38, symBinAddr: 0x1000175A0, symSize: 0x14 }
  - { offsetInCU: 0x43A8C, offset: 0x43A8C, size: 0x8, addend: 0x0, symName: __ZNSt3__16__treeINS_12__value_typeINS_12basic_stringIcNS_11char_traitsIcEENS_9allocatorIcEEEE3barEENS_19__map_value_compareIS7_S9_NS_4lessIS7_EELb1EEENS5_IS9_EEE12__node_allocB8ue170006Ev, symObjAddr: 0x15F4C, symBinAddr: 0x1000175B4, symSize: 0x28 }
  - { offsetInCU: 0x43AB2, offset: 0x43AB2, size: 0x8, addend: 0x0, symName: __ZNSt3__116allocator_traitsINS_9allocatorINS_11__tree_nodeINS_12__value_typeINS_12basic_stringIcNS_11char_traitsIcEENS1_IcEEEE3barEEPvEEEEE8allocateB8ue170006ERSD_m, symObjAddr: 0x15F74, symBinAddr: 0x1000175DC, symSize: 0x2C }
  - { offsetInCU: 0x43AE5, offset: 0x43AE5, size: 0x8, addend: 0x0, symName: __ZNSt3__122__tree_node_destructorINS_9allocatorINS_11__tree_nodeINS_12__value_typeINS_12basic_stringIcNS_11char_traitsIcEENS1_IcEEEE3barEEPvEEEEEC1B8ue170006ERSD_b, symObjAddr: 0x15FA0, symBinAddr: 0x100017608, symSize: 0x48 }
  - { offsetInCU: 0x43B33, offset: 0x43B33, size: 0x8, addend: 0x0, symName: __ZNSt3__110unique_ptrINS_11__tree_nodeINS_12__value_typeINS_12basic_stringIcNS_11char_traitsIcEENS_9allocatorIcEEEE3barEEPvEENS_22__tree_node_destructorINS6_ISC_EEEEEC1B8ue170006ILb1EvEEPSC_NS_16__dependent_typeINS_27__unique_ptr_deleter_sfinaeISF_EEXT_EE20__good_rval_ref_typeE, symObjAddr: 0x15FE8, symBinAddr: 0x100017650, symSize: 0x3C }
  - { offsetInCU: 0x43B84, offset: 0x43B84, size: 0x8, addend: 0x0, symName: __ZNSt3__116allocator_traitsINS_9allocatorINS_11__tree_nodeINS_12__value_typeINS_12basic_stringIcNS_11char_traitsIcEENS1_IcEEEE3barEEPvEEEEE9constructB8ue170006INS_4pairIKS8_S9_EEJRKNS_21piecewise_construct_tENS_5tupleIJRSH_EEENSM_IJEEEEvEEvRSD_PT_DpOT0_, symObjAddr: 0x16024, symBinAddr: 0x10001768C, symSize: 0x44 }
  - { offsetInCU: 0x43C03, offset: 0x43C03, size: 0x8, addend: 0x0, symName: __ZNSt3__122__tree_key_value_typesINS_12__value_typeINS_12basic_stringIcNS_11char_traitsIcEENS_9allocatorIcEEEE3barEEE9__get_ptrB8ue170006ERS9_, symObjAddr: 0x16068, symBinAddr: 0x1000176D0, symSize: 0x24 }
  - { offsetInCU: 0x43C27, offset: 0x43C27, size: 0x8, addend: 0x0, symName: __ZNKSt3__110unique_ptrINS_11__tree_nodeINS_12__value_typeINS_12basic_stringIcNS_11char_traitsIcEENS_9allocatorIcEEEE3barEEPvEENS_22__tree_node_destructorINS6_ISC_EEEEEptB8ue170006Ev, symObjAddr: 0x1608C, symBinAddr: 0x1000176F4, symSize: 0x28 }
  - { offsetInCU: 0x43C4D, offset: 0x43C4D, size: 0x8, addend: 0x0, symName: __ZNSt3__110unique_ptrINS_11__tree_nodeINS_12__value_typeINS_12basic_stringIcNS_11char_traitsIcEENS_9allocatorIcEEEE3barEEPvEENS_22__tree_node_destructorINS6_ISC_EEEEE11get_deleterB8ue170006Ev, symObjAddr: 0x160B4, symBinAddr: 0x10001771C, symSize: 0x24 }
  - { offsetInCU: 0x43C73, offset: 0x43C73, size: 0x8, addend: 0x0, symName: __ZNSt3__117__compressed_pairINS_15__tree_end_nodeIPNS_16__tree_node_baseIPvEEEENS_9allocatorINS_11__tree_nodeINS_12__value_typeINS_12basic_stringIcNS_11char_traitsIcEENS7_IcEEEE3barEES3_EEEEE6secondB8ue170006Ev, symObjAddr: 0x160D8, symBinAddr: 0x100017740, symSize: 0x24 }
  - { offsetInCU: 0x43C99, offset: 0x43C99, size: 0x8, addend: 0x0, symName: __ZNSt3__122__compressed_pair_elemINS_9allocatorINS_11__tree_nodeINS_12__value_typeINS_12basic_stringIcNS_11char_traitsIcEENS1_IcEEEE3barEEPvEEEELi1ELb1EE5__getB8ue170006Ev, symObjAddr: 0x160FC, symBinAddr: 0x100017764, symSize: 0x14 }
  - { offsetInCU: 0x43CBF, offset: 0x43CBF, size: 0x8, addend: 0x0, symName: __ZNSt3__19allocatorINS_11__tree_nodeINS_12__value_typeINS_12basic_stringIcNS_11char_traitsIcEENS0_IcEEEE3barEEPvEEE8allocateB8ue170006Em, symObjAddr: 0x16110, symBinAddr: 0x100017778, symSize: 0x5C }
  - { offsetInCU: 0x43CFE, offset: 0x43CFE, size: 0x8, addend: 0x0, symName: __ZNSt3__116allocator_traitsINS_9allocatorINS_11__tree_nodeINS_12__value_typeINS_12basic_stringIcNS_11char_traitsIcEENS1_IcEEEE3barEEPvEEEEE8max_sizeB8ue170006ISD_vEEmRKSD_, symObjAddr: 0x1616C, symBinAddr: 0x1000177D4, symSize: 0x24 }
  - { offsetInCU: 0x43D2C, offset: 0x43D2C, size: 0x8, addend: 0x0, symName: __ZNKSt3__19allocatorINS_11__tree_nodeINS_12__value_typeINS_12basic_stringIcNS_11char_traitsIcEENS0_IcEEEE3barEEPvEEE8max_sizeB8ue170006Ev, symObjAddr: 0x16190, symBinAddr: 0x1000177F8, symSize: 0x20 }
  - { offsetInCU: 0x43D52, offset: 0x43D52, size: 0x8, addend: 0x0, symName: __ZNSt3__122__tree_node_destructorINS_9allocatorINS_11__tree_nodeINS_12__value_typeINS_12basic_stringIcNS_11char_traitsIcEENS1_IcEEEE3barEEPvEEEEEC2B8ue170006ERSD_b, symObjAddr: 0x161B0, symBinAddr: 0x100017818, symSize: 0x38 }
  - { offsetInCU: 0x43D9A, offset: 0x43D9A, size: 0x8, addend: 0x0, symName: __ZNSt3__110unique_ptrINS_11__tree_nodeINS_12__value_typeINS_12basic_stringIcNS_11char_traitsIcEENS_9allocatorIcEEEE3barEEPvEENS_22__tree_node_destructorINS6_ISC_EEEEEC2B8ue170006ILb1EvEEPSC_NS_16__dependent_typeINS_27__unique_ptr_deleter_sfinaeISF_EEXT_EE20__good_rval_ref_typeE, symObjAddr: 0x161E8, symBinAddr: 0x100017850, symSize: 0x48 }
  - { offsetInCU: 0x43DEB, offset: 0x43DEB, size: 0x8, addend: 0x0, symName: __ZNSt3__117__compressed_pairIPNS_11__tree_nodeINS_12__value_typeINS_12basic_stringIcNS_11char_traitsIcEENS_9allocatorIcEEEE3barEEPvEENS_22__tree_node_destructorINS6_ISC_EEEEEC1B8ue170006IRSD_SG_EEOT_OT0_, symObjAddr: 0x16230, symBinAddr: 0x100017898, symSize: 0x3C }
  - { offsetInCU: 0x43E43, offset: 0x43E43, size: 0x8, addend: 0x0, symName: __ZNSt3__117__compressed_pairIPNS_11__tree_nodeINS_12__value_typeINS_12basic_stringIcNS_11char_traitsIcEENS_9allocatorIcEEEE3barEEPvEENS_22__tree_node_destructorINS6_ISC_EEEEEC2B8ue170006IRSD_SG_EEOT_OT0_, symObjAddr: 0x1626C, symBinAddr: 0x1000178D4, symSize: 0x48 }
  - { offsetInCU: 0x43E9B, offset: 0x43E9B, size: 0x8, addend: 0x0, symName: __ZNSt3__122__compressed_pair_elemIPNS_11__tree_nodeINS_12__value_typeINS_12basic_stringIcNS_11char_traitsIcEENS_9allocatorIcEEEE3barEEPvEELi0ELb0EEC2B8ue170006IRSD_vEEOT_, symObjAddr: 0x162B4, symBinAddr: 0x10001791C, symSize: 0x24 }
  - { offsetInCU: 0x43EDD, offset: 0x43EDD, size: 0x8, addend: 0x0, symName: __ZNSt3__122__compressed_pair_elemINS_22__tree_node_destructorINS_9allocatorINS_11__tree_nodeINS_12__value_typeINS_12basic_stringIcNS_11char_traitsIcEENS2_IcEEEE3barEEPvEEEEEELi1ELb0EEC2B8ue170006ISF_vEEOT_, symObjAddr: 0x162D8, symBinAddr: 0x100017940, symSize: 0x24 }
  - { offsetInCU: 0x43F1F, offset: 0x43F1F, size: 0x8, addend: 0x0, symName: __ZNSt3__19allocatorINS_11__tree_nodeINS_12__value_typeINS_12basic_stringIcNS_11char_traitsIcEENS0_IcEEEE3barEEPvEEE9constructB8ue170006INS_4pairIKS7_S8_EEJRKNS_21piecewise_construct_tENS_5tupleIJRSF_EEENSK_IJEEEEEEvPT_DpOT0_, symObjAddr: 0x162FC, symBinAddr: 0x100017964, symSize: 0x44 }
  - { offsetInCU: 0x43F9B, offset: 0x43F9B, size: 0x8, addend: 0x0, symName: __ZNSt3__14pairIKNS_12basic_stringIcNS_11char_traitsIcEENS_9allocatorIcEEEE3barEC1B8ue170006IJRS7_EJEEENS_21piecewise_construct_tENS_5tupleIJDpT_EEENSD_IJDpT0_EEE, symObjAddr: 0x16340, symBinAddr: 0x1000179A8, symSize: 0x3C }
  - { offsetInCU: 0x44002, offset: 0x44002, size: 0x8, addend: 0x0, symName: __ZNSt3__14pairIKNS_12basic_stringIcNS_11char_traitsIcEENS_9allocatorIcEEEE3barEC1B8ue170006IJRS7_EJEJLm0EEJEEENS_21piecewise_construct_tERNS_5tupleIJDpT_EEERNSD_IJDpT0_EEENS_15__tuple_indicesIJXspT1_EEEENSM_IJXspT2_EEEE, symObjAddr: 0x1637C, symBinAddr: 0x1000179E4, symSize: 0x3C }
  - { offsetInCU: 0x4408F, offset: 0x4408F, size: 0x8, addend: 0x0, symName: __ZNSt3__14pairIKNS_12basic_stringIcNS_11char_traitsIcEENS_9allocatorIcEEEE3barEC2B8ue170006IJRS7_EJEJLm0EEJEEENS_21piecewise_construct_tERNS_5tupleIJDpT_EEERNSD_IJDpT0_EEENS_15__tuple_indicesIJXspT1_EEEENSM_IJXspT2_EEEE, symObjAddr: 0x163B8, symBinAddr: 0x100017A20, symSize: 0x58 }
  - { offsetInCU: 0x4411C, offset: 0x4411C, size: 0x8, addend: 0x0, symName: __ZNKSt3__117__compressed_pairIPNS_11__tree_nodeINS_12__value_typeINS_12basic_stringIcNS_11char_traitsIcEENS_9allocatorIcEEEE3barEEPvEENS_22__tree_node_destructorINS6_ISC_EEEEE5firstB8ue170006Ev, symObjAddr: 0x16410, symBinAddr: 0x100017A78, symSize: 0x24 }
  - { offsetInCU: 0x44142, offset: 0x44142, size: 0x8, addend: 0x0, symName: __ZNKSt3__122__compressed_pair_elemIPNS_11__tree_nodeINS_12__value_typeINS_12basic_stringIcNS_11char_traitsIcEENS_9allocatorIcEEEE3barEEPvEELi0ELb0EE5__getB8ue170006Ev, symObjAddr: 0x16434, symBinAddr: 0x100017A9C, symSize: 0x14 }
  - { offsetInCU: 0x44168, offset: 0x44168, size: 0x8, addend: 0x0, symName: __ZNSt3__117__compressed_pairIPNS_11__tree_nodeINS_12__value_typeINS_12basic_stringIcNS_11char_traitsIcEENS_9allocatorIcEEEE3barEEPvEENS_22__tree_node_destructorINS6_ISC_EEEEE6secondB8ue170006Ev, symObjAddr: 0x16448, symBinAddr: 0x100017AB0, symSize: 0x28 }
  - { offsetInCU: 0x4418E, offset: 0x4418E, size: 0x8, addend: 0x0, symName: __ZNSt3__122__compressed_pair_elemINS_22__tree_node_destructorINS_9allocatorINS_11__tree_nodeINS_12__value_typeINS_12basic_stringIcNS_11char_traitsIcEENS2_IcEEEE3barEEPvEEEEEELi1ELb0EE5__getB8ue170006Ev, symObjAddr: 0x16470, symBinAddr: 0x100017AD8, symSize: 0x14 }
  - { offsetInCU: 0x441B4, offset: 0x441B4, size: 0x8, addend: 0x0, symName: __ZNSt3__16__treeINS_12__value_typeINS_12basic_stringIcNS_11char_traitsIcEENS_9allocatorIcEEEE3barEENS_19__map_value_compareIS7_S9_NS_4lessIS7_EELb1EEENS5_IS9_EEE4sizeB8ue170006Ev, symObjAddr: 0x16484, symBinAddr: 0x100017AEC, symSize: 0x28 }
  - { offsetInCU: 0x441DA, offset: 0x441DA, size: 0x8, addend: 0x0, symName: __ZNSt3__117__compressed_pairImNS_19__map_value_compareINS_12basic_stringIcNS_11char_traitsIcEENS_9allocatorIcEEEENS_12__value_typeIS7_3barEENS_4lessIS7_EELb1EEEE5firstB8ue170006Ev, symObjAddr: 0x164AC, symBinAddr: 0x100017B14, symSize: 0x24 }
  - { offsetInCU: 0x44200, offset: 0x44200, size: 0x8, addend: 0x0, symName: __ZNSt3__117__compressed_pairIPNS_11__tree_nodeINS_12__value_typeINS_12basic_stringIcNS_11char_traitsIcEENS_9allocatorIcEEEE3barEEPvEENS_22__tree_node_destructorINS6_ISC_EEEEE5firstB8ue170006Ev, symObjAddr: 0x164D0, symBinAddr: 0x100017B38, symSize: 0x24 }
  - { offsetInCU: 0x44226, offset: 0x44226, size: 0x8, addend: 0x0, symName: __ZNSt3__122__compressed_pair_elemIPNS_11__tree_nodeINS_12__value_typeINS_12basic_stringIcNS_11char_traitsIcEENS_9allocatorIcEEEE3barEEPvEELi0ELb0EE5__getB8ue170006Ev, symObjAddr: 0x164F4, symBinAddr: 0x100017B5C, symSize: 0x14 }
  - { offsetInCU: 0x4424C, offset: 0x4424C, size: 0x8, addend: 0x0, symName: __ZNSt3__110unique_ptrINS_11__tree_nodeINS_12__value_typeINS_12basic_stringIcNS_11char_traitsIcEENS_9allocatorIcEEEE3barEEPvEENS_22__tree_node_destructorINS6_ISC_EEEEED2B8ue170006Ev, symObjAddr: 0x16508, symBinAddr: 0x100017B70, symSize: 0x30 }
  - { offsetInCU: 0x44276, offset: 0x44276, size: 0x8, addend: 0x0, symName: __ZNSt3__110unique_ptrINS_11__tree_nodeINS_12__value_typeINS_12basic_stringIcNS_11char_traitsIcEENS_9allocatorIcEEEE3barEEPvEENS_22__tree_node_destructorINS6_ISC_EEEEE5resetB8ue170006EPSC_, symObjAddr: 0x16538, symBinAddr: 0x100017BA0, symSize: 0x78 }
  - { offsetInCU: 0x442BA, offset: 0x442BA, size: 0x8, addend: 0x0, symName: __ZNSt3__122__tree_node_destructorINS_9allocatorINS_11__tree_nodeINS_12__value_typeINS_12basic_stringIcNS_11char_traitsIcEENS1_IcEEEE3barEEPvEEEEEclB8ue170006EPSC_, symObjAddr: 0x165B0, symBinAddr: 0x100017C18, symSize: 0x98 }
  - { offsetInCU: 0x442EF, offset: 0x442EF, size: 0x8, addend: 0x0, symName: __ZNSt3__116allocator_traitsINS_9allocatorINS_11__tree_nodeINS_12__value_typeINS_12basic_stringIcNS_11char_traitsIcEENS1_IcEEEE3barEEPvEEEEE7destroyB8ue170006INS_4pairIKS8_S9_EEvvEEvRSD_PT_, symObjAddr: 0x16648, symBinAddr: 0x100017CB0, symSize: 0x28 }
  - { offsetInCU: 0x44329, offset: 0x44329, size: 0x8, addend: 0x0, symName: __ZNSt3__116allocator_traitsINS_9allocatorINS_11__tree_nodeINS_12__value_typeINS_12basic_stringIcNS_11char_traitsIcEENS1_IcEEEE3barEEPvEEEEE10deallocateB8ue170006ERSD_PSC_m, symObjAddr: 0x16670, symBinAddr: 0x100017CD8, symSize: 0x34 }
  - { offsetInCU: 0x4436B, offset: 0x4436B, size: 0x8, addend: 0x0, symName: __ZNSt3__14pairIKNS_12basic_stringIcNS_11char_traitsIcEENS_9allocatorIcEEEE3barED1Ev, symObjAddr: 0x166A4, symBinAddr: 0x100017D0C, symSize: 0x2C }
  - { offsetInCU: 0x44397, offset: 0x44397, size: 0x8, addend: 0x0, symName: __ZNSt3__14pairIKNS_12basic_stringIcNS_11char_traitsIcEENS_9allocatorIcEEEE3barED2Ev, symObjAddr: 0x166D0, symBinAddr: 0x100017D38, symSize: 0x2C }
  - { offsetInCU: 0x443C3, offset: 0x443C3, size: 0x8, addend: 0x0, symName: __ZNSt3__19allocatorINS_11__tree_nodeINS_12__value_typeINS_12basic_stringIcNS_11char_traitsIcEENS0_IcEEEE3barEEPvEEE10deallocateB8ue170006EPSB_m, symObjAddr: 0x166FC, symBinAddr: 0x100017D64, symSize: 0x44 }
  - { offsetInCU: 0x44405, offset: 0x44405, size: 0x8, addend: 0x0, symName: __ZNSt3__115__tree_iteratorINS_12__value_typeINS_12basic_stringIcNS_11char_traitsIcEENS_9allocatorIcEEEE3barEEPNS_11__tree_nodeIS9_PvEElEC2B8ue170006ESD_, symObjAddr: 0x16740, symBinAddr: 0x100017DA8, symSize: 0x20 }
  - { offsetInCU: 0x4443E, offset: 0x4443E, size: 0x8, addend: 0x0, symName: __ZNSt3__14pairINS_15__tree_iteratorINS_12__value_typeINS_12basic_stringIcNS_11char_traitsIcEENS_9allocatorIcEEEE3barEEPNS_11__tree_nodeISA_PvEElEEbEC2B8ue170006ISF_RbLSC_0EEEOT_OT0_, symObjAddr: 0x16760, symBinAddr: 0x100017DC8, symSize: 0x38 }
  - { offsetInCU: 0x4449C, offset: 0x4449C, size: 0x8, addend: 0x0, symName: __ZNSt3__114pointer_traitsIPNS_12__value_typeINS_12basic_stringIcNS_11char_traitsIcEENS_9allocatorIcEEEE3barEEE10pointer_toB8ue170006ERS9_, symObjAddr: 0x16798, symBinAddr: 0x100017E00, symSize: 0x14 }
  - { offsetInCU: 0x444BF, offset: 0x444BF, size: 0x8, addend: 0x0, symName: __ZNKSt3__115__tree_iteratorINS_12__value_typeINS_12basic_stringIcNS_11char_traitsIcEENS_9allocatorIcEEEE3barEEPNS_11__tree_nodeIS9_PvEElE8__get_npB8ue170006Ev, symObjAddr: 0x167AC, symBinAddr: 0x100017E14, symSize: 0x18 }
  - { offsetInCU: 0x444E5, offset: 0x444E5, size: 0x8, addend: 0x0, symName: __ZNKSt3__16vectorINS_12basic_stringIcNS_11char_traitsIcEENS_9allocatorIcEEEENS4_IS6_EEE20__throw_out_of_rangeB8ue170006Ev, symObjAddr: 0x167C4, symBinAddr: 0x100017E2C, symSize: 0x1C }
  - { offsetInCU: 0x4450B, offset: 0x4450B, size: 0x8, addend: 0x0, symName: __ZNSt12out_of_rangeC1B8ue170006EPKc, symObjAddr: 0x16844, symBinAddr: 0x100017EAC, symSize: 0x34 }
  - { offsetInCU: 0x44543, offset: 0x44543, size: 0x8, addend: 0x0, symName: __ZNSt12out_of_rangeC2B8ue170006EPKc, symObjAddr: 0x16878, symBinAddr: 0x100017EE0, symSize: 0x4C }
  - { offsetInCU: 0x4457B, offset: 0x4457B, size: 0x8, addend: 0x0, symName: __ZNSt3__16__treeINS_12__value_typeINS_12basic_stringIcNS_11char_traitsIcEENS_9allocatorIcEEEEdEENS_19__map_value_compareIS7_S8_NS_4lessIS7_EELb1EEENS5_IS8_EEEaSERKSE_, symObjAddr: 0x168C4, symBinAddr: 0x100017F2C, symSize: 0x8C }
  - { offsetInCU: 0x445B2, offset: 0x445B2, size: 0x8, addend: 0x0, symName: __ZNSt3__16__treeINS_12__value_typeINS_12basic_stringIcNS_11char_traitsIcEENS_9allocatorIcEEEEdEENS_19__map_value_compareIS7_S8_NS_4lessIS7_EELb1EEENS5_IS8_EEE19__copy_assign_allocB8ue170006ERKSE_, symObjAddr: 0x16950, symBinAddr: 0x100017FB8, symSize: 0x2C }
  - { offsetInCU: 0x445E7, offset: 0x445E7, size: 0x8, addend: 0x0, symName: __ZNSt3__16__treeINS_12__value_typeINS_12basic_stringIcNS_11char_traitsIcEENS_9allocatorIcEEEEdEENS_19__map_value_compareIS7_S8_NS_4lessIS7_EELb1EEENS5_IS8_EEE14__assign_multiINS_21__tree_const_iteratorIS8_PNS_11__tree_nodeIS8_PvEElEEEEvT_SM_, symObjAddr: 0x1697C, symBinAddr: 0x100017FE4, symSize: 0x174 }
  - { offsetInCU: 0x4464B, offset: 0x4464B, size: 0x8, addend: 0x0, symName: __ZNSt3__16__treeINS_12__value_typeINS_12basic_stringIcNS_11char_traitsIcEENS_9allocatorIcEEEEdEENS_19__map_value_compareIS7_S8_NS_4lessIS7_EELb1EEENS5_IS8_EEE19__copy_assign_allocB8ue170006ERKSE_NS_17integral_constantIbLb0EEE, symObjAddr: 0x16AF0, symBinAddr: 0x100018158, symSize: 0x14 }
  - { offsetInCU: 0x446AA, offset: 0x446AA, size: 0x8, addend: 0x0, symName: __ZNSt3__16__treeINS_12__value_typeINS_12basic_stringIcNS_11char_traitsIcEENS_9allocatorIcEEEEdEENS_19__map_value_compareIS7_S8_NS_4lessIS7_EELb1EEENS5_IS8_EEE18_DetachedTreeCacheC1B8ue170006EPSE_, symObjAddr: 0x16B04, symBinAddr: 0x10001816C, symSize: 0x34 }
  - { offsetInCU: 0x446E3, offset: 0x446E3, size: 0x8, addend: 0x0, symName: __ZNKSt3__16__treeINS_12__value_typeINS_12basic_stringIcNS_11char_traitsIcEENS_9allocatorIcEEEEdEENS_19__map_value_compareIS7_S8_NS_4lessIS7_EELb1EEENS5_IS8_EEE18_DetachedTreeCache5__getB8ue170006Ev, symObjAddr: 0x16B38, symBinAddr: 0x1000181A0, symSize: 0x18 }
  - { offsetInCU: 0x44709, offset: 0x44709, size: 0x8, addend: 0x0, symName: __ZNSt3__112__value_typeINS_12basic_stringIcNS_11char_traitsIcEENS_9allocatorIcEEEEdEaSB8ue170006ERKS7_, symObjAddr: 0x16B50, symBinAddr: 0x1000181B8, symSize: 0x60 }
  - { offsetInCU: 0x4473E, offset: 0x4473E, size: 0x8, addend: 0x0, symName: __ZNSt3__16__treeINS_12__value_typeINS_12basic_stringIcNS_11char_traitsIcEENS_9allocatorIcEEEEdEENS_19__map_value_compareIS7_S8_NS_4lessIS7_EELb1EEENS5_IS8_EEE19__node_insert_multiEPNS_11__tree_nodeIS8_PvEE, symObjAddr: 0x16BB0, symBinAddr: 0x100018218, symSize: 0x70 }
  - { offsetInCU: 0x44793, offset: 0x44793, size: 0x8, addend: 0x0, symName: __ZNSt3__16__treeINS_12__value_typeINS_12basic_stringIcNS_11char_traitsIcEENS_9allocatorIcEEEEdEENS_19__map_value_compareIS7_S8_NS_4lessIS7_EELb1EEENS5_IS8_EEE18_DetachedTreeCache9__advanceB8ue170006Ev, symObjAddr: 0x16C20, symBinAddr: 0x100018288, symSize: 0x58 }
  - { offsetInCU: 0x447B9, offset: 0x447B9, size: 0x8, addend: 0x0, symName: __ZNSt3__16__treeINS_12__value_typeINS_12basic_stringIcNS_11char_traitsIcEENS_9allocatorIcEEEEdEENS_19__map_value_compareIS7_S8_NS_4lessIS7_EELb1EEENS5_IS8_EEE18_DetachedTreeCacheD1B8ue170006Ev, symObjAddr: 0x16C78, symBinAddr: 0x1000182E0, symSize: 0x2C }
  - { offsetInCU: 0x447E3, offset: 0x447E3, size: 0x8, addend: 0x0, symName: __ZNSt3__16__treeINS_12__value_typeINS_12basic_stringIcNS_11char_traitsIcEENS_9allocatorIcEEEEdEENS_19__map_value_compareIS7_S8_NS_4lessIS7_EELb1EEENS5_IS8_EEE14__insert_multiB8ue170006IRKNS_4pairIKS7_dEEEENS_15__tree_iteratorIS8_PNS_11__tree_nodeIS8_PvEElEEOT_, symObjAddr: 0x16CA4, symBinAddr: 0x10001830C, symSize: 0x34 }
  - { offsetInCU: 0x44821, offset: 0x44821, size: 0x8, addend: 0x0, symName: __ZNSt3__122__tree_key_value_typesINS_12__value_typeINS_12basic_stringIcNS_11char_traitsIcEENS_9allocatorIcEEEEdEEE11__get_valueB8ue170006ERKS8_, symObjAddr: 0x16CD8, symBinAddr: 0x100018340, symSize: 0x24 }
  - { offsetInCU: 0x44845, offset: 0x44845, size: 0x8, addend: 0x0, symName: __ZNSt3__16__treeINS_12__value_typeINS_12basic_stringIcNS_11char_traitsIcEENS_9allocatorIcEEEEdEENS_19__map_value_compareIS7_S8_NS_4lessIS7_EELb1EEENS5_IS8_EEE18_DetachedTreeCacheC2B8ue170006EPSE_, symObjAddr: 0x16CFC, symBinAddr: 0x100018364, symSize: 0x4C }
  - { offsetInCU: 0x4487E, offset: 0x4487E, size: 0x8, addend: 0x0, symName: __ZNSt3__16__treeINS_12__value_typeINS_12basic_stringIcNS_11char_traitsIcEENS_9allocatorIcEEEEdEENS_19__map_value_compareIS7_S8_NS_4lessIS7_EELb1EEENS5_IS8_EEE18_DetachedTreeCache18__detach_from_treeEPSE_, symObjAddr: 0x16D48, symBinAddr: 0x1000183B0, symSize: 0xA0 }
  - { offsetInCU: 0x448B3, offset: 0x448B3, size: 0x8, addend: 0x0, symName: __ZNSt3__112__value_typeINS_12basic_stringIcNS_11char_traitsIcEENS_9allocatorIcEEEEdE5__refB8ue170006Ev, symObjAddr: 0x16DE8, symBinAddr: 0x100018450, symSize: 0x44 }
  - { offsetInCU: 0x448E8, offset: 0x448E8, size: 0x8, addend: 0x0, symName: __ZNSt3__14pairIRNS_12basic_stringIcNS_11char_traitsIcEENS_9allocatorIcEEEERdEaSB8ue170006IKS6_dLPv0EEERS9_RKNS0_IT_T0_EE, symObjAddr: 0x16E2C, symBinAddr: 0x100018494, symSize: 0x48 }
  - { offsetInCU: 0x44935, offset: 0x44935, size: 0x8, addend: 0x0, symName: __ZNSt3__14pairIRNS_12basic_stringIcNS_11char_traitsIcEENS_9allocatorIcEEEERdEC1B8ue170006ILb1ELPv0EEES7_S8_, symObjAddr: 0x16E74, symBinAddr: 0x1000184DC, symSize: 0x3C }
  - { offsetInCU: 0x4498B, offset: 0x4498B, size: 0x8, addend: 0x0, symName: __ZNSt3__14pairIRNS_12basic_stringIcNS_11char_traitsIcEENS_9allocatorIcEEEERdEC2B8ue170006ILb1ELPv0EEES7_S8_, symObjAddr: 0x16EB0, symBinAddr: 0x100018518, symSize: 0x2C }
  - { offsetInCU: 0x449E1, offset: 0x449E1, size: 0x8, addend: 0x0, symName: __ZNSt3__16__treeINS_12__value_typeINS_12basic_stringIcNS_11char_traitsIcEENS_9allocatorIcEEEEdEENS_19__map_value_compareIS7_S8_NS_4lessIS7_EELb1EEENS5_IS8_EEE16__find_leaf_highERPNS_15__tree_end_nodeIPNS_16__tree_node_baseIPvEEEERKS7_, symObjAddr: 0x16EDC, symBinAddr: 0x100018544, symSize: 0x124 }
  - { offsetInCU: 0x44A36, offset: 0x44A36, size: 0x8, addend: 0x0, symName: __ZNSt3__122__tree_key_value_typesINS_12__value_typeINS_12basic_stringIcNS_11char_traitsIcEENS_9allocatorIcEEEEdEEE9__get_keyB8ue170006ERKS8_, symObjAddr: 0x17000, symBinAddr: 0x100018668, symSize: 0x24 }
  - { offsetInCU: 0x44A5A, offset: 0x44A5A, size: 0x8, addend: 0x0, symName: __ZNSt3__16__treeINS_12__value_typeINS_12basic_stringIcNS_11char_traitsIcEENS_9allocatorIcEEEEdEENS_19__map_value_compareIS7_S8_NS_4lessIS7_EELb1EEENS5_IS8_EEE18_DetachedTreeCache13__detach_nextEPNS_11__tree_nodeIS8_PvEE, symObjAddr: 0x17024, symBinAddr: 0x10001868C, symSize: 0xF0 }
  - { offsetInCU: 0x44A80, offset: 0x44A80, size: 0x8, addend: 0x0, symName: __ZNSt3__16__treeINS_12__value_typeINS_12basic_stringIcNS_11char_traitsIcEENS_9allocatorIcEEEEdEENS_19__map_value_compareIS7_S8_NS_4lessIS7_EELb1EEENS5_IS8_EEE18_DetachedTreeCacheD2B8ue170006Ev, symObjAddr: 0x17184, symBinAddr: 0x1000187EC, symSize: 0x9C }
  - { offsetInCU: 0x44AAA, offset: 0x44AAA, size: 0x8, addend: 0x0, symName: __ZNSt3__16__treeINS_12__value_typeINS_12basic_stringIcNS_11char_traitsIcEENS_9allocatorIcEEEEdEENS_19__map_value_compareIS7_S8_NS_4lessIS7_EELb1EEENS5_IS8_EEE15__emplace_multiIJRKNS_4pairIKS7_dEEEEENS_15__tree_iteratorIS8_PNS_11__tree_nodeIS8_PvEElEEDpOT_, symObjAddr: 0x17220, symBinAddr: 0x100018888, symSize: 0xD8 }
  - { offsetInCU: 0x44B1A, offset: 0x44B1A, size: 0x8, addend: 0x0, symName: __ZNSt3__13mapINS_12basic_stringIcNS_11char_traitsIcEENS_9allocatorIcEEEE3barNS_4lessIS6_EENS4_INS_4pairIKS6_S7_EEEEED2B8ue170006Ev, symObjAddr: 0x172F8, symBinAddr: 0x100018960, symSize: 0x2C }
  - { offsetInCU: 0x44B44, offset: 0x44B44, size: 0x8, addend: 0x0, symName: __ZNSt3__16__treeINS_12__value_typeINS_12basic_stringIcNS_11char_traitsIcEENS_9allocatorIcEEEE3barEENS_19__map_value_compareIS7_S9_NS_4lessIS7_EELb1EEENS5_IS9_EEED1Ev, symObjAddr: 0x17324, symBinAddr: 0x10001898C, symSize: 0x2C }
  - { offsetInCU: 0x44B70, offset: 0x44B70, size: 0x8, addend: 0x0, symName: __ZNSt3__16__treeINS_12__value_typeINS_12basic_stringIcNS_11char_traitsIcEENS_9allocatorIcEEEE3barEENS_19__map_value_compareIS7_S9_NS_4lessIS7_EELb1EEENS5_IS9_EEED2Ev, symObjAddr: 0x17350, symBinAddr: 0x1000189B8, symSize: 0x38 }
  - { offsetInCU: 0x44B9C, offset: 0x44B9C, size: 0x8, addend: 0x0, symName: __ZNSt3__16__treeINS_12__value_typeINS_12basic_stringIcNS_11char_traitsIcEENS_9allocatorIcEEEE3barEENS_19__map_value_compareIS7_S9_NS_4lessIS7_EELb1EEENS5_IS9_EEE7destroyEPNS_11__tree_nodeIS9_PvEE, symObjAddr: 0x17388, symBinAddr: 0x1000189F0, symSize: 0xA8 }
  - { offsetInCU: 0x44BE8, offset: 0x44BE8, size: 0x8, addend: 0x0, symName: __ZN14naivePortfolio20generate_naive_orderE11signalEvent, symObjAddr: 0x17430, symBinAddr: 0x100018A98, symSize: 0x418 }
  - { offsetInCU: 0x44CA2, offset: 0x44CA2, size: 0x8, addend: 0x0, symName: __Z5floorB8ue170006IiENSt3__19enable_ifIXsr3std11is_integralIT_EE5valueEdE4typeES2_, symObjAddr: 0x17848, symBinAddr: 0x100018EB0, symSize: 0x24 }
  - { offsetInCU: 0x44CD9, offset: 0x44CD9, size: 0x8, addend: 0x0, symName: __Z3absB8ue170006d, symObjAddr: 0x1786C, symBinAddr: 0x100018ED4, symSize: 0x18 }
  - { offsetInCU: 0x44D06, offset: 0x44D06, size: 0x8, addend: 0x0, symName: __ZN10orderEventC1ENSt3__112basic_stringIcNS0_11char_traitsIcEENS0_9allocatorIcEEEES6_iS6_, symObjAddr: 0x17884, symBinAddr: 0x100018EEC, symSize: 0x4C }
  - { offsetInCU: 0x44D6B, offset: 0x44D6B, size: 0x8, addend: 0x0, symName: __ZN10orderEventC2ENSt3__112basic_stringIcNS0_11char_traitsIcEENS0_9allocatorIcEEEES6_iS6_, symObjAddr: 0x178D0, symBinAddr: 0x100018F38, symSize: 0x128 }
  - { offsetInCU: 0x44DD0, offset: 0x44DD0, size: 0x8, addend: 0x0, symName: __ZN10orderEventD0Ev, symObjAddr: 0x179F8, symBinAddr: 0x100019060, symSize: 0x30 }
  - { offsetInCU: 0x44DFC, offset: 0x44DFC, size: 0x8, addend: 0x0, symName: __ZN14naivePortfolio26update_positions_from_fillE9fillEvent, symObjAddr: 0x17A28, symBinAddr: 0x100019090, symSize: 0xBC }
  - { offsetInCU: 0x44E3F, offset: 0x44E3F, size: 0x8, addend: 0x0, symName: __ZN14naivePortfolio25update_holdings_from_fillE9fillEvent, symObjAddr: 0x17AE4, symBinAddr: 0x10001914C, symSize: 0x314 }
  - { offsetInCU: 0x44E9F, offset: 0x44E9F, size: 0x8, addend: 0x0, symName: __ZN10MPortfolioC2EP11dataHandlerRNSt3__15dequeIP5eventNS2_9allocatorIS5_EEEEll, symObjAddr: 0x17DF8, symBinAddr: 0x100019460, symSize: 0x64 }
  - { offsetInCU: 0x44F01, offset: 0x44F01, size: 0x8, addend: 0x0, symName: __ZN10MPortfolioD1Ev, symObjAddr: 0x17E5C, symBinAddr: 0x1000194C4, symSize: 0x2C }
  - { offsetInCU: 0x44F2D, offset: 0x44F2D, size: 0x8, addend: 0x0, symName: __ZN10MPortfolioD0Ev, symObjAddr: 0x17E88, symBinAddr: 0x1000194F0, symSize: 0x30 }
  - { offsetInCU: 0x44F59, offset: 0x44F59, size: 0x8, addend: 0x0, symName: __ZN10MPortfolio13update_signalE11signalEvent, symObjAddr: 0x17EB8, symBinAddr: 0x100019520, symSize: 0xB4 }
  - { offsetInCU: 0x44FA2, offset: 0x44FA2, size: 0x8, addend: 0x0, symName: __ZN10MPortfolioD2Ev, symObjAddr: 0x17F6C, symBinAddr: 0x1000195D4, symSize: 0x2C }
  - { offsetInCU: 0x44FCE, offset: 0x44FCE, size: 0x8, addend: 0x0, symName: __ZN10MPortfolio14generate_orderE11signalEvent, symObjAddr: 0x17F98, symBinAddr: 0x100019600, symSize: 0x344 }
  - { offsetInCU: 0x4507A, offset: 0x4507A, size: 0x8, addend: 0x0, symName: __ZN10MRStrategyC2EP11dataHandlerRNSt3__15dequeIP5eventNS2_9allocatorIS5_EEEEi, symObjAddr: 0x182DC, symBinAddr: 0x100019944, symSize: 0x218 }
  - { offsetInCU: 0x45118, offset: 0x45118, size: 0x8, addend: 0x0, symName: __ZNSt3__13mapINS_12basic_stringIcNS_11char_traitsIcEENS_9allocatorIcEEEENS_6vectorIdNS4_IdEEEENS_4lessIS6_EENS4_INS_4pairIKS6_S9_EEEEEC1B8ue170006Ev, symObjAddr: 0x184F4, symBinAddr: 0x100019B5C, symSize: 0x2C }
  - { offsetInCU: 0x45142, offset: 0x45142, size: 0x8, addend: 0x0, symName: __ZNSt3__16vectorIdNS_9allocatorIdEEEC1B8ue170006Ev, symObjAddr: 0x18520, symBinAddr: 0x100019B88, symSize: 0x2C }
  - { offsetInCU: 0x4516C, offset: 0x4516C, size: 0x8, addend: 0x0, symName: __ZNSt3__13mapINS_12basic_stringIcNS_11char_traitsIcEENS_9allocatorIcEEEENS_6vectorIdNS4_IdEEEENS_4lessIS6_EENS4_INS_4pairIKS6_S9_EEEEEixERSD_, symObjAddr: 0x1854C, symBinAddr: 0x100019BB4, symSize: 0x80 }
  - { offsetInCU: 0x451A3, offset: 0x451A3, size: 0x8, addend: 0x0, symName: __ZNSt3__16vectorIdNS_9allocatorIdEEEaSB8ue170006ERKS3_, symObjAddr: 0x185CC, symBinAddr: 0x100019C34, symSize: 0x68 }
  - { offsetInCU: 0x451DA, offset: 0x451DA, size: 0x8, addend: 0x0, symName: __ZNSt3__13mapINS_12basic_stringIcNS_11char_traitsIcEENS_9allocatorIcEEEENS_6vectorIdNS4_IdEEEENS_4lessIS6_EENS4_INS_4pairIKS6_S9_EEEEED1B8ue170006Ev, symObjAddr: 0x18634, symBinAddr: 0x100019C9C, symSize: 0x2C }
  - { offsetInCU: 0x45204, offset: 0x45204, size: 0x8, addend: 0x0, symName: __ZN10MRStrategy17calculate_signalsE5event, symObjAddr: 0x18660, symBinAddr: 0x100019CC8, symSize: 0x4A8 }
  - { offsetInCU: 0x452D1, offset: 0x452D1, size: 0x8, addend: 0x0, symName: __ZNSt3__13mapINS_12basic_stringIcNS_11char_traitsIcEENS_9allocatorIcEEEENS_6vectorIdNS4_IdEEEENS_4lessIS6_EENS4_INS_4pairIKS6_S9_EEEEEC2B8ue170006Ev, symObjAddr: 0x18B08, symBinAddr: 0x10001A170, symSize: 0x40 }
  - { offsetInCU: 0x452FB, offset: 0x452FB, size: 0x8, addend: 0x0, symName: __ZNSt3__119__map_value_compareINS_12basic_stringIcNS_11char_traitsIcEENS_9allocatorIcEEEENS_12__value_typeIS6_NS_6vectorIdNS4_IdEEEEEENS_4lessIS6_EELb1EEC1B8ue170006ESD_, symObjAddr: 0x18B48, symBinAddr: 0x10001A1B0, symSize: 0x2C }
  - { offsetInCU: 0x45334, offset: 0x45334, size: 0x8, addend: 0x0, symName: __ZNSt3__16__treeINS_12__value_typeINS_12basic_stringIcNS_11char_traitsIcEENS_9allocatorIcEEEENS_6vectorIdNS5_IdEEEEEENS_19__map_value_compareIS7_SB_NS_4lessIS7_EELb1EEENS5_ISB_EEEC1ERKSF_, symObjAddr: 0x18B74, symBinAddr: 0x10001A1DC, symSize: 0x34 }
  - { offsetInCU: 0x4536F, offset: 0x4536F, size: 0x8, addend: 0x0, symName: __ZNSt3__119__map_value_compareINS_12basic_stringIcNS_11char_traitsIcEENS_9allocatorIcEEEENS_12__value_typeIS6_NS_6vectorIdNS4_IdEEEEEENS_4lessIS6_EELb1EEC2B8ue170006ESD_, symObjAddr: 0x18BA8, symBinAddr: 0x10001A210, symSize: 0x14 }
  - { offsetInCU: 0x453A8, offset: 0x453A8, size: 0x8, addend: 0x0, symName: __ZNSt3__16__treeINS_12__value_typeINS_12basic_stringIcNS_11char_traitsIcEENS_9allocatorIcEEEENS_6vectorIdNS5_IdEEEEEENS_19__map_value_compareIS7_SB_NS_4lessIS7_EELb1EEENS5_ISB_EEEC2ERKSF_, symObjAddr: 0x18BBC, symBinAddr: 0x10001A224, symSize: 0x7C }
  - { offsetInCU: 0x453E3, offset: 0x453E3, size: 0x8, addend: 0x0, symName: __ZNSt3__117__compressed_pairINS_15__tree_end_nodeIPNS_16__tree_node_baseIPvEEEENS_9allocatorINS_11__tree_nodeINS_12__value_typeINS_12basic_stringIcNS_11char_traitsIcEENS7_IcEEEENS_6vectorIdNS7_IdEEEEEES3_EEEEEC1B8ue170006ILb1EvEEv, symObjAddr: 0x18C38, symBinAddr: 0x10001A2A0, symSize: 0x2C }
  - { offsetInCU: 0x45418, offset: 0x45418, size: 0x8, addend: 0x0, symName: __ZNSt3__117__compressed_pairImNS_19__map_value_compareINS_12basic_stringIcNS_11char_traitsIcEENS_9allocatorIcEEEENS_12__value_typeIS7_NS_6vectorIdNS5_IdEEEEEENS_4lessIS7_EELb1EEEEC1B8ue170006IiRKSF_EEOT_OT0_, symObjAddr: 0x18C64, symBinAddr: 0x10001A2CC, symSize: 0x3C }
  - { offsetInCU: 0x45470, offset: 0x45470, size: 0x8, addend: 0x0, symName: __ZNSt3__16__treeINS_12__value_typeINS_12basic_stringIcNS_11char_traitsIcEENS_9allocatorIcEEEENS_6vectorIdNS5_IdEEEEEENS_19__map_value_compareIS7_SB_NS_4lessIS7_EELb1EEENS5_ISB_EEE10__end_nodeB8ue170006Ev, symObjAddr: 0x18CA0, symBinAddr: 0x10001A308, symSize: 0x2C }
  - { offsetInCU: 0x45496, offset: 0x45496, size: 0x8, addend: 0x0, symName: __ZNSt3__16__treeINS_12__value_typeINS_12basic_stringIcNS_11char_traitsIcEENS_9allocatorIcEEEENS_6vectorIdNS5_IdEEEEEENS_19__map_value_compareIS7_SB_NS_4lessIS7_EELb1EEENS5_ISB_EEE12__begin_nodeB8ue170006Ev, symObjAddr: 0x18CCC, symBinAddr: 0x10001A334, symSize: 0x14 }
  - { offsetInCU: 0x454BC, offset: 0x454BC, size: 0x8, addend: 0x0, symName: __ZNSt3__117__compressed_pairINS_15__tree_end_nodeIPNS_16__tree_node_baseIPvEEEENS_9allocatorINS_11__tree_nodeINS_12__value_typeINS_12basic_stringIcNS_11char_traitsIcEENS7_IcEEEENS_6vectorIdNS7_IdEEEEEES3_EEEEEC2B8ue170006ILb1EvEEv, symObjAddr: 0x18CE0, symBinAddr: 0x10001A348, symSize: 0x34 }
  - { offsetInCU: 0x454F1, offset: 0x454F1, size: 0x8, addend: 0x0, symName: __ZNSt3__122__compressed_pair_elemINS_9allocatorINS_11__tree_nodeINS_12__value_typeINS_12basic_stringIcNS_11char_traitsIcEENS1_IcEEEENS_6vectorIdNS1_IdEEEEEEPvEEEELi1ELb1EEC2B8ue170006ENS_16__value_init_tagE, symObjAddr: 0x18D14, symBinAddr: 0x10001A37C, symSize: 0x2C }
  - { offsetInCU: 0x45525, offset: 0x45525, size: 0x8, addend: 0x0, symName: __ZNSt3__19allocatorINS_11__tree_nodeINS_12__value_typeINS_12basic_stringIcNS_11char_traitsIcEENS0_IcEEEENS_6vectorIdNS0_IdEEEEEEPvEEEC2B8ue170006Ev, symObjAddr: 0x18D40, symBinAddr: 0x10001A3A8, symSize: 0x2C }
  - { offsetInCU: 0x4554F, offset: 0x4554F, size: 0x8, addend: 0x0, symName: __ZNSt3__116__non_trivial_ifILb1ENS_9allocatorINS_11__tree_nodeINS_12__value_typeINS_12basic_stringIcNS_11char_traitsIcEENS1_IcEEEENS_6vectorIdNS1_IdEEEEEEPvEEEEEC2B8ue170006Ev, symObjAddr: 0x18D6C, symBinAddr: 0x10001A3D4, symSize: 0x14 }
  - { offsetInCU: 0x45579, offset: 0x45579, size: 0x8, addend: 0x0, symName: __ZNSt3__117__compressed_pairImNS_19__map_value_compareINS_12basic_stringIcNS_11char_traitsIcEENS_9allocatorIcEEEENS_12__value_typeIS7_NS_6vectorIdNS5_IdEEEEEENS_4lessIS7_EELb1EEEEC2B8ue170006IiRKSF_EEOT_OT0_, symObjAddr: 0x18D80, symBinAddr: 0x10001A3E8, symSize: 0x44 }
  - { offsetInCU: 0x455D1, offset: 0x455D1, size: 0x8, addend: 0x0, symName: __ZNSt3__122__compressed_pair_elemINS_19__map_value_compareINS_12basic_stringIcNS_11char_traitsIcEENS_9allocatorIcEEEENS_12__value_typeIS7_NS_6vectorIdNS5_IdEEEEEENS_4lessIS7_EELb1EEELi1ELb1EEC2B8ue170006IRKSF_vEEOT_, symObjAddr: 0x18DC4, symBinAddr: 0x10001A42C, symSize: 0x18 }
  - { offsetInCU: 0x45613, offset: 0x45613, size: 0x8, addend: 0x0, symName: __ZNSt3__117__compressed_pairINS_15__tree_end_nodeIPNS_16__tree_node_baseIPvEEEENS_9allocatorINS_11__tree_nodeINS_12__value_typeINS_12basic_stringIcNS_11char_traitsIcEENS7_IcEEEENS_6vectorIdNS7_IdEEEEEES3_EEEEE5firstB8ue170006Ev, symObjAddr: 0x18DDC, symBinAddr: 0x10001A444, symSize: 0x24 }
  - { offsetInCU: 0x45639, offset: 0x45639, size: 0x8, addend: 0x0, symName: __ZNSt3__16vectorIdNS_9allocatorIdEEEC2B8ue170006Ev, symObjAddr: 0x18E00, symBinAddr: 0x10001A468, symSize: 0x4C }
  - { offsetInCU: 0x45663, offset: 0x45663, size: 0x8, addend: 0x0, symName: __ZNSt3__117__compressed_pairIPdNS_9allocatorIdEEEC1B8ue170006IDnNS_18__default_init_tagEEEOT_OT0_, symObjAddr: 0x18E4C, symBinAddr: 0x10001A4B4, symSize: 0x3C }
  - { offsetInCU: 0x456BB, offset: 0x456BB, size: 0x8, addend: 0x0, symName: __ZNSt3__117__compressed_pairIPdNS_9allocatorIdEEEC2B8ue170006IDnNS_18__default_init_tagEEEOT_OT0_, symObjAddr: 0x18E88, symBinAddr: 0x10001A4F0, symSize: 0x40 }
  - { offsetInCU: 0x45713, offset: 0x45713, size: 0x8, addend: 0x0, symName: __ZNSt3__122__compressed_pair_elemIPdLi0ELb0EEC2B8ue170006IDnvEEOT_, symObjAddr: 0x18EC8, symBinAddr: 0x10001A530, symSize: 0x1C }
  - { offsetInCU: 0x45755, offset: 0x45755, size: 0x8, addend: 0x0, symName: __ZNSt3__122__compressed_pair_elemINS_9allocatorIdEELi1ELb1EEC2B8ue170006ENS_18__default_init_tagE, symObjAddr: 0x18EE4, symBinAddr: 0x10001A54C, symSize: 0x2C }
  - { offsetInCU: 0x45789, offset: 0x45789, size: 0x8, addend: 0x0, symName: __ZNSt3__19allocatorIdEC2B8ue170006Ev, symObjAddr: 0x18F10, symBinAddr: 0x10001A578, symSize: 0x2C }
  - { offsetInCU: 0x457B3, offset: 0x457B3, size: 0x8, addend: 0x0, symName: __ZNSt3__116__non_trivial_ifILb1ENS_9allocatorIdEEEC2B8ue170006Ev, symObjAddr: 0x18F3C, symBinAddr: 0x10001A5A4, symSize: 0x14 }
  - { offsetInCU: 0x457DD, offset: 0x457DD, size: 0x8, addend: 0x0, symName: __ZNSt3__16__treeINS_12__value_typeINS_12basic_stringIcNS_11char_traitsIcEENS_9allocatorIcEEEENS_6vectorIdNS5_IdEEEEEENS_19__map_value_compareIS7_SB_NS_4lessIS7_EELb1EEENS5_ISB_EEE25__emplace_unique_key_argsIS7_JRKNS_21piecewise_construct_tENS_5tupleIJRKS7_EEENSM_IJEEEEEENS_4pairINS_15__tree_iteratorISB_PNS_11__tree_nodeISB_PvEElEEbEERKT_DpOT0_, symObjAddr: 0x18F50, symBinAddr: 0x10001A5B8, symSize: 0x100 }
  - { offsetInCU: 0x458B3, offset: 0x458B3, size: 0x8, addend: 0x0, symName: __ZNKSt3__115__tree_iteratorINS_12__value_typeINS_12basic_stringIcNS_11char_traitsIcEENS_9allocatorIcEEEENS_6vectorIdNS5_IdEEEEEEPNS_11__tree_nodeISB_PvEElEptB8ue170006Ev, symObjAddr: 0x19050, symBinAddr: 0x10001A6B8, symSize: 0x2C }
  - { offsetInCU: 0x458D9, offset: 0x458D9, size: 0x8, addend: 0x0, symName: __ZNSt3__112__value_typeINS_12basic_stringIcNS_11char_traitsIcEENS_9allocatorIcEEEENS_6vectorIdNS4_IdEEEEE11__get_valueB8ue170006Ev, symObjAddr: 0x1907C, symBinAddr: 0x10001A6E4, symSize: 0x14 }
  - { offsetInCU: 0x458FF, offset: 0x458FF, size: 0x8, addend: 0x0, symName: __ZNSt3__16__treeINS_12__value_typeINS_12basic_stringIcNS_11char_traitsIcEENS_9allocatorIcEEEENS_6vectorIdNS5_IdEEEEEENS_19__map_value_compareIS7_SB_NS_4lessIS7_EELb1EEENS5_ISB_EEE12__find_equalIS7_EERPNS_16__tree_node_baseIPvEERPNS_15__tree_end_nodeISM_EERKT_, symObjAddr: 0x19090, symBinAddr: 0x10001A6F8, symSize: 0x184 }
  - { offsetInCU: 0x4596C, offset: 0x4596C, size: 0x8, addend: 0x0, symName: __ZNSt3__16__treeINS_12__value_typeINS_12basic_stringIcNS_11char_traitsIcEENS_9allocatorIcEEEENS_6vectorIdNS5_IdEEEEEENS_19__map_value_compareIS7_SB_NS_4lessIS7_EELb1EEENS5_ISB_EEE16__construct_nodeIJRKNS_21piecewise_construct_tENS_5tupleIJRKS7_EEENSM_IJEEEEEENS_10unique_ptrINS_11__tree_nodeISB_PvEENS_22__tree_node_destructorINS5_ISU_EEEEEEDpOT_, symObjAddr: 0x19214, symBinAddr: 0x10001A87C, symSize: 0x120 }
  - { offsetInCU: 0x459F5, offset: 0x459F5, size: 0x8, addend: 0x0, symName: __ZNSt3__16__treeINS_12__value_typeINS_12basic_stringIcNS_11char_traitsIcEENS_9allocatorIcEEEENS_6vectorIdNS5_IdEEEEEENS_19__map_value_compareIS7_SB_NS_4lessIS7_EELb1EEENS5_ISB_EEE16__insert_node_atEPNS_15__tree_end_nodeIPNS_16__tree_node_baseIPvEEEERSM_SM_, symObjAddr: 0x19334, symBinAddr: 0x10001A99C, symSize: 0xCC }
  - { offsetInCU: 0x45A4A, offset: 0x45A4A, size: 0x8, addend: 0x0, symName: __ZNKSt3__110unique_ptrINS_11__tree_nodeINS_12__value_typeINS_12basic_stringIcNS_11char_traitsIcEENS_9allocatorIcEEEENS_6vectorIdNS6_IdEEEEEEPvEENS_22__tree_node_destructorINS6_ISE_EEEEE3getB8ue170006Ev, symObjAddr: 0x19400, symBinAddr: 0x10001AA68, symSize: 0x28 }
  - { offsetInCU: 0x45A70, offset: 0x45A70, size: 0x8, addend: 0x0, symName: __ZNSt3__110unique_ptrINS_11__tree_nodeINS_12__value_typeINS_12basic_stringIcNS_11char_traitsIcEENS_9allocatorIcEEEENS_6vectorIdNS6_IdEEEEEEPvEENS_22__tree_node_destructorINS6_ISE_EEEEE7releaseB8ue170006Ev, symObjAddr: 0x19428, symBinAddr: 0x10001AA90, symSize: 0x44 }
  - { offsetInCU: 0x45AA5, offset: 0x45AA5, size: 0x8, addend: 0x0, symName: __ZNSt3__110unique_ptrINS_11__tree_nodeINS_12__value_typeINS_12basic_stringIcNS_11char_traitsIcEENS_9allocatorIcEEEENS_6vectorIdNS6_IdEEEEEEPvEENS_22__tree_node_destructorINS6_ISE_EEEEED1B8ue170006Ev, symObjAddr: 0x1946C, symBinAddr: 0x10001AAD4, symSize: 0x2C }
  - { offsetInCU: 0x45ACF, offset: 0x45ACF, size: 0x8, addend: 0x0, symName: __ZNSt3__115__tree_iteratorINS_12__value_typeINS_12basic_stringIcNS_11char_traitsIcEENS_9allocatorIcEEEENS_6vectorIdNS5_IdEEEEEEPNS_11__tree_nodeISB_PvEElEC1B8ue170006ESF_, symObjAddr: 0x19498, symBinAddr: 0x10001AB00, symSize: 0x34 }
  - { offsetInCU: 0x45B0E, offset: 0x45B0E, size: 0x8, addend: 0x0, symName: __ZNSt3__14pairINS_15__tree_iteratorINS_12__value_typeINS_12basic_stringIcNS_11char_traitsIcEENS_9allocatorIcEEEENS_6vectorIdNS6_IdEEEEEEPNS_11__tree_nodeISC_PvEElEEbEC1B8ue170006ISH_RbLSE_0EEEOT_OT0_, symObjAddr: 0x194CC, symBinAddr: 0x10001AB34, symSize: 0x3C }
  - { offsetInCU: 0x45B6C, offset: 0x45B6C, size: 0x8, addend: 0x0, symName: __ZNKSt3__16__treeINS_12__value_typeINS_12basic_stringIcNS_11char_traitsIcEENS_9allocatorIcEEEENS_6vectorIdNS5_IdEEEEEENS_19__map_value_compareIS7_SB_NS_4lessIS7_EELb1EEENS5_ISB_EEE6__rootB8ue170006Ev, symObjAddr: 0x19508, symBinAddr: 0x10001AB70, symSize: 0x28 }
  - { offsetInCU: 0x45B92, offset: 0x45B92, size: 0x8, addend: 0x0, symName: __ZNKSt3__16__treeINS_12__value_typeINS_12basic_stringIcNS_11char_traitsIcEENS_9allocatorIcEEEENS_6vectorIdNS5_IdEEEEEENS_19__map_value_compareIS7_SB_NS_4lessIS7_EELb1EEENS5_ISB_EEE10__root_ptrB8ue170006Ev, symObjAddr: 0x19530, symBinAddr: 0x10001AB98, symSize: 0x24 }
  - { offsetInCU: 0x45BB8, offset: 0x45BB8, size: 0x8, addend: 0x0, symName: __ZNSt3__16__treeINS_12__value_typeINS_12basic_stringIcNS_11char_traitsIcEENS_9allocatorIcEEEENS_6vectorIdNS5_IdEEEEEENS_19__map_value_compareIS7_SB_NS_4lessIS7_EELb1EEENS5_ISB_EEE10value_compB8ue170006Ev, symObjAddr: 0x19554, symBinAddr: 0x10001ABBC, symSize: 0x28 }
  - { offsetInCU: 0x45BDE, offset: 0x45BDE, size: 0x8, addend: 0x0, symName: __ZNKSt3__119__map_value_compareINS_12basic_stringIcNS_11char_traitsIcEENS_9allocatorIcEEEENS_12__value_typeIS6_NS_6vectorIdNS4_IdEEEEEENS_4lessIS6_EELb1EEclB8ue170006ERKS6_RKSB_, symObjAddr: 0x1957C, symBinAddr: 0x10001ABE4, symSize: 0x50 }
  - { offsetInCU: 0x45C22, offset: 0x45C22, size: 0x8, addend: 0x0, symName: __ZNKSt3__119__map_value_compareINS_12basic_stringIcNS_11char_traitsIcEENS_9allocatorIcEEEENS_12__value_typeIS6_NS_6vectorIdNS4_IdEEEEEENS_4lessIS6_EELb1EEclB8ue170006ERKSB_RKS6_, symObjAddr: 0x195CC, symBinAddr: 0x10001AC34, symSize: 0x48 }
  - { offsetInCU: 0x45C66, offset: 0x45C66, size: 0x8, addend: 0x0, symName: __ZNKSt3__16__treeINS_12__value_typeINS_12basic_stringIcNS_11char_traitsIcEENS_9allocatorIcEEEENS_6vectorIdNS5_IdEEEEEENS_19__map_value_compareIS7_SB_NS_4lessIS7_EELb1EEENS5_ISB_EEE10__end_nodeB8ue170006Ev, symObjAddr: 0x19614, symBinAddr: 0x10001AC7C, symSize: 0x2C }
  - { offsetInCU: 0x45C8C, offset: 0x45C8C, size: 0x8, addend: 0x0, symName: __ZNKSt3__117__compressed_pairINS_15__tree_end_nodeIPNS_16__tree_node_baseIPvEEEENS_9allocatorINS_11__tree_nodeINS_12__value_typeINS_12basic_stringIcNS_11char_traitsIcEENS7_IcEEEENS_6vectorIdNS7_IdEEEEEES3_EEEEE5firstB8ue170006Ev, symObjAddr: 0x19640, symBinAddr: 0x10001ACA8, symSize: 0x24 }
  - { offsetInCU: 0x45CB2, offset: 0x45CB2, size: 0x8, addend: 0x0, symName: __ZNSt3__117__compressed_pairImNS_19__map_value_compareINS_12basic_stringIcNS_11char_traitsIcEENS_9allocatorIcEEEENS_12__value_typeIS7_NS_6vectorIdNS5_IdEEEEEENS_4lessIS7_EELb1EEEE6secondB8ue170006Ev, symObjAddr: 0x19664, symBinAddr: 0x10001ACCC, symSize: 0x24 }
  - { offsetInCU: 0x45CD8, offset: 0x45CD8, size: 0x8, addend: 0x0, symName: __ZNSt3__122__compressed_pair_elemINS_19__map_value_compareINS_12basic_stringIcNS_11char_traitsIcEENS_9allocatorIcEEEENS_12__value_typeIS7_NS_6vectorIdNS5_IdEEEEEENS_4lessIS7_EELb1EEELi1ELb1EE5__getB8ue170006Ev, symObjAddr: 0x19688, symBinAddr: 0x10001ACF0, symSize: 0x14 }
  - { offsetInCU: 0x45CFE, offset: 0x45CFE, size: 0x8, addend: 0x0, symName: __ZNKSt3__112__value_typeINS_12basic_stringIcNS_11char_traitsIcEENS_9allocatorIcEEEENS_6vectorIdNS4_IdEEEEE11__get_valueB8ue170006Ev, symObjAddr: 0x1969C, symBinAddr: 0x10001AD04, symSize: 0x14 }
  - { offsetInCU: 0x45D24, offset: 0x45D24, size: 0x8, addend: 0x0, symName: __ZNSt3__16__treeINS_12__value_typeINS_12basic_stringIcNS_11char_traitsIcEENS_9allocatorIcEEEENS_6vectorIdNS5_IdEEEEEENS_19__map_value_compareIS7_SB_NS_4lessIS7_EELb1EEENS5_ISB_EEE12__node_allocB8ue170006Ev, symObjAddr: 0x196B0, symBinAddr: 0x10001AD18, symSize: 0x28 }
  - { offsetInCU: 0x45D4A, offset: 0x45D4A, size: 0x8, addend: 0x0, symName: __ZNSt3__116allocator_traitsINS_9allocatorINS_11__tree_nodeINS_12__value_typeINS_12basic_stringIcNS_11char_traitsIcEENS1_IcEEEENS_6vectorIdNS1_IdEEEEEEPvEEEEE8allocateB8ue170006ERSF_m, symObjAddr: 0x196D8, symBinAddr: 0x10001AD40, symSize: 0x2C }
  - { offsetInCU: 0x45D7D, offset: 0x45D7D, size: 0x8, addend: 0x0, symName: __ZNSt3__122__tree_node_destructorINS_9allocatorINS_11__tree_nodeINS_12__value_typeINS_12basic_stringIcNS_11char_traitsIcEENS1_IcEEEENS_6vectorIdNS1_IdEEEEEEPvEEEEEC1B8ue170006ERSF_b, symObjAddr: 0x19704, symBinAddr: 0x10001AD6C, symSize: 0x48 }
  - { offsetInCU: 0x45DCB, offset: 0x45DCB, size: 0x8, addend: 0x0, symName: __ZNSt3__110unique_ptrINS_11__tree_nodeINS_12__value_typeINS_12basic_stringIcNS_11char_traitsIcEENS_9allocatorIcEEEENS_6vectorIdNS6_IdEEEEEEPvEENS_22__tree_node_destructorINS6_ISE_EEEEEC1B8ue170006ILb1EvEEPSE_NS_16__dependent_typeINS_27__unique_ptr_deleter_sfinaeISH_EEXT_EE20__good_rval_ref_typeE, symObjAddr: 0x1974C, symBinAddr: 0x10001ADB4, symSize: 0x3C }
  - { offsetInCU: 0x45E1C, offset: 0x45E1C, size: 0x8, addend: 0x0, symName: __ZNSt3__116allocator_traitsINS_9allocatorINS_11__tree_nodeINS_12__value_typeINS_12basic_stringIcNS_11char_traitsIcEENS1_IcEEEENS_6vectorIdNS1_IdEEEEEEPvEEEEE9constructB8ue170006INS_4pairIKS8_SB_EEJRKNS_21piecewise_construct_tENS_5tupleIJRSJ_EEENSO_IJEEEEvEEvRSF_PT_DpOT0_, symObjAddr: 0x19788, symBinAddr: 0x10001ADF0, symSize: 0x44 }
  - { offsetInCU: 0x45E9B, offset: 0x45E9B, size: 0x8, addend: 0x0, symName: __ZNSt3__122__tree_key_value_typesINS_12__value_typeINS_12basic_stringIcNS_11char_traitsIcEENS_9allocatorIcEEEENS_6vectorIdNS5_IdEEEEEEE9__get_ptrB8ue170006ERSB_, symObjAddr: 0x197CC, symBinAddr: 0x10001AE34, symSize: 0x24 }
  - { offsetInCU: 0x45EBF, offset: 0x45EBF, size: 0x8, addend: 0x0, symName: __ZNKSt3__110unique_ptrINS_11__tree_nodeINS_12__value_typeINS_12basic_stringIcNS_11char_traitsIcEENS_9allocatorIcEEEENS_6vectorIdNS6_IdEEEEEEPvEENS_22__tree_node_destructorINS6_ISE_EEEEEptB8ue170006Ev, symObjAddr: 0x197F0, symBinAddr: 0x10001AE58, symSize: 0x28 }
  - { offsetInCU: 0x45EE5, offset: 0x45EE5, size: 0x8, addend: 0x0, symName: __ZNSt3__110unique_ptrINS_11__tree_nodeINS_12__value_typeINS_12basic_stringIcNS_11char_traitsIcEENS_9allocatorIcEEEENS_6vectorIdNS6_IdEEEEEEPvEENS_22__tree_node_destructorINS6_ISE_EEEEE11get_deleterB8ue170006Ev, symObjAddr: 0x19818, symBinAddr: 0x10001AE80, symSize: 0x24 }
  - { offsetInCU: 0x45F0B, offset: 0x45F0B, size: 0x8, addend: 0x0, symName: __ZNSt3__117__compressed_pairINS_15__tree_end_nodeIPNS_16__tree_node_baseIPvEEEENS_9allocatorINS_11__tree_nodeINS_12__value_typeINS_12basic_stringIcNS_11char_traitsIcEENS7_IcEEEENS_6vectorIdNS7_IdEEEEEES3_EEEEE6secondB8ue170006Ev, symObjAddr: 0x1983C, symBinAddr: 0x10001AEA4, symSize: 0x24 }
  - { offsetInCU: 0x45F31, offset: 0x45F31, size: 0x8, addend: 0x0, symName: __ZNSt3__122__compressed_pair_elemINS_9allocatorINS_11__tree_nodeINS_12__value_typeINS_12basic_stringIcNS_11char_traitsIcEENS1_IcEEEENS_6vectorIdNS1_IdEEEEEEPvEEEELi1ELb1EE5__getB8ue170006Ev, symObjAddr: 0x19860, symBinAddr: 0x10001AEC8, symSize: 0x14 }
  - { offsetInCU: 0x45F57, offset: 0x45F57, size: 0x8, addend: 0x0, symName: __ZNSt3__19allocatorINS_11__tree_nodeINS_12__value_typeINS_12basic_stringIcNS_11char_traitsIcEENS0_IcEEEENS_6vectorIdNS0_IdEEEEEEPvEEE8allocateB8ue170006Em, symObjAddr: 0x19874, symBinAddr: 0x10001AEDC, symSize: 0x5C }
  - { offsetInCU: 0x45F96, offset: 0x45F96, size: 0x8, addend: 0x0, symName: __ZNSt3__116allocator_traitsINS_9allocatorINS_11__tree_nodeINS_12__value_typeINS_12basic_stringIcNS_11char_traitsIcEENS1_IcEEEENS_6vectorIdNS1_IdEEEEEEPvEEEEE8max_sizeB8ue170006ISF_vEEmRKSF_, symObjAddr: 0x198D0, symBinAddr: 0x10001AF38, symSize: 0x24 }
  - { offsetInCU: 0x45FC4, offset: 0x45FC4, size: 0x8, addend: 0x0, symName: __ZNKSt3__19allocatorINS_11__tree_nodeINS_12__value_typeINS_12basic_stringIcNS_11char_traitsIcEENS0_IcEEEENS_6vectorIdNS0_IdEEEEEEPvEEE8max_sizeB8ue170006Ev, symObjAddr: 0x198F4, symBinAddr: 0x10001AF5C, symSize: 0x18 }
  - { offsetInCU: 0x45FEA, offset: 0x45FEA, size: 0x8, addend: 0x0, symName: __ZNSt3__122__tree_node_destructorINS_9allocatorINS_11__tree_nodeINS_12__value_typeINS_12basic_stringIcNS_11char_traitsIcEENS1_IcEEEENS_6vectorIdNS1_IdEEEEEEPvEEEEEC2B8ue170006ERSF_b, symObjAddr: 0x1990C, symBinAddr: 0x10001AF74, symSize: 0x38 }
  - { offsetInCU: 0x46032, offset: 0x46032, size: 0x8, addend: 0x0, symName: __ZNSt3__110unique_ptrINS_11__tree_nodeINS_12__value_typeINS_12basic_stringIcNS_11char_traitsIcEENS_9allocatorIcEEEENS_6vectorIdNS6_IdEEEEEEPvEENS_22__tree_node_destructorINS6_ISE_EEEEEC2B8ue170006ILb1EvEEPSE_NS_16__dependent_typeINS_27__unique_ptr_deleter_sfinaeISH_EEXT_EE20__good_rval_ref_typeE, symObjAddr: 0x19944, symBinAddr: 0x10001AFAC, symSize: 0x48 }
  - { offsetInCU: 0x46083, offset: 0x46083, size: 0x8, addend: 0x0, symName: __ZNSt3__117__compressed_pairIPNS_11__tree_nodeINS_12__value_typeINS_12basic_stringIcNS_11char_traitsIcEENS_9allocatorIcEEEENS_6vectorIdNS6_IdEEEEEEPvEENS_22__tree_node_destructorINS6_ISE_EEEEEC1B8ue170006IRSF_SI_EEOT_OT0_, symObjAddr: 0x1998C, symBinAddr: 0x10001AFF4, symSize: 0x3C }
  - { offsetInCU: 0x460DB, offset: 0x460DB, size: 0x8, addend: 0x0, symName: __ZNSt3__117__compressed_pairIPNS_11__tree_nodeINS_12__value_typeINS_12basic_stringIcNS_11char_traitsIcEENS_9allocatorIcEEEENS_6vectorIdNS6_IdEEEEEEPvEENS_22__tree_node_destructorINS6_ISE_EEEEEC2B8ue170006IRSF_SI_EEOT_OT0_, symObjAddr: 0x199C8, symBinAddr: 0x10001B030, symSize: 0x48 }
  - { offsetInCU: 0x46133, offset: 0x46133, size: 0x8, addend: 0x0, symName: __ZNSt3__122__compressed_pair_elemIPNS_11__tree_nodeINS_12__value_typeINS_12basic_stringIcNS_11char_traitsIcEENS_9allocatorIcEEEENS_6vectorIdNS6_IdEEEEEEPvEELi0ELb0EEC2B8ue170006IRSF_vEEOT_, symObjAddr: 0x19A10, symBinAddr: 0x10001B078, symSize: 0x24 }
  - { offsetInCU: 0x46175, offset: 0x46175, size: 0x8, addend: 0x0, symName: __ZNSt3__122__compressed_pair_elemINS_22__tree_node_destructorINS_9allocatorINS_11__tree_nodeINS_12__value_typeINS_12basic_stringIcNS_11char_traitsIcEENS2_IcEEEENS_6vectorIdNS2_IdEEEEEEPvEEEEEELi1ELb0EEC2B8ue170006ISH_vEEOT_, symObjAddr: 0x19A34, symBinAddr: 0x10001B09C, symSize: 0x24 }
  - { offsetInCU: 0x461B7, offset: 0x461B7, size: 0x8, addend: 0x0, symName: __ZNSt3__19allocatorINS_11__tree_nodeINS_12__value_typeINS_12basic_stringIcNS_11char_traitsIcEENS0_IcEEEENS_6vectorIdNS0_IdEEEEEEPvEEE9constructB8ue170006INS_4pairIKS7_SA_EEJRKNS_21piecewise_construct_tENS_5tupleIJRSH_EEENSM_IJEEEEEEvPT_DpOT0_, symObjAddr: 0x19A58, symBinAddr: 0x10001B0C0, symSize: 0x44 }
  - { offsetInCU: 0x46233, offset: 0x46233, size: 0x8, addend: 0x0, symName: __ZNSt3__14pairIKNS_12basic_stringIcNS_11char_traitsIcEENS_9allocatorIcEEEENS_6vectorIdNS4_IdEEEEEC1B8ue170006IJRS7_EJEEENS_21piecewise_construct_tENS_5tupleIJDpT_EEENSF_IJDpT0_EEE, symObjAddr: 0x19A9C, symBinAddr: 0x10001B104, symSize: 0x3C }
  - { offsetInCU: 0x4629A, offset: 0x4629A, size: 0x8, addend: 0x0, symName: __ZNSt3__14pairIKNS_12basic_stringIcNS_11char_traitsIcEENS_9allocatorIcEEEENS_6vectorIdNS4_IdEEEEEC1B8ue170006IJRS7_EJEJLm0EEJEEENS_21piecewise_construct_tERNS_5tupleIJDpT_EEERNSF_IJDpT0_EEENS_15__tuple_indicesIJXspT1_EEEENSO_IJXspT2_EEEE, symObjAddr: 0x19AD8, symBinAddr: 0x10001B140, symSize: 0x3C }
  - { offsetInCU: 0x46327, offset: 0x46327, size: 0x8, addend: 0x0, symName: __ZNSt3__14pairIKNS_12basic_stringIcNS_11char_traitsIcEENS_9allocatorIcEEEENS_6vectorIdNS4_IdEEEEEC2B8ue170006IJRS7_EJEJLm0EEJEEENS_21piecewise_construct_tERNS_5tupleIJDpT_EEERNSF_IJDpT0_EEENS_15__tuple_indicesIJXspT1_EEEENSO_IJXspT2_EEEE, symObjAddr: 0x19B14, symBinAddr: 0x10001B17C, symSize: 0x50 }
  - { offsetInCU: 0x463B4, offset: 0x463B4, size: 0x8, addend: 0x0, symName: __ZNKSt3__117__compressed_pairIPNS_11__tree_nodeINS_12__value_typeINS_12basic_stringIcNS_11char_traitsIcEENS_9allocatorIcEEEENS_6vectorIdNS6_IdEEEEEEPvEENS_22__tree_node_destructorINS6_ISE_EEEEE5firstB8ue170006Ev, symObjAddr: 0x19B64, symBinAddr: 0x10001B1CC, symSize: 0x24 }
  - { offsetInCU: 0x463DA, offset: 0x463DA, size: 0x8, addend: 0x0, symName: __ZNKSt3__122__compressed_pair_elemIPNS_11__tree_nodeINS_12__value_typeINS_12basic_stringIcNS_11char_traitsIcEENS_9allocatorIcEEEENS_6vectorIdNS6_IdEEEEEEPvEELi0ELb0EE5__getB8ue170006Ev, symObjAddr: 0x19B88, symBinAddr: 0x10001B1F0, symSize: 0x14 }
  - { offsetInCU: 0x46400, offset: 0x46400, size: 0x8, addend: 0x0, symName: __ZNSt3__117__compressed_pairIPNS_11__tree_nodeINS_12__value_typeINS_12basic_stringIcNS_11char_traitsIcEENS_9allocatorIcEEEENS_6vectorIdNS6_IdEEEEEEPvEENS_22__tree_node_destructorINS6_ISE_EEEEE6secondB8ue170006Ev, symObjAddr: 0x19B9C, symBinAddr: 0x10001B204, symSize: 0x28 }
  - { offsetInCU: 0x46426, offset: 0x46426, size: 0x8, addend: 0x0, symName: __ZNSt3__122__compressed_pair_elemINS_22__tree_node_destructorINS_9allocatorINS_11__tree_nodeINS_12__value_typeINS_12basic_stringIcNS_11char_traitsIcEENS2_IcEEEENS_6vectorIdNS2_IdEEEEEEPvEEEEEELi1ELb0EE5__getB8ue170006Ev, symObjAddr: 0x19BC4, symBinAddr: 0x10001B22C, symSize: 0x14 }
  - { offsetInCU: 0x4644C, offset: 0x4644C, size: 0x8, addend: 0x0, symName: __ZNSt3__16__treeINS_12__value_typeINS_12basic_stringIcNS_11char_traitsIcEENS_9allocatorIcEEEENS_6vectorIdNS5_IdEEEEEENS_19__map_value_compareIS7_SB_NS_4lessIS7_EELb1EEENS5_ISB_EEE4sizeB8ue170006Ev, symObjAddr: 0x19BD8, symBinAddr: 0x10001B240, symSize: 0x28 }
  - { offsetInCU: 0x46472, offset: 0x46472, size: 0x8, addend: 0x0, symName: __ZNSt3__117__compressed_pairImNS_19__map_value_compareINS_12basic_stringIcNS_11char_traitsIcEENS_9allocatorIcEEEENS_12__value_typeIS7_NS_6vectorIdNS5_IdEEEEEENS_4lessIS7_EELb1EEEE5firstB8ue170006Ev, symObjAddr: 0x19C00, symBinAddr: 0x10001B268, symSize: 0x24 }
  - { offsetInCU: 0x46498, offset: 0x46498, size: 0x8, addend: 0x0, symName: __ZNSt3__117__compressed_pairIPNS_11__tree_nodeINS_12__value_typeINS_12basic_stringIcNS_11char_traitsIcEENS_9allocatorIcEEEENS_6vectorIdNS6_IdEEEEEEPvEENS_22__tree_node_destructorINS6_ISE_EEEEE5firstB8ue170006Ev, symObjAddr: 0x19C24, symBinAddr: 0x10001B28C, symSize: 0x24 }
  - { offsetInCU: 0x464BE, offset: 0x464BE, size: 0x8, addend: 0x0, symName: __ZNSt3__122__compressed_pair_elemIPNS_11__tree_nodeINS_12__value_typeINS_12basic_stringIcNS_11char_traitsIcEENS_9allocatorIcEEEENS_6vectorIdNS6_IdEEEEEEPvEELi0ELb0EE5__getB8ue170006Ev, symObjAddr: 0x19C48, symBinAddr: 0x10001B2B0, symSize: 0x14 }
  - { offsetInCU: 0x464E4, offset: 0x464E4, size: 0x8, addend: 0x0, symName: __ZNSt3__110unique_ptrINS_11__tree_nodeINS_12__value_typeINS_12basic_stringIcNS_11char_traitsIcEENS_9allocatorIcEEEENS_6vectorIdNS6_IdEEEEEEPvEENS_22__tree_node_destructorINS6_ISE_EEEEED2B8ue170006Ev, symObjAddr: 0x19C5C, symBinAddr: 0x10001B2C4, symSize: 0x30 }
  - { offsetInCU: 0x4650E, offset: 0x4650E, size: 0x8, addend: 0x0, symName: __ZNSt3__110unique_ptrINS_11__tree_nodeINS_12__value_typeINS_12basic_stringIcNS_11char_traitsIcEENS_9allocatorIcEEEENS_6vectorIdNS6_IdEEEEEEPvEENS_22__tree_node_destructorINS6_ISE_EEEEE5resetB8ue170006EPSE_, symObjAddr: 0x19C8C, symBinAddr: 0x10001B2F4, symSize: 0x78 }
  - { offsetInCU: 0x46552, offset: 0x46552, size: 0x8, addend: 0x0, symName: __ZNSt3__122__tree_node_destructorINS_9allocatorINS_11__tree_nodeINS_12__value_typeINS_12basic_stringIcNS_11char_traitsIcEENS1_IcEEEENS_6vectorIdNS1_IdEEEEEEPvEEEEEclB8ue170006EPSE_, symObjAddr: 0x19D04, symBinAddr: 0x10001B36C, symSize: 0x98 }
  - { offsetInCU: 0x46587, offset: 0x46587, size: 0x8, addend: 0x0, symName: __ZNSt3__116allocator_traitsINS_9allocatorINS_11__tree_nodeINS_12__value_typeINS_12basic_stringIcNS_11char_traitsIcEENS1_IcEEEENS_6vectorIdNS1_IdEEEEEEPvEEEEE7destroyB8ue170006INS_4pairIKS8_SB_EEvvEEvRSF_PT_, symObjAddr: 0x19D9C, symBinAddr: 0x10001B404, symSize: 0x28 }
  - { offsetInCU: 0x465C1, offset: 0x465C1, size: 0x8, addend: 0x0, symName: __ZNSt3__116allocator_traitsINS_9allocatorINS_11__tree_nodeINS_12__value_typeINS_12basic_stringIcNS_11char_traitsIcEENS1_IcEEEENS_6vectorIdNS1_IdEEEEEEPvEEEEE10deallocateB8ue170006ERSF_PSE_m, symObjAddr: 0x19DC4, symBinAddr: 0x10001B42C, symSize: 0x34 }
  - { offsetInCU: 0x46603, offset: 0x46603, size: 0x8, addend: 0x0, symName: __ZNSt3__14pairIKNS_12basic_stringIcNS_11char_traitsIcEENS_9allocatorIcEEEENS_6vectorIdNS4_IdEEEEED1Ev, symObjAddr: 0x19DF8, symBinAddr: 0x10001B460, symSize: 0x2C }
  - { offsetInCU: 0x4662F, offset: 0x4662F, size: 0x8, addend: 0x0, symName: __ZNSt3__14pairIKNS_12basic_stringIcNS_11char_traitsIcEENS_9allocatorIcEEEENS_6vectorIdNS4_IdEEEEED2Ev, symObjAddr: 0x19E24, symBinAddr: 0x10001B48C, symSize: 0x38 }
  - { offsetInCU: 0x4665B, offset: 0x4665B, size: 0x8, addend: 0x0, symName: __ZNSt3__16vectorIdNS_9allocatorIdEEED1B8ue170006Ev, symObjAddr: 0x19E5C, symBinAddr: 0x10001B4C4, symSize: 0x2C }
  - { offsetInCU: 0x46685, offset: 0x46685, size: 0x8, addend: 0x0, symName: __ZNSt3__16vectorIdNS_9allocatorIdEEED2B8ue170006Ev, symObjAddr: 0x19E88, symBinAddr: 0x10001B4F0, symSize: 0x44 }
  - { offsetInCU: 0x466AF, offset: 0x466AF, size: 0x8, addend: 0x0, symName: __ZNSt3__16vectorIdNS_9allocatorIdEEE16__destroy_vectorC1B8ue170006ERS3_, symObjAddr: 0x19ECC, symBinAddr: 0x10001B534, symSize: 0x34 }
  - { offsetInCU: 0x466E8, offset: 0x466E8, size: 0x8, addend: 0x0, symName: __ZNSt3__16vectorIdNS_9allocatorIdEEE16__destroy_vectorclB8ue170006Ev, symObjAddr: 0x19F00, symBinAddr: 0x10001B568, symSize: 0x90 }
  - { offsetInCU: 0x4670E, offset: 0x4670E, size: 0x8, addend: 0x0, symName: __ZNSt3__16vectorIdNS_9allocatorIdEEE16__destroy_vectorC2B8ue170006ERS3_, symObjAddr: 0x19F90, symBinAddr: 0x10001B5F8, symSize: 0x20 }
  - { offsetInCU: 0x46747, offset: 0x46747, size: 0x8, addend: 0x0, symName: __ZNSt3__16vectorIdNS_9allocatorIdEEE7__clearB8ue170006Ev, symObjAddr: 0x19FB0, symBinAddr: 0x10001B618, symSize: 0x28 }
  - { offsetInCU: 0x4676D, offset: 0x4676D, size: 0x8, addend: 0x0, symName: __ZNKSt3__16vectorIdNS_9allocatorIdEEE17__annotate_deleteB8ue170006Ev, symObjAddr: 0x19FD8, symBinAddr: 0x10001B640, symSize: 0xB8 }
  - { offsetInCU: 0x46793, offset: 0x46793, size: 0x8, addend: 0x0, symName: __ZNSt3__116allocator_traitsINS_9allocatorIdEEE10deallocateB8ue170006ERS2_Pdm, symObjAddr: 0x1A090, symBinAddr: 0x10001B6F8, symSize: 0x34 }
  - { offsetInCU: 0x467D5, offset: 0x467D5, size: 0x8, addend: 0x0, symName: __ZNSt3__16vectorIdNS_9allocatorIdEEE7__allocB8ue170006Ev, symObjAddr: 0x1A0C4, symBinAddr: 0x10001B72C, symSize: 0x28 }
  - { offsetInCU: 0x467FB, offset: 0x467FB, size: 0x8, addend: 0x0, symName: __ZNKSt3__16vectorIdNS_9allocatorIdEEE8capacityB8ue170006Ev, symObjAddr: 0x1A0EC, symBinAddr: 0x10001B754, symSize: 0x40 }
  - { offsetInCU: 0x46821, offset: 0x46821, size: 0x8, addend: 0x0, symName: __ZNSt3__16vectorIdNS_9allocatorIdEEE22__base_destruct_at_endB8ue170006EPd, symObjAddr: 0x1A12C, symBinAddr: 0x10001B794, symSize: 0x8C }
  - { offsetInCU: 0x46865, offset: 0x46865, size: 0x8, addend: 0x0, symName: __ZNSt3__116allocator_traitsINS_9allocatorIdEEE7destroyB8ue170006IdvEEvRS2_PT_, symObjAddr: 0x1A1B8, symBinAddr: 0x10001B820, symSize: 0x2C }
  - { offsetInCU: 0x468A2, offset: 0x468A2, size: 0x8, addend: 0x0, symName: __ZNSt3__19allocatorIdE7destroyB8ue170006EPd, symObjAddr: 0x1A1F8, symBinAddr: 0x10001B860, symSize: 0x14 }
  - { offsetInCU: 0x468D6, offset: 0x468D6, size: 0x8, addend: 0x0, symName: __ZNKSt3__16vectorIdNS_9allocatorIdEEE31__annotate_contiguous_containerB8ue170006EPKvS5_S5_S5_, symObjAddr: 0x1A20C, symBinAddr: 0x10001B874, symSize: 0x20 }
  - { offsetInCU: 0x46928, offset: 0x46928, size: 0x8, addend: 0x0, symName: __ZNKSt3__16vectorIdNS_9allocatorIdEEE4dataB8ue170006Ev, symObjAddr: 0x1A22C, symBinAddr: 0x10001B894, symSize: 0x28 }
  - { offsetInCU: 0x4694E, offset: 0x4694E, size: 0x8, addend: 0x0, symName: __ZNKSt3__16vectorIdNS_9allocatorIdEEE4sizeB8ue170006Ev, symObjAddr: 0x1A254, symBinAddr: 0x10001B8BC, symSize: 0x28 }
  - { offsetInCU: 0x46974, offset: 0x46974, size: 0x8, addend: 0x0, symName: __ZNSt3__19allocatorIdE10deallocateB8ue170006EPdm, symObjAddr: 0x1A27C, symBinAddr: 0x10001B8E4, symSize: 0x40 }
  - { offsetInCU: 0x469B6, offset: 0x469B6, size: 0x8, addend: 0x0, symName: __ZNSt3__117__compressed_pairIPdNS_9allocatorIdEEE6secondB8ue170006Ev, symObjAddr: 0x1A2BC, symBinAddr: 0x10001B924, symSize: 0x24 }
  - { offsetInCU: 0x469DC, offset: 0x469DC, size: 0x8, addend: 0x0, symName: __ZNSt3__122__compressed_pair_elemINS_9allocatorIdEELi1ELb1EE5__getB8ue170006Ev, symObjAddr: 0x1A2E0, symBinAddr: 0x10001B948, symSize: 0x14 }
  - { offsetInCU: 0x46A02, offset: 0x46A02, size: 0x8, addend: 0x0, symName: __ZNKSt3__16vectorIdNS_9allocatorIdEEE9__end_capB8ue170006Ev, symObjAddr: 0x1A2F4, symBinAddr: 0x10001B95C, symSize: 0x28 }
  - { offsetInCU: 0x46A28, offset: 0x46A28, size: 0x8, addend: 0x0, symName: __ZNKSt3__117__compressed_pairIPdNS_9allocatorIdEEE5firstB8ue170006Ev, symObjAddr: 0x1A31C, symBinAddr: 0x10001B984, symSize: 0x24 }
  - { offsetInCU: 0x46A4E, offset: 0x46A4E, size: 0x8, addend: 0x0, symName: __ZNKSt3__122__compressed_pair_elemIPdLi0ELb0EE5__getB8ue170006Ev, symObjAddr: 0x1A340, symBinAddr: 0x10001B9A8, symSize: 0x14 }
  - { offsetInCU: 0x46A74, offset: 0x46A74, size: 0x8, addend: 0x0, symName: __ZNSt3__19allocatorINS_11__tree_nodeINS_12__value_typeINS_12basic_stringIcNS_11char_traitsIcEENS0_IcEEEENS_6vectorIdNS0_IdEEEEEEPvEEE10deallocateB8ue170006EPSD_m, symObjAddr: 0x1A354, symBinAddr: 0x10001B9BC, symSize: 0x44 }
  - { offsetInCU: 0x46AB6, offset: 0x46AB6, size: 0x8, addend: 0x0, symName: __ZNSt3__115__tree_iteratorINS_12__value_typeINS_12basic_stringIcNS_11char_traitsIcEENS_9allocatorIcEEEENS_6vectorIdNS5_IdEEEEEEPNS_11__tree_nodeISB_PvEElEC2B8ue170006ESF_, symObjAddr: 0x1A398, symBinAddr: 0x10001BA00, symSize: 0x20 }
  - { offsetInCU: 0x46AEF, offset: 0x46AEF, size: 0x8, addend: 0x0, symName: __ZNSt3__14pairINS_15__tree_iteratorINS_12__value_typeINS_12basic_stringIcNS_11char_traitsIcEENS_9allocatorIcEEEENS_6vectorIdNS6_IdEEEEEEPNS_11__tree_nodeISC_PvEElEEbEC2B8ue170006ISH_RbLSE_0EEEOT_OT0_, symObjAddr: 0x1A3B8, symBinAddr: 0x10001BA20, symSize: 0x38 }
  - { offsetInCU: 0x46B4D, offset: 0x46B4D, size: 0x8, addend: 0x0, symName: __ZNSt3__114pointer_traitsIPNS_12__value_typeINS_12basic_stringIcNS_11char_traitsIcEENS_9allocatorIcEEEENS_6vectorIdNS5_IdEEEEEEE10pointer_toB8ue170006ERSB_, symObjAddr: 0x1A3F0, symBinAddr: 0x10001BA58, symSize: 0x14 }
  - { offsetInCU: 0x46B70, offset: 0x46B70, size: 0x8, addend: 0x0, symName: __ZNKSt3__115__tree_iteratorINS_12__value_typeINS_12basic_stringIcNS_11char_traitsIcEENS_9allocatorIcEEEENS_6vectorIdNS5_IdEEEEEEPNS_11__tree_nodeISB_PvEElE8__get_npB8ue170006Ev, symObjAddr: 0x1A404, symBinAddr: 0x10001BA6C, symSize: 0x18 }
  - { offsetInCU: 0x46B96, offset: 0x46B96, size: 0x8, addend: 0x0, symName: __ZNSt3__16vectorIdNS_9allocatorIdEEE19__copy_assign_allocB8ue170006ERKS3_, symObjAddr: 0x1A41C, symBinAddr: 0x10001BA84, symSize: 0x2C }
  - { offsetInCU: 0x46BCB, offset: 0x46BCB, size: 0x8, addend: 0x0, symName: __ZNSt3__16vectorIdNS_9allocatorIdEEE6assignIPdLi0EEEvT_S6_, symObjAddr: 0x1A448, symBinAddr: 0x10001BAB0, symSize: 0x5C }
  - { offsetInCU: 0x46C20, offset: 0x46C20, size: 0x8, addend: 0x0, symName: __ZNSt3__16vectorIdNS_9allocatorIdEEE19__copy_assign_allocB8ue170006ERKS3_NS_17integral_constantIbLb0EEE, symObjAddr: 0x1A4A4, symBinAddr: 0x10001BB0C, symSize: 0x14 }
  - { offsetInCU: 0x46C5C, offset: 0x46C5C, size: 0x8, addend: 0x0, symName: __ZNSt3__16vectorIdNS_9allocatorIdEEE18__assign_with_sizeB8ue170006IPdS5_EEvT_T0_l, symObjAddr: 0x1A4B8, symBinAddr: 0x10001BB20, symSize: 0x164 }
  - { offsetInCU: 0x46D0C, offset: 0x46D0C, size: 0x8, addend: 0x0, symName: __ZNSt3__16vectorIdNS_9allocatorIdEEE18__construct_at_endIPdS5_EEvT_T0_m, symObjAddr: 0x1A6BC, symBinAddr: 0x10001BD24, symSize: 0x8C }
  - { offsetInCU: 0x46D82, offset: 0x46D82, size: 0x8, addend: 0x0, symName: __ZNSt3__16vectorIdNS_9allocatorIdEEE17__destruct_at_endB8ue170006EPd, symObjAddr: 0x1A78C, symBinAddr: 0x10001BDF4, symSize: 0x4C }
  - { offsetInCU: 0x46DC6, offset: 0x46DC6, size: 0x8, addend: 0x0, symName: __ZNSt3__16vectorIdNS_9allocatorIdEEE13__vdeallocateEv, symObjAddr: 0x1A7D8, symBinAddr: 0x10001BE40, symSize: 0x94 }
  - { offsetInCU: 0x46DEE, offset: 0x46DEE, size: 0x8, addend: 0x0, symName: __ZNSt3__16vectorIdNS_9allocatorIdEEE11__vallocateB8ue170006Em, symObjAddr: 0x1A86C, symBinAddr: 0x10001BED4, symSize: 0xAC }
  - { offsetInCU: 0x46E32, offset: 0x46E32, size: 0x8, addend: 0x0, symName: __ZNKSt3__16vectorIdNS_9allocatorIdEEE11__recommendB8ue170006Em, symObjAddr: 0x1A918, symBinAddr: 0x10001BF80, symSize: 0xB4 }
  - { offsetInCU: 0x46EA3, offset: 0x46EA3, size: 0x8, addend: 0x0, symName: __ZNSt3__16vectorIdNS_9allocatorIdEEE21_ConstructTransactionC1B8ue170006ERS3_m, symObjAddr: 0x1AA2C, symBinAddr: 0x10001C094, symSize: 0x3C }
  - { offsetInCU: 0x46EEB, offset: 0x46EEB, size: 0x8, addend: 0x0, symName: __ZNSt3__16vectorIdNS_9allocatorIdEEE21_ConstructTransactionD1B8ue170006Ev, symObjAddr: 0x1AAE8, symBinAddr: 0x10001C150, symSize: 0x2C }
  - { offsetInCU: 0x46F15, offset: 0x46F15, size: 0x8, addend: 0x0, symName: __ZNSt3__16vectorIdNS_9allocatorIdEEE21_ConstructTransactionC2B8ue170006ERS3_m, symObjAddr: 0x1AB14, symBinAddr: 0x10001C17C, symSize: 0x44 }
  - { offsetInCU: 0x46F80, offset: 0x46F80, size: 0x8, addend: 0x0, symName: __ZNSt3__14pairIPdS1_EC1B8ue170006IS1_S1_LPv0EEEOT_OT0_, symObjAddr: 0x1AC88, symBinAddr: 0x10001C2F0, symSize: 0x3C }
  - { offsetInCU: 0x46FDE, offset: 0x46FDE, size: 0x8, addend: 0x0, symName: __ZNSt3__14pairIPdS1_EC2B8ue170006IS1_S1_LPv0EEEOT_OT0_, symObjAddr: 0x1ACC4, symBinAddr: 0x10001C32C, symSize: 0x34 }
  - { offsetInCU: 0x4703C, offset: 0x4703C, size: 0x8, addend: 0x0, symName: __ZNSt3__118__unwrap_iter_implIPdLb1EE8__unwrapB8ue170006ES1_, symObjAddr: 0x1ACF8, symBinAddr: 0x10001C360, symSize: 0x24 }
  - { offsetInCU: 0x4705F, offset: 0x4705F, size: 0x8, addend: 0x0, symName: __ZNSt3__118__unwrap_iter_implIPdLb1EE8__rewrapB8ue170006ES1_S1_, symObjAddr: 0x1AD1C, symBinAddr: 0x10001C384, symSize: 0x50 }
  - { offsetInCU: 0x47090, offset: 0x47090, size: 0x8, addend: 0x0, symName: __ZNSt3__16vectorIdNS_9allocatorIdEEE21_ConstructTransactionD2B8ue170006Ev, symObjAddr: 0x1AD6C, symBinAddr: 0x10001C3D4, symSize: 0x20 }
  - { offsetInCU: 0x470C5, offset: 0x470C5, size: 0x8, addend: 0x0, symName: __ZNKSt3__114__copy_trivialclB8ue170006IddLi0EEENS_4pairIPT_PT0_EES4_S4_S6_, symObjAddr: 0x1AE84, symBinAddr: 0x10001C4EC, symSize: 0x48 }
  - { offsetInCU: 0x4712D, offset: 0x4712D, size: 0x8, addend: 0x0, symName: __ZNSt3__14pairIPdS1_EC1B8ue170006IRS1_S1_LPv0EEEOT_OT0_, symObjAddr: 0x1B014, symBinAddr: 0x10001C67C, symSize: 0x3C }
  - { offsetInCU: 0x4718B, offset: 0x4718B, size: 0x8, addend: 0x0, symName: __ZNSt3__14pairIPdS1_EC2B8ue170006IRS1_S1_LPv0EEEOT_OT0_, symObjAddr: 0x1B050, symBinAddr: 0x10001C6B8, symSize: 0x34 }
  - { offsetInCU: 0x471E9, offset: 0x471E9, size: 0x8, addend: 0x0, symName: __ZNKSt3__16vectorIdNS_9allocatorIdEEE17__annotate_shrinkB8ue170006Em, symObjAddr: 0x1B084, symBinAddr: 0x10001C6EC, symSize: 0xB4 }
  - { offsetInCU: 0x4721E, offset: 0x4721E, size: 0x8, addend: 0x0, symName: __ZNSt3__16vectorIdNS_9allocatorIdEEE5clearB8ue170006Ev, symObjAddr: 0x1B138, symBinAddr: 0x10001C7A0, symSize: 0x44 }
  - { offsetInCU: 0x47253, offset: 0x47253, size: 0x8, addend: 0x0, symName: __ZNSt3__16vectorIdNS_9allocatorIdEEE9__end_capB8ue170006Ev, symObjAddr: 0x1B17C, symBinAddr: 0x10001C7E4, symSize: 0x28 }
  - { offsetInCU: 0x47279, offset: 0x47279, size: 0x8, addend: 0x0, symName: __ZNSt3__117__compressed_pairIPdNS_9allocatorIdEEE5firstB8ue170006Ev, symObjAddr: 0x1B1A4, symBinAddr: 0x10001C80C, symSize: 0x24 }
  - { offsetInCU: 0x4729F, offset: 0x4729F, size: 0x8, addend: 0x0, symName: __ZNSt3__122__compressed_pair_elemIPdLi0ELb0EE5__getB8ue170006Ev, symObjAddr: 0x1B1C8, symBinAddr: 0x10001C830, symSize: 0x14 }
  - { offsetInCU: 0x472C5, offset: 0x472C5, size: 0x8, addend: 0x0, symName: __ZNKSt3__16vectorIdNS_9allocatorIdEEE8max_sizeEv, symObjAddr: 0x1B1DC, symBinAddr: 0x10001C844, symSize: 0x60 }
  - { offsetInCU: 0x472ED, offset: 0x472ED, size: 0x8, addend: 0x0, symName: __ZNKSt3__16vectorIdNS_9allocatorIdEEE20__throw_length_errorB8ue170006Ev, symObjAddr: 0x1B23C, symBinAddr: 0x10001C8A4, symSize: 0x1C }
  - { offsetInCU: 0x47313, offset: 0x47313, size: 0x8, addend: 0x0, symName: __ZNKSt3__16vectorIdNS_9allocatorIdEEE14__annotate_newB8ue170006Em, symObjAddr: 0x1B298, symBinAddr: 0x10001C900, symSize: 0xAC }
  - { offsetInCU: 0x47353, offset: 0x47353, size: 0x8, addend: 0x0, symName: __ZNSt3__116allocator_traitsINS_9allocatorIdEEE8max_sizeB8ue170006IS2_vEEmRKS2_, symObjAddr: 0x1B344, symBinAddr: 0x10001C9AC, symSize: 0x24 }
  - { offsetInCU: 0x47381, offset: 0x47381, size: 0x8, addend: 0x0, symName: __ZNKSt3__16vectorIdNS_9allocatorIdEEE7__allocB8ue170006Ev, symObjAddr: 0x1B368, symBinAddr: 0x10001C9D0, symSize: 0x28 }
  - { offsetInCU: 0x473A7, offset: 0x473A7, size: 0x8, addend: 0x0, symName: __ZNKSt3__19allocatorIdE8max_sizeB8ue170006Ev, symObjAddr: 0x1B390, symBinAddr: 0x10001C9F8, symSize: 0x14 }
  - { offsetInCU: 0x473CD, offset: 0x473CD, size: 0x8, addend: 0x0, symName: __ZNKSt3__117__compressed_pairIPdNS_9allocatorIdEEE6secondB8ue170006Ev, symObjAddr: 0x1B3A4, symBinAddr: 0x10001CA0C, symSize: 0x24 }
  - { offsetInCU: 0x473F3, offset: 0x473F3, size: 0x8, addend: 0x0, symName: __ZNKSt3__122__compressed_pair_elemINS_9allocatorIdEELi1ELb1EE5__getB8ue170006Ev, symObjAddr: 0x1B3C8, symBinAddr: 0x10001CA30, symSize: 0x14 }
  - { offsetInCU: 0x47419, offset: 0x47419, size: 0x8, addend: 0x0, symName: __ZNSt3__19allocatorIdE8allocateB8ue170006Em, symObjAddr: 0x1B3DC, symBinAddr: 0x10001CA44, symSize: 0x58 }
  - { offsetInCU: 0x4744D, offset: 0x4744D, size: 0x8, addend: 0x0, symName: __ZNSt3__13mapINS_12basic_stringIcNS_11char_traitsIcEENS_9allocatorIcEEEENS_6vectorIdNS4_IdEEEENS_4lessIS6_EENS4_INS_4pairIKS6_S9_EEEEED2B8ue170006Ev, symObjAddr: 0x1B45C, symBinAddr: 0x10001CAC4, symSize: 0x2C }
  - { offsetInCU: 0x47477, offset: 0x47477, size: 0x8, addend: 0x0, symName: __ZNSt3__16__treeINS_12__value_typeINS_12basic_stringIcNS_11char_traitsIcEENS_9allocatorIcEEEENS_6vectorIdNS5_IdEEEEEENS_19__map_value_compareIS7_SB_NS_4lessIS7_EELb1EEENS5_ISB_EEED1Ev, symObjAddr: 0x1B488, symBinAddr: 0x10001CAF0, symSize: 0x2C }
  - { offsetInCU: 0x474A3, offset: 0x474A3, size: 0x8, addend: 0x0, symName: __ZNSt3__16__treeINS_12__value_typeINS_12basic_stringIcNS_11char_traitsIcEENS_9allocatorIcEEEENS_6vectorIdNS5_IdEEEEEENS_19__map_value_compareIS7_SB_NS_4lessIS7_EELb1EEENS5_ISB_EEED2Ev, symObjAddr: 0x1B4B4, symBinAddr: 0x10001CB1C, symSize: 0x38 }
  - { offsetInCU: 0x474CF, offset: 0x474CF, size: 0x8, addend: 0x0, symName: __ZNSt3__16__treeINS_12__value_typeINS_12basic_stringIcNS_11char_traitsIcEENS_9allocatorIcEEEENS_6vectorIdNS5_IdEEEEEENS_19__map_value_compareIS7_SB_NS_4lessIS7_EELb1EEENS5_ISB_EEE7destroyEPNS_11__tree_nodeISB_PvEE, symObjAddr: 0x1B4EC, symBinAddr: 0x10001CB54, symSize: 0xA8 }
  - { offsetInCU: 0x4751B, offset: 0x4751B, size: 0x8, addend: 0x0, symName: __ZN10MRStrategy9updateSMAEv, symObjAddr: 0x1B594, symBinAddr: 0x10001CBFC, symSize: 0x420 }
  - { offsetInCU: 0x47608, offset: 0x47608, size: 0x8, addend: 0x0, symName: __ZNSt3__16vectorIdNS_9allocatorIdEEE4backB8ue170006Ev, symObjAddr: 0x1B9B4, symBinAddr: 0x10001D01C, symSize: 0x1C }
  - { offsetInCU: 0x4762E, offset: 0x4762E, size: 0x8, addend: 0x0, symName: __ZNSt3__13mapINS_12basic_stringIcNS_11char_traitsIcEENS_9allocatorIcEEEEPNS_6vectorI3barNS4_IS8_EEEENS_4lessIS6_EENS4_INS_4pairIKS6_SB_EEEEEC1B8ue170006ERKSI_, symObjAddr: 0x1B9D0, symBinAddr: 0x10001D038, symSize: 0x34 }
  - { offsetInCU: 0x47667, offset: 0x47667, size: 0x8, addend: 0x0, symName: __ZNSt3__16vectorIdNS_9allocatorIdEEE9push_backB8ue170006ERKd, symObjAddr: 0x1BA04, symBinAddr: 0x10001D06C, symSize: 0x6C }
  - { offsetInCU: 0x4769E, offset: 0x4769E, size: 0x8, addend: 0x0, symName: __ZNSt3__16vectorIdNS_9allocatorIdEEE9push_backB8ue170006EOd, symObjAddr: 0x1BAD4, symBinAddr: 0x10001D13C, symSize: 0x6C }
  - { offsetInCU: 0x476D5, offset: 0x476D5, size: 0x8, addend: 0x0, symName: __ZNSt3__13mapINS_12basic_stringIcNS_11char_traitsIcEENS_9allocatorIcEEEEPNS_6vectorI3barNS4_IS8_EEEENS_4lessIS6_EENS4_INS_4pairIKS6_SB_EEEEEC2B8ue170006ERKSI_, symObjAddr: 0x1BB40, symBinAddr: 0x10001D1A8, symSize: 0x88 }
  - { offsetInCU: 0x4770E, offset: 0x4770E, size: 0x8, addend: 0x0, symName: __ZNSt3__16__treeINS_12__value_typeINS_12basic_stringIcNS_11char_traitsIcEENS_9allocatorIcEEEEPNS_6vectorI3barNS5_IS9_EEEEEENS_19__map_value_compareIS7_SD_NS_4lessIS7_EELb1EEENS5_ISD_EEEC1ERKSJ_, symObjAddr: 0x1BBC8, symBinAddr: 0x10001D230, symSize: 0x34 }
  - { offsetInCU: 0x47749, offset: 0x47749, size: 0x8, addend: 0x0, symName: __ZNSt3__13mapINS_12basic_stringIcNS_11char_traitsIcEENS_9allocatorIcEEEEPNS_6vectorI3barNS4_IS8_EEEENS_4lessIS6_EENS4_INS_4pairIKS6_SB_EEEEE6insertB8ue170006INS_20__map_const_iteratorINS_21__tree_const_iteratorINS_12__value_typeIS6_SB_EEPNS_11__tree_nodeISN_PvEElEEEEEEvT_SU_, symObjAddr: 0x1BBFC, symBinAddr: 0x10001D264, symSize: 0x8C }
  - { offsetInCU: 0x477B3, offset: 0x477B3, size: 0x8, addend: 0x0, symName: __ZNKSt3__13mapINS_12basic_stringIcNS_11char_traitsIcEENS_9allocatorIcEEEEPNS_6vectorI3barNS4_IS8_EEEENS_4lessIS6_EENS4_INS_4pairIKS6_SB_EEEEE5beginB8ue170006Ev, symObjAddr: 0x1BC88, symBinAddr: 0x10001D2F0, symSize: 0x38 }
  - { offsetInCU: 0x477D9, offset: 0x477D9, size: 0x8, addend: 0x0, symName: __ZNKSt3__13mapINS_12basic_stringIcNS_11char_traitsIcEENS_9allocatorIcEEEEPNS_6vectorI3barNS4_IS8_EEEENS_4lessIS6_EENS4_INS_4pairIKS6_SB_EEEEE3endB8ue170006Ev, symObjAddr: 0x1BCC0, symBinAddr: 0x10001D328, symSize: 0x38 }
  - { offsetInCU: 0x477FF, offset: 0x477FF, size: 0x8, addend: 0x0, symName: __ZNSt3__16__treeINS_12__value_typeINS_12basic_stringIcNS_11char_traitsIcEENS_9allocatorIcEEEEPNS_6vectorI3barNS5_IS9_EEEEEENS_19__map_value_compareIS7_SD_NS_4lessIS7_EELb1EEENS5_ISD_EEEC2ERKSJ_, symObjAddr: 0x1BCF8, symBinAddr: 0x10001D360, symSize: 0x9C }
  - { offsetInCU: 0x47845, offset: 0x47845, size: 0x8, addend: 0x0, symName: __ZNSt3__116allocator_traitsINS_9allocatorINS_11__tree_nodeINS_12__value_typeINS_12basic_stringIcNS_11char_traitsIcEENS1_IcEEEEPNS_6vectorI3barNS1_ISA_EEEEEEPvEEEEE37select_on_container_copy_constructionB8ue170006ISH_vvEESH_RKSH_, symObjAddr: 0x1BD94, symBinAddr: 0x10001D3FC, symSize: 0x10 }
  - { offsetInCU: 0x47874, offset: 0x47874, size: 0x8, addend: 0x0, symName: __ZNKSt3__16__treeINS_12__value_typeINS_12basic_stringIcNS_11char_traitsIcEENS_9allocatorIcEEEEPNS_6vectorI3barNS5_IS9_EEEEEENS_19__map_value_compareIS7_SD_NS_4lessIS7_EELb1EEENS5_ISD_EEE12__node_allocB8ue170006Ev, symObjAddr: 0x1BDA4, symBinAddr: 0x10001D40C, symSize: 0x28 }
  - { offsetInCU: 0x478A0, offset: 0x478A0, size: 0x8, addend: 0x0, symName: __ZNSt3__117__compressed_pairINS_15__tree_end_nodeIPNS_16__tree_node_baseIPvEEEENS_9allocatorINS_11__tree_nodeINS_12__value_typeINS_12basic_stringIcNS_11char_traitsIcEENS7_IcEEEEPNS_6vectorI3barNS7_ISG_EEEEEES3_EEEEEC1B8ue170006INS_18__default_init_tagESM_EEOT_OT0_, symObjAddr: 0x1BDCC, symBinAddr: 0x10001D434, symSize: 0x3C }
  - { offsetInCU: 0x478F8, offset: 0x478F8, size: 0x8, addend: 0x0, symName: __ZNKSt3__16__treeINS_12__value_typeINS_12basic_stringIcNS_11char_traitsIcEENS_9allocatorIcEEEEPNS_6vectorI3barNS5_IS9_EEEEEENS_19__map_value_compareIS7_SD_NS_4lessIS7_EELb1EEENS5_ISD_EEE10value_compB8ue170006Ev, symObjAddr: 0x1BE08, symBinAddr: 0x10001D470, symSize: 0x28 }
  - { offsetInCU: 0x4791E, offset: 0x4791E, size: 0x8, addend: 0x0, symName: __ZNKSt3__117__compressed_pairINS_15__tree_end_nodeIPNS_16__tree_node_baseIPvEEEENS_9allocatorINS_11__tree_nodeINS_12__value_typeINS_12basic_stringIcNS_11char_traitsIcEENS7_IcEEEEPNS_6vectorI3barNS7_ISG_EEEEEES3_EEEEE6secondB8ue170006Ev, symObjAddr: 0x1BE30, symBinAddr: 0x10001D498, symSize: 0x24 }
  - { offsetInCU: 0x47944, offset: 0x47944, size: 0x8, addend: 0x0, symName: __ZNKSt3__122__compressed_pair_elemINS_9allocatorINS_11__tree_nodeINS_12__value_typeINS_12basic_stringIcNS_11char_traitsIcEENS1_IcEEEEPNS_6vectorI3barNS1_ISA_EEEEEEPvEEEELi1ELb1EE5__getB8ue170006Ev, symObjAddr: 0x1BE54, symBinAddr: 0x10001D4BC, symSize: 0x14 }
  - { offsetInCU: 0x4796A, offset: 0x4796A, size: 0x8, addend: 0x0, symName: __ZNSt3__117__compressed_pairINS_15__tree_end_nodeIPNS_16__tree_node_baseIPvEEEENS_9allocatorINS_11__tree_nodeINS_12__value_typeINS_12basic_stringIcNS_11char_traitsIcEENS7_IcEEEEPNS_6vectorI3barNS7_ISG_EEEEEES3_EEEEEC2B8ue170006INS_18__default_init_tagESM_EEOT_OT0_, symObjAddr: 0x1BE68, symBinAddr: 0x10001D4D0, symSize: 0x40 }
  - { offsetInCU: 0x479C2, offset: 0x479C2, size: 0x8, addend: 0x0, symName: __ZNSt3__122__compressed_pair_elemINS_9allocatorINS_11__tree_nodeINS_12__value_typeINS_12basic_stringIcNS_11char_traitsIcEENS1_IcEEEEPNS_6vectorI3barNS1_ISA_EEEEEEPvEEEELi1ELb1EEC2B8ue170006ISH_vEEOT_, symObjAddr: 0x1BEA8, symBinAddr: 0x10001D510, symSize: 0x18 }
  - { offsetInCU: 0x47A04, offset: 0x47A04, size: 0x8, addend: 0x0, symName: __ZNKSt3__117__compressed_pairImNS_19__map_value_compareINS_12basic_stringIcNS_11char_traitsIcEENS_9allocatorIcEEEENS_12__value_typeIS7_PNS_6vectorI3barNS5_ISA_EEEEEENS_4lessIS7_EELb1EEEE6secondB8ue170006Ev, symObjAddr: 0x1BEC0, symBinAddr: 0x10001D528, symSize: 0x24 }
  - { offsetInCU: 0x47A2A, offset: 0x47A2A, size: 0x8, addend: 0x0, symName: __ZNKSt3__122__compressed_pair_elemINS_19__map_value_compareINS_12basic_stringIcNS_11char_traitsIcEENS_9allocatorIcEEEENS_12__value_typeIS7_PNS_6vectorI3barNS5_ISA_EEEEEENS_4lessIS7_EELb1EEELi1ELb1EE5__getB8ue170006Ev, symObjAddr: 0x1BEE4, symBinAddr: 0x10001D54C, symSize: 0x14 }
  - { offsetInCU: 0x47A50, offset: 0x47A50, size: 0x8, addend: 0x0, symName: __ZNKSt3__13mapINS_12basic_stringIcNS_11char_traitsIcEENS_9allocatorIcEEEEPNS_6vectorI3barNS4_IS8_EEEENS_4lessIS6_EENS4_INS_4pairIKS6_SB_EEEEE4cendB8ue170006Ev, symObjAddr: 0x1BEF8, symBinAddr: 0x10001D560, symSize: 0x2C }
  - { offsetInCU: 0x47A76, offset: 0x47A76, size: 0x8, addend: 0x0, symName: __ZNSt3__13mapINS_12basic_stringIcNS_11char_traitsIcEENS_9allocatorIcEEEEPNS_6vectorI3barNS4_IS8_EEEENS_4lessIS6_EENS4_INS_4pairIKS6_SB_EEEEE6insertB8ue170006ENS_20__map_const_iteratorINS_21__tree_const_iteratorINS_12__value_typeIS6_SB_EEPNS_11__tree_nodeISM_PvEElEEEERKSG_, symObjAddr: 0x1BF54, symBinAddr: 0x10001D5BC, symSize: 0x50 }
  - { offsetInCU: 0x47ABA, offset: 0x47ABA, size: 0x8, addend: 0x0, symName: __ZNSt3__120__map_const_iteratorINS_21__tree_const_iteratorINS_12__value_typeINS_12basic_stringIcNS_11char_traitsIcEENS_9allocatorIcEEEEPNS_6vectorI3barNS6_ISA_EEEEEEPNS_11__tree_nodeISE_PvEElEEEC1B8ue170006ESJ_, symObjAddr: 0x1BFA4, symBinAddr: 0x10001D60C, symSize: 0x34 }
  - { offsetInCU: 0x47AF3, offset: 0x47AF3, size: 0x8, addend: 0x0, symName: __ZNKSt3__120__map_const_iteratorINS_21__tree_const_iteratorINS_12__value_typeINS_12basic_stringIcNS_11char_traitsIcEENS_9allocatorIcEEEEPNS_6vectorI3barNS6_ISA_EEEEEEPNS_11__tree_nodeISE_PvEElEEEdeB8ue170006Ev, symObjAddr: 0x1BFD8, symBinAddr: 0x10001D640, symSize: 0x28 }
  - { offsetInCU: 0x47B19, offset: 0x47B19, size: 0x8, addend: 0x0, symName: __ZNSt3__120__map_const_iteratorINS_21__tree_const_iteratorINS_12__value_typeINS_12basic_stringIcNS_11char_traitsIcEENS_9allocatorIcEEEEPNS_6vectorI3barNS6_ISA_EEEEEEPNS_11__tree_nodeISE_PvEElEEEppB8ue170006Ev, symObjAddr: 0x1C000, symBinAddr: 0x10001D668, symSize: 0x2C }
  - { offsetInCU: 0x47B3F, offset: 0x47B3F, size: 0x8, addend: 0x0, symName: __ZNSt3__16__treeINS_12__value_typeINS_12basic_stringIcNS_11char_traitsIcEENS_9allocatorIcEEEEPNS_6vectorI3barNS5_IS9_EEEEEENS_19__map_value_compareIS7_SD_NS_4lessIS7_EELb1EEENS5_ISD_EEE15__insert_uniqueB8ue170006ENS_21__tree_const_iteratorISD_PNS_11__tree_nodeISD_PvEElEERKNS_4pairIKS7_SC_EE, symObjAddr: 0x1C090, symBinAddr: 0x10001D6F8, symSize: 0x64 }
  - { offsetInCU: 0x47B83, offset: 0x47B83, size: 0x8, addend: 0x0, symName: __ZNSt3__114__map_iteratorINS_15__tree_iteratorINS_12__value_typeINS_12basic_stringIcNS_11char_traitsIcEENS_9allocatorIcEEEEPNS_6vectorI3barNS6_ISA_EEEEEEPNS_11__tree_nodeISE_PvEElEEEC1B8ue170006ESJ_, symObjAddr: 0x1C0F4, symBinAddr: 0x10001D75C, symSize: 0x34 }
  - { offsetInCU: 0x47BBC, offset: 0x47BBC, size: 0x8, addend: 0x0, symName: __ZNSt3__16__treeINS_12__value_typeINS_12basic_stringIcNS_11char_traitsIcEENS_9allocatorIcEEEEPNS_6vectorI3barNS5_IS9_EEEEEENS_19__map_value_compareIS7_SD_NS_4lessIS7_EELb1EEENS5_ISD_EEE30__emplace_hint_unique_key_argsIS7_JRKNS_4pairIKS7_SC_EEEEENSL_INS_15__tree_iteratorISD_PNS_11__tree_nodeISD_PvEElEEbEENS_21__tree_const_iteratorISD_SU_lEERKT_DpOT0_, symObjAddr: 0x1C128, symBinAddr: 0x10001D790, symSize: 0x104 }
  - { offsetInCU: 0x47C88, offset: 0x47C88, size: 0x8, addend: 0x0, symName: __ZNSt3__122__tree_key_value_typesINS_12__value_typeINS_12basic_stringIcNS_11char_traitsIcEENS_9allocatorIcEEEEPNS_6vectorI3barNS5_IS9_EEEEEEE9__get_keyB8ue170006IKNS_4pairIKS7_SC_EEEENS_9enable_ifIXsr17__is_same_uncvrefIT_SI_EE5valueERSH_E4typeERSL_, symObjAddr: 0x1C22C, symBinAddr: 0x10001D894, symSize: 0x14 }
  - { offsetInCU: 0x47CB5, offset: 0x47CB5, size: 0x8, addend: 0x0, symName: __ZNSt3__16__treeINS_12__value_typeINS_12basic_stringIcNS_11char_traitsIcEENS_9allocatorIcEEEEPNS_6vectorI3barNS5_IS9_EEEEEENS_19__map_value_compareIS7_SD_NS_4lessIS7_EELb1EEENS5_ISD_EEE12__find_equalIS7_EERPNS_16__tree_node_baseIPvEENS_21__tree_const_iteratorISD_PNS_11__tree_nodeISD_SM_EElEERPNS_15__tree_end_nodeISO_EESP_RKT_, symObjAddr: 0x1C240, symBinAddr: 0x10001D8A8, symSize: 0x304 }
  - { offsetInCU: 0x47D5E, offset: 0x47D5E, size: 0x8, addend: 0x0, symName: __ZNSt3__16__treeINS_12__value_typeINS_12basic_stringIcNS_11char_traitsIcEENS_9allocatorIcEEEEPNS_6vectorI3barNS5_IS9_EEEEEENS_19__map_value_compareIS7_SD_NS_4lessIS7_EELb1EEENS5_ISD_EEE16__construct_nodeIJRKNS_4pairIKS7_SC_EEEEENS_10unique_ptrINS_11__tree_nodeISD_PvEENS_22__tree_node_destructorINS5_IST_EEEEEEDpOT_, symObjAddr: 0x1C544, symBinAddr: 0x10001DBAC, symSize: 0x110 }
  - { offsetInCU: 0x47DBF, offset: 0x47DBF, size: 0x8, addend: 0x0, symName: __ZNSt3__16__treeINS_12__value_typeINS_12basic_stringIcNS_11char_traitsIcEENS_9allocatorIcEEEEPNS_6vectorI3barNS5_IS9_EEEEEENS_19__map_value_compareIS7_SD_NS_4lessIS7_EELb1EEENS5_ISD_EEE16__insert_node_atEPNS_15__tree_end_nodeIPNS_16__tree_node_baseIPvEEEERSO_SO_, symObjAddr: 0x1C654, symBinAddr: 0x10001DCBC, symSize: 0xCC }
  - { offsetInCU: 0x47E14, offset: 0x47E14, size: 0x8, addend: 0x0, symName: __ZNKSt3__110unique_ptrINS_11__tree_nodeINS_12__value_typeINS_12basic_stringIcNS_11char_traitsIcEENS_9allocatorIcEEEEPNS_6vectorI3barNS6_ISA_EEEEEEPvEENS_22__tree_node_destructorINS6_ISG_EEEEE3getB8ue170006Ev, symObjAddr: 0x1C720, symBinAddr: 0x10001DD88, symSize: 0x28 }
  - { offsetInCU: 0x47E3A, offset: 0x47E3A, size: 0x8, addend: 0x0, symName: __ZNSt3__110unique_ptrINS_11__tree_nodeINS_12__value_typeINS_12basic_stringIcNS_11char_traitsIcEENS_9allocatorIcEEEEPNS_6vectorI3barNS6_ISA_EEEEEEPvEENS_22__tree_node_destructorINS6_ISG_EEEEE7releaseB8ue170006Ev, symObjAddr: 0x1C748, symBinAddr: 0x10001DDB0, symSize: 0x44 }
  - { offsetInCU: 0x47E6F, offset: 0x47E6F, size: 0x8, addend: 0x0, symName: __ZNSt3__110unique_ptrINS_11__tree_nodeINS_12__value_typeINS_12basic_stringIcNS_11char_traitsIcEENS_9allocatorIcEEEEPNS_6vectorI3barNS6_ISA_EEEEEEPvEENS_22__tree_node_destructorINS6_ISG_EEEEED1B8ue170006Ev, symObjAddr: 0x1C78C, symBinAddr: 0x10001DDF4, symSize: 0x2C }
  - { offsetInCU: 0x47E99, offset: 0x47E99, size: 0x8, addend: 0x0, symName: __ZNSt3__115__tree_iteratorINS_12__value_typeINS_12basic_stringIcNS_11char_traitsIcEENS_9allocatorIcEEEEPNS_6vectorI3barNS5_IS9_EEEEEEPNS_11__tree_nodeISD_PvEElEC1B8ue170006ESH_, symObjAddr: 0x1C7B8, symBinAddr: 0x10001DE20, symSize: 0x34 }
  - { offsetInCU: 0x47ED8, offset: 0x47ED8, size: 0x8, addend: 0x0, symName: __ZNSt3__14pairINS_15__tree_iteratorINS_12__value_typeINS_12basic_stringIcNS_11char_traitsIcEENS_9allocatorIcEEEEPNS_6vectorI3barNS6_ISA_EEEEEEPNS_11__tree_nodeISE_PvEElEEbEC1B8ue170006ISJ_RbLSG_0EEEOT_OT0_, symObjAddr: 0x1C7EC, symBinAddr: 0x10001DE54, symSize: 0x3C }
  - { offsetInCU: 0x47F36, offset: 0x47F36, size: 0x8, addend: 0x0, symName: __ZNSt3__16__treeINS_12__value_typeINS_12basic_stringIcNS_11char_traitsIcEENS_9allocatorIcEEEEPNS_6vectorI3barNS5_IS9_EEEEEENS_19__map_value_compareIS7_SD_NS_4lessIS7_EELb1EEENS5_ISD_EEE3endB8ue170006Ev, symObjAddr: 0x1C828, symBinAddr: 0x10001DE90, symSize: 0x34 }
  - { offsetInCU: 0x47F5C, offset: 0x47F5C, size: 0x8, addend: 0x0, symName: __ZNSt3__121__tree_const_iteratorINS_12__value_typeINS_12basic_stringIcNS_11char_traitsIcEENS_9allocatorIcEEEEPNS_6vectorI3barNS5_IS9_EEEEEEPNS_11__tree_nodeISD_PvEElEC1B8ue170006ENS_15__tree_iteratorISD_SH_lEE, symObjAddr: 0x1C85C, symBinAddr: 0x10001DEC4, symSize: 0x34 }
  - { offsetInCU: 0x47F95, offset: 0x47F95, size: 0x8, addend: 0x0, symName: __ZNSt3__16__treeINS_12__value_typeINS_12basic_stringIcNS_11char_traitsIcEENS_9allocatorIcEEEEPNS_6vectorI3barNS5_IS9_EEEEEENS_19__map_value_compareIS7_SD_NS_4lessIS7_EELb1EEENS5_ISD_EEE10value_compB8ue170006Ev, symObjAddr: 0x1C890, symBinAddr: 0x10001DEF8, symSize: 0x28 }
  - { offsetInCU: 0x47FBB, offset: 0x47FBB, size: 0x8, addend: 0x0, symName: __ZNKSt3__119__map_value_compareINS_12basic_stringIcNS_11char_traitsIcEENS_9allocatorIcEEEENS_12__value_typeIS6_PNS_6vectorI3barNS4_IS9_EEEEEENS_4lessIS6_EELb1EEclB8ue170006ERKS6_RKSD_, symObjAddr: 0x1C8B8, symBinAddr: 0x10001DF20, symSize: 0x50 }
  - { offsetInCU: 0x47FFF, offset: 0x47FFF, size: 0x8, addend: 0x0, symName: __ZNKSt3__121__tree_const_iteratorINS_12__value_typeINS_12basic_stringIcNS_11char_traitsIcEENS_9allocatorIcEEEEPNS_6vectorI3barNS5_IS9_EEEEEEPNS_11__tree_nodeISD_PvEElEdeB8ue170006Ev, symObjAddr: 0x1C908, symBinAddr: 0x10001DF70, symSize: 0x28 }
  - { offsetInCU: 0x48025, offset: 0x48025, size: 0x8, addend: 0x0, symName: __ZNSt3__16__treeINS_12__value_typeINS_12basic_stringIcNS_11char_traitsIcEENS_9allocatorIcEEEEPNS_6vectorI3barNS5_IS9_EEEEEENS_19__map_value_compareIS7_SD_NS_4lessIS7_EELb1EEENS5_ISD_EEE5beginB8ue170006Ev, symObjAddr: 0x1C930, symBinAddr: 0x10001DF98, symSize: 0x34 }
  - { offsetInCU: 0x4804B, offset: 0x4804B, size: 0x8, addend: 0x0, symName: __ZNKSt3__119__map_value_compareINS_12basic_stringIcNS_11char_traitsIcEENS_9allocatorIcEEEENS_12__value_typeIS6_PNS_6vectorI3barNS4_IS9_EEEEEENS_4lessIS6_EELb1EEclB8ue170006ERKSD_RKS6_, symObjAddr: 0x1C964, symBinAddr: 0x10001DFCC, symSize: 0x48 }
  - { offsetInCU: 0x4808F, offset: 0x4808F, size: 0x8, addend: 0x0, symName: __ZNSt3__121__tree_const_iteratorINS_12__value_typeINS_12basic_stringIcNS_11char_traitsIcEENS_9allocatorIcEEEEPNS_6vectorI3barNS5_IS9_EEEEEEPNS_11__tree_nodeISD_PvEElEmmB8ue170006Ev, symObjAddr: 0x1C9AC, symBinAddr: 0x10001E014, symSize: 0x38 }
  - { offsetInCU: 0x480B5, offset: 0x480B5, size: 0x8, addend: 0x0, symName: __ZNSt3__16__treeINS_12__value_typeINS_12basic_stringIcNS_11char_traitsIcEENS_9allocatorIcEEEEPNS_6vectorI3barNS5_IS9_EEEEEENS_19__map_value_compareIS7_SD_NS_4lessIS7_EELb1EEENS5_ISD_EEE12__find_equalIS7_EERPNS_16__tree_node_baseIPvEERPNS_15__tree_end_nodeISO_EERKT_, symObjAddr: 0x1C9E4, symBinAddr: 0x10001E04C, symSize: 0x184 }
  - { offsetInCU: 0x48122, offset: 0x48122, size: 0x8, addend: 0x0, symName: __ZNKSt3__121__tree_const_iteratorINS_12__value_typeINS_12basic_stringIcNS_11char_traitsIcEENS_9allocatorIcEEEEPNS_6vectorI3barNS5_IS9_EEEEEEPNS_11__tree_nodeISD_PvEElE8__get_npB8ue170006Ev, symObjAddr: 0x1CBA4, symBinAddr: 0x10001E20C, symSize: 0x18 }
  - { offsetInCU: 0x48148, offset: 0x48148, size: 0x8, addend: 0x0, symName: __ZNSt3__115__tree_iteratorINS_12__value_typeINS_12basic_stringIcNS_11char_traitsIcEENS_9allocatorIcEEEEPNS_6vectorI3barNS5_IS9_EEEEEEPNS_11__tree_nodeISD_PvEElEC1B8ue170006EPNS_15__tree_end_nodeIPNS_16__tree_node_baseISF_EEEE, symObjAddr: 0x1CBBC, symBinAddr: 0x10001E224, symSize: 0x34 }
  - { offsetInCU: 0x48181, offset: 0x48181, size: 0x8, addend: 0x0, symName: __ZNSt3__115__tree_iteratorINS_12__value_typeINS_12basic_stringIcNS_11char_traitsIcEENS_9allocatorIcEEEEPNS_6vectorI3barNS5_IS9_EEEEEEPNS_11__tree_nodeISD_PvEElEC2B8ue170006EPNS_15__tree_end_nodeIPNS_16__tree_node_baseISF_EEEE, symObjAddr: 0x1CBF0, symBinAddr: 0x10001E258, symSize: 0x20 }
  - { offsetInCU: 0x481BA, offset: 0x481BA, size: 0x8, addend: 0x0, symName: __ZNSt3__121__tree_const_iteratorINS_12__value_typeINS_12basic_stringIcNS_11char_traitsIcEENS_9allocatorIcEEEEPNS_6vectorI3barNS5_IS9_EEEEEEPNS_11__tree_nodeISD_PvEElEC2B8ue170006ENS_15__tree_iteratorISD_SH_lEE, symObjAddr: 0x1CC10, symBinAddr: 0x10001E278, symSize: 0x20 }
  - { offsetInCU: 0x481F3, offset: 0x481F3, size: 0x8, addend: 0x0, symName: __ZNSt3__117__compressed_pairImNS_19__map_value_compareINS_12basic_stringIcNS_11char_traitsIcEENS_9allocatorIcEEEENS_12__value_typeIS7_PNS_6vectorI3barNS5_ISA_EEEEEENS_4lessIS7_EELb1EEEE6secondB8ue170006Ev, symObjAddr: 0x1CC30, symBinAddr: 0x10001E298, symSize: 0x24 }
  - { offsetInCU: 0x48219, offset: 0x48219, size: 0x8, addend: 0x0, symName: __ZNSt3__122__compressed_pair_elemINS_19__map_value_compareINS_12basic_stringIcNS_11char_traitsIcEENS_9allocatorIcEEEENS_12__value_typeIS7_PNS_6vectorI3barNS5_ISA_EEEEEENS_4lessIS7_EELb1EEELi1ELb1EE5__getB8ue170006Ev, symObjAddr: 0x1CC54, symBinAddr: 0x10001E2BC, symSize: 0x14 }
  - { offsetInCU: 0x4823F, offset: 0x4823F, size: 0x8, addend: 0x0, symName: __ZNKSt3__112__value_typeINS_12basic_stringIcNS_11char_traitsIcEENS_9allocatorIcEEEEPNS_6vectorI3barNS4_IS8_EEEEE11__get_valueB8ue170006Ev, symObjAddr: 0x1CC68, symBinAddr: 0x10001E2D0, symSize: 0x14 }
  - { offsetInCU: 0x48265, offset: 0x48265, size: 0x8, addend: 0x0, symName: __ZNKSt3__16__treeINS_12__value_typeINS_12basic_stringIcNS_11char_traitsIcEENS_9allocatorIcEEEEPNS_6vectorI3barNS5_IS9_EEEEEENS_19__map_value_compareIS7_SD_NS_4lessIS7_EELb1EEENS5_ISD_EEE10__root_ptrB8ue170006Ev, symObjAddr: 0x1CC7C, symBinAddr: 0x10001E2E4, symSize: 0x24 }
  - { offsetInCU: 0x4828B, offset: 0x4828B, size: 0x8, addend: 0x0, symName: __ZNSt3__121__tree_const_iteratorINS_12__value_typeINS_12basic_stringIcNS_11char_traitsIcEENS_9allocatorIcEEEEPNS_6vectorI3barNS5_IS9_EEEEEEPNS_11__tree_nodeISD_PvEElEppB8ue170006Ev, symObjAddr: 0x1CD7C, symBinAddr: 0x10001E3E4, symSize: 0x38 }
  - { offsetInCU: 0x482B1, offset: 0x482B1, size: 0x8, addend: 0x0, symName: __ZNSt3__116allocator_traitsINS_9allocatorINS_11__tree_nodeINS_12__value_typeINS_12basic_stringIcNS_11char_traitsIcEENS1_IcEEEEPNS_6vectorI3barNS1_ISA_EEEEEEPvEEEEE8allocateB8ue170006ERSH_m, symObjAddr: 0x1CDB4, symBinAddr: 0x10001E41C, symSize: 0x2C }
  - { offsetInCU: 0x482E4, offset: 0x482E4, size: 0x8, addend: 0x0, symName: __ZNSt3__122__tree_node_destructorINS_9allocatorINS_11__tree_nodeINS_12__value_typeINS_12basic_stringIcNS_11char_traitsIcEENS1_IcEEEEPNS_6vectorI3barNS1_ISA_EEEEEEPvEEEEEC1B8ue170006ERSH_b, symObjAddr: 0x1CDE0, symBinAddr: 0x10001E448, symSize: 0x48 }
  - { offsetInCU: 0x48332, offset: 0x48332, size: 0x8, addend: 0x0, symName: __ZNSt3__110unique_ptrINS_11__tree_nodeINS_12__value_typeINS_12basic_stringIcNS_11char_traitsIcEENS_9allocatorIcEEEEPNS_6vectorI3barNS6_ISA_EEEEEEPvEENS_22__tree_node_destructorINS6_ISG_EEEEEC1B8ue170006ILb1EvEEPSG_NS_16__dependent_typeINS_27__unique_ptr_deleter_sfinaeISJ_EEXT_EE20__good_rval_ref_typeE, symObjAddr: 0x1CE28, symBinAddr: 0x10001E490, symSize: 0x3C }
  - { offsetInCU: 0x48383, offset: 0x48383, size: 0x8, addend: 0x0, symName: __ZNSt3__116allocator_traitsINS_9allocatorINS_11__tree_nodeINS_12__value_typeINS_12basic_stringIcNS_11char_traitsIcEENS1_IcEEEEPNS_6vectorI3barNS1_ISA_EEEEEEPvEEEEE9constructB8ue170006INS_4pairIKS8_SD_EEJRKSM_EvEEvRSH_PT_DpOT0_, symObjAddr: 0x1CE64, symBinAddr: 0x10001E4CC, symSize: 0x34 }
  - { offsetInCU: 0x483DA, offset: 0x483DA, size: 0x8, addend: 0x0, symName: __ZNKSt3__110unique_ptrINS_11__tree_nodeINS_12__value_typeINS_12basic_stringIcNS_11char_traitsIcEENS_9allocatorIcEEEEPNS_6vectorI3barNS6_ISA_EEEEEEPvEENS_22__tree_node_destructorINS6_ISG_EEEEEptB8ue170006Ev, symObjAddr: 0x1CE98, symBinAddr: 0x10001E500, symSize: 0x28 }
  - { offsetInCU: 0x48400, offset: 0x48400, size: 0x8, addend: 0x0, symName: __ZNSt3__110unique_ptrINS_11__tree_nodeINS_12__value_typeINS_12basic_stringIcNS_11char_traitsIcEENS_9allocatorIcEEEEPNS_6vectorI3barNS6_ISA_EEEEEEPvEENS_22__tree_node_destructorINS6_ISG_EEEEE11get_deleterB8ue170006Ev, symObjAddr: 0x1CEC0, symBinAddr: 0x10001E528, symSize: 0x24 }
  - { offsetInCU: 0x48426, offset: 0x48426, size: 0x8, addend: 0x0, symName: __ZNSt3__19allocatorINS_11__tree_nodeINS_12__value_typeINS_12basic_stringIcNS_11char_traitsIcEENS0_IcEEEEPNS_6vectorI3barNS0_IS9_EEEEEEPvEEE8allocateB8ue170006Em, symObjAddr: 0x1CEE4, symBinAddr: 0x10001E54C, symSize: 0x58 }
  - { offsetInCU: 0x4845A, offset: 0x4845A, size: 0x8, addend: 0x0, symName: __ZNSt3__116allocator_traitsINS_9allocatorINS_11__tree_nodeINS_12__value_typeINS_12basic_stringIcNS_11char_traitsIcEENS1_IcEEEEPNS_6vectorI3barNS1_ISA_EEEEEEPvEEEEE8max_sizeB8ue170006ISH_vEEmRKSH_, symObjAddr: 0x1CF3C, symBinAddr: 0x10001E5A4, symSize: 0x24 }
  - { offsetInCU: 0x48488, offset: 0x48488, size: 0x8, addend: 0x0, symName: __ZNKSt3__19allocatorINS_11__tree_nodeINS_12__value_typeINS_12basic_stringIcNS_11char_traitsIcEENS0_IcEEEEPNS_6vectorI3barNS0_IS9_EEEEEEPvEEE8max_sizeB8ue170006Ev, symObjAddr: 0x1CF60, symBinAddr: 0x10001E5C8, symSize: 0x14 }
  - { offsetInCU: 0x484AE, offset: 0x484AE, size: 0x8, addend: 0x0, symName: __ZNSt3__122__tree_node_destructorINS_9allocatorINS_11__tree_nodeINS_12__value_typeINS_12basic_stringIcNS_11char_traitsIcEENS1_IcEEEEPNS_6vectorI3barNS1_ISA_EEEEEEPvEEEEEC2B8ue170006ERSH_b, symObjAddr: 0x1CF74, symBinAddr: 0x10001E5DC, symSize: 0x38 }
  - { offsetInCU: 0x484F6, offset: 0x484F6, size: 0x8, addend: 0x0, symName: __ZNSt3__110unique_ptrINS_11__tree_nodeINS_12__value_typeINS_12basic_stringIcNS_11char_traitsIcEENS_9allocatorIcEEEEPNS_6vectorI3barNS6_ISA_EEEEEEPvEENS_22__tree_node_destructorINS6_ISG_EEEEEC2B8ue170006ILb1EvEEPSG_NS_16__dependent_typeINS_27__unique_ptr_deleter_sfinaeISJ_EEXT_EE20__good_rval_ref_typeE, symObjAddr: 0x1CFAC, symBinAddr: 0x10001E614, symSize: 0x48 }
  - { offsetInCU: 0x48547, offset: 0x48547, size: 0x8, addend: 0x0, symName: __ZNSt3__117__compressed_pairIPNS_11__tree_nodeINS_12__value_typeINS_12basic_stringIcNS_11char_traitsIcEENS_9allocatorIcEEEEPNS_6vectorI3barNS6_ISA_EEEEEEPvEENS_22__tree_node_destructorINS6_ISG_EEEEEC1B8ue170006IRSH_SK_EEOT_OT0_, symObjAddr: 0x1CFF4, symBinAddr: 0x10001E65C, symSize: 0x3C }
  - { offsetInCU: 0x4859F, offset: 0x4859F, size: 0x8, addend: 0x0, symName: __ZNSt3__117__compressed_pairIPNS_11__tree_nodeINS_12__value_typeINS_12basic_stringIcNS_11char_traitsIcEENS_9allocatorIcEEEEPNS_6vectorI3barNS6_ISA_EEEEEEPvEENS_22__tree_node_destructorINS6_ISG_EEEEEC2B8ue170006IRSH_SK_EEOT_OT0_, symObjAddr: 0x1D030, symBinAddr: 0x10001E698, symSize: 0x48 }
  - { offsetInCU: 0x485F7, offset: 0x485F7, size: 0x8, addend: 0x0, symName: __ZNSt3__122__compressed_pair_elemIPNS_11__tree_nodeINS_12__value_typeINS_12basic_stringIcNS_11char_traitsIcEENS_9allocatorIcEEEEPNS_6vectorI3barNS6_ISA_EEEEEEPvEELi0ELb0EEC2B8ue170006IRSH_vEEOT_, symObjAddr: 0x1D078, symBinAddr: 0x10001E6E0, symSize: 0x24 }
  - { offsetInCU: 0x48639, offset: 0x48639, size: 0x8, addend: 0x0, symName: __ZNSt3__122__compressed_pair_elemINS_22__tree_node_destructorINS_9allocatorINS_11__tree_nodeINS_12__value_typeINS_12basic_stringIcNS_11char_traitsIcEENS2_IcEEEEPNS_6vectorI3barNS2_ISB_EEEEEEPvEEEEEELi1ELb0EEC2B8ue170006ISJ_vEEOT_, symObjAddr: 0x1D09C, symBinAddr: 0x10001E704, symSize: 0x24 }
  - { offsetInCU: 0x4867B, offset: 0x4867B, size: 0x8, addend: 0x0, symName: __ZNSt3__19allocatorINS_11__tree_nodeINS_12__value_typeINS_12basic_stringIcNS_11char_traitsIcEENS0_IcEEEEPNS_6vectorI3barNS0_IS9_EEEEEEPvEEE9constructB8ue170006INS_4pairIKS7_SC_EEJRKSK_EEEvPT_DpOT0_, symObjAddr: 0x1D0C0, symBinAddr: 0x10001E728, symSize: 0x30 }
  - { offsetInCU: 0x486D1, offset: 0x486D1, size: 0x8, addend: 0x0, symName: __ZNSt3__14pairIKNS_12basic_stringIcNS_11char_traitsIcEENS_9allocatorIcEEEEPNS_6vectorI3barNS4_IS9_EEEEEC1B8ue170006ERKSD_, symObjAddr: 0x1D0F0, symBinAddr: 0x10001E758, symSize: 0x34 }
  - { offsetInCU: 0x48705, offset: 0x48705, size: 0x8, addend: 0x0, symName: __ZNSt3__14pairIKNS_12basic_stringIcNS_11char_traitsIcEENS_9allocatorIcEEEEPNS_6vectorI3barNS4_IS9_EEEEEC2B8ue170006ERKSD_, symObjAddr: 0x1D124, symBinAddr: 0x10001E78C, symSize: 0x40 }
  - { offsetInCU: 0x48739, offset: 0x48739, size: 0x8, addend: 0x0, symName: __ZNKSt3__117__compressed_pairIPNS_11__tree_nodeINS_12__value_typeINS_12basic_stringIcNS_11char_traitsIcEENS_9allocatorIcEEEEPNS_6vectorI3barNS6_ISA_EEEEEEPvEENS_22__tree_node_destructorINS6_ISG_EEEEE5firstB8ue170006Ev, symObjAddr: 0x1D164, symBinAddr: 0x10001E7CC, symSize: 0x24 }
  - { offsetInCU: 0x4875F, offset: 0x4875F, size: 0x8, addend: 0x0, symName: __ZNKSt3__122__compressed_pair_elemIPNS_11__tree_nodeINS_12__value_typeINS_12basic_stringIcNS_11char_traitsIcEENS_9allocatorIcEEEEPNS_6vectorI3barNS6_ISA_EEEEEEPvEELi0ELb0EE5__getB8ue170006Ev, symObjAddr: 0x1D188, symBinAddr: 0x10001E7F0, symSize: 0x14 }
  - { offsetInCU: 0x48785, offset: 0x48785, size: 0x8, addend: 0x0, symName: __ZNSt3__117__compressed_pairIPNS_11__tree_nodeINS_12__value_typeINS_12basic_stringIcNS_11char_traitsIcEENS_9allocatorIcEEEEPNS_6vectorI3barNS6_ISA_EEEEEEPvEENS_22__tree_node_destructorINS6_ISG_EEEEE6secondB8ue170006Ev, symObjAddr: 0x1D19C, symBinAddr: 0x10001E804, symSize: 0x28 }
  - { offsetInCU: 0x487AB, offset: 0x487AB, size: 0x8, addend: 0x0, symName: __ZNSt3__122__compressed_pair_elemINS_22__tree_node_destructorINS_9allocatorINS_11__tree_nodeINS_12__value_typeINS_12basic_stringIcNS_11char_traitsIcEENS2_IcEEEEPNS_6vectorI3barNS2_ISB_EEEEEEPvEEEEEELi1ELb0EE5__getB8ue170006Ev, symObjAddr: 0x1D1C4, symBinAddr: 0x10001E82C, symSize: 0x14 }
  - { offsetInCU: 0x487D1, offset: 0x487D1, size: 0x8, addend: 0x0, symName: __ZNSt3__16__treeINS_12__value_typeINS_12basic_stringIcNS_11char_traitsIcEENS_9allocatorIcEEEEPNS_6vectorI3barNS5_IS9_EEEEEENS_19__map_value_compareIS7_SD_NS_4lessIS7_EELb1EEENS5_ISD_EEE4sizeB8ue170006Ev, symObjAddr: 0x1D1D8, symBinAddr: 0x10001E840, symSize: 0x28 }
  - { offsetInCU: 0x487F7, offset: 0x487F7, size: 0x8, addend: 0x0, symName: __ZNSt3__117__compressed_pairImNS_19__map_value_compareINS_12basic_stringIcNS_11char_traitsIcEENS_9allocatorIcEEEENS_12__value_typeIS7_PNS_6vectorI3barNS5_ISA_EEEEEENS_4lessIS7_EELb1EEEE5firstB8ue170006Ev, symObjAddr: 0x1D200, symBinAddr: 0x10001E868, symSize: 0x24 }
  - { offsetInCU: 0x4881D, offset: 0x4881D, size: 0x8, addend: 0x0, symName: __ZNSt3__117__compressed_pairIPNS_11__tree_nodeINS_12__value_typeINS_12basic_stringIcNS_11char_traitsIcEENS_9allocatorIcEEEEPNS_6vectorI3barNS6_ISA_EEEEEEPvEENS_22__tree_node_destructorINS6_ISG_EEEEE5firstB8ue170006Ev, symObjAddr: 0x1D224, symBinAddr: 0x10001E88C, symSize: 0x24 }
  - { offsetInCU: 0x48843, offset: 0x48843, size: 0x8, addend: 0x0, symName: __ZNSt3__122__compressed_pair_elemIPNS_11__tree_nodeINS_12__value_typeINS_12basic_stringIcNS_11char_traitsIcEENS_9allocatorIcEEEEPNS_6vectorI3barNS6_ISA_EEEEEEPvEELi0ELb0EE5__getB8ue170006Ev, symObjAddr: 0x1D248, symBinAddr: 0x10001E8B0, symSize: 0x14 }
  - { offsetInCU: 0x48869, offset: 0x48869, size: 0x8, addend: 0x0, symName: __ZNSt3__110unique_ptrINS_11__tree_nodeINS_12__value_typeINS_12basic_stringIcNS_11char_traitsIcEENS_9allocatorIcEEEEPNS_6vectorI3barNS6_ISA_EEEEEEPvEENS_22__tree_node_destructorINS6_ISG_EEEEED2B8ue170006Ev, symObjAddr: 0x1D25C, symBinAddr: 0x10001E8C4, symSize: 0x30 }
  - { offsetInCU: 0x48893, offset: 0x48893, size: 0x8, addend: 0x0, symName: __ZNSt3__110unique_ptrINS_11__tree_nodeINS_12__value_typeINS_12basic_stringIcNS_11char_traitsIcEENS_9allocatorIcEEEEPNS_6vectorI3barNS6_ISA_EEEEEEPvEENS_22__tree_node_destructorINS6_ISG_EEEEE5resetB8ue170006EPSG_, symObjAddr: 0x1D28C, symBinAddr: 0x10001E8F4, symSize: 0x78 }
  - { offsetInCU: 0x488D7, offset: 0x488D7, size: 0x8, addend: 0x0, symName: __ZNSt3__122__tree_node_destructorINS_9allocatorINS_11__tree_nodeINS_12__value_typeINS_12basic_stringIcNS_11char_traitsIcEENS1_IcEEEEPNS_6vectorI3barNS1_ISA_EEEEEEPvEEEEEclB8ue170006EPSG_, symObjAddr: 0x1D304, symBinAddr: 0x10001E96C, symSize: 0x94 }
  - { offsetInCU: 0x4890C, offset: 0x4890C, size: 0x8, addend: 0x0, symName: __ZNSt3__115__tree_iteratorINS_12__value_typeINS_12basic_stringIcNS_11char_traitsIcEENS_9allocatorIcEEEEPNS_6vectorI3barNS5_IS9_EEEEEEPNS_11__tree_nodeISD_PvEElEC2B8ue170006ESH_, symObjAddr: 0x1D398, symBinAddr: 0x10001EA00, symSize: 0x20 }
  - { offsetInCU: 0x48945, offset: 0x48945, size: 0x8, addend: 0x0, symName: __ZNSt3__14pairINS_15__tree_iteratorINS_12__value_typeINS_12basic_stringIcNS_11char_traitsIcEENS_9allocatorIcEEEEPNS_6vectorI3barNS6_ISA_EEEEEEPNS_11__tree_nodeISE_PvEElEEbEC2B8ue170006ISJ_RbLSG_0EEEOT_OT0_, symObjAddr: 0x1D3B8, symBinAddr: 0x10001EA20, symSize: 0x38 }
  - { offsetInCU: 0x489A3, offset: 0x489A3, size: 0x8, addend: 0x0, symName: __ZNSt3__114__map_iteratorINS_15__tree_iteratorINS_12__value_typeINS_12basic_stringIcNS_11char_traitsIcEENS_9allocatorIcEEEEPNS_6vectorI3barNS6_ISA_EEEEEEPNS_11__tree_nodeISE_PvEElEEEC2B8ue170006ESJ_, symObjAddr: 0x1D3F0, symBinAddr: 0x10001EA58, symSize: 0x20 }
  - { offsetInCU: 0x489DC, offset: 0x489DC, size: 0x8, addend: 0x0, symName: __ZNSt3__120__map_const_iteratorINS_21__tree_const_iteratorINS_12__value_typeINS_12basic_stringIcNS_11char_traitsIcEENS_9allocatorIcEEEEPNS_6vectorI3barNS6_ISA_EEEEEEPNS_11__tree_nodeISE_PvEElEEEC2B8ue170006ESJ_, symObjAddr: 0x1D410, symBinAddr: 0x10001EA78, symSize: 0x20 }
  - { offsetInCU: 0x48A15, offset: 0x48A15, size: 0x8, addend: 0x0, symName: __ZNKSt3__121__tree_const_iteratorINS_12__value_typeINS_12basic_stringIcNS_11char_traitsIcEENS_9allocatorIcEEEEPNS_6vectorI3barNS5_IS9_EEEEEEPNS_11__tree_nodeISD_PvEElEptB8ue170006Ev, symObjAddr: 0x1D430, symBinAddr: 0x10001EA98, symSize: 0x2C }
  - { offsetInCU: 0x48A3B, offset: 0x48A3B, size: 0x8, addend: 0x0, symName: __ZNSt3__114pointer_traitsIPKNS_12__value_typeINS_12basic_stringIcNS_11char_traitsIcEENS_9allocatorIcEEEEPNS_6vectorI3barNS5_IS9_EEEEEEE10pointer_toB8ue170006ERSE_, symObjAddr: 0x1D45C, symBinAddr: 0x10001EAC4, symSize: 0x14 }
  - { offsetInCU: 0x48A5E, offset: 0x48A5E, size: 0x8, addend: 0x0, symName: __ZNKSt3__16__treeINS_12__value_typeINS_12basic_stringIcNS_11char_traitsIcEENS_9allocatorIcEEEEPNS_6vectorI3barNS5_IS9_EEEEEENS_19__map_value_compareIS7_SD_NS_4lessIS7_EELb1EEENS5_ISD_EEE5beginB8ue170006Ev, symObjAddr: 0x1D470, symBinAddr: 0x10001EAD8, symSize: 0x34 }
  - { offsetInCU: 0x48A84, offset: 0x48A84, size: 0x8, addend: 0x0, symName: __ZNKSt3__16__treeINS_12__value_typeINS_12basic_stringIcNS_11char_traitsIcEENS_9allocatorIcEEEEPNS_6vectorI3barNS5_IS9_EEEEEENS_19__map_value_compareIS7_SD_NS_4lessIS7_EELb1EEENS5_ISD_EEE12__begin_nodeB8ue170006Ev, symObjAddr: 0x1D4A4, symBinAddr: 0x10001EB0C, symSize: 0x14 }
  - { offsetInCU: 0x48AAA, offset: 0x48AAA, size: 0x8, addend: 0x0, symName: __ZNSt3__121__tree_const_iteratorINS_12__value_typeINS_12basic_stringIcNS_11char_traitsIcEENS_9allocatorIcEEEEPNS_6vectorI3barNS5_IS9_EEEEEEPNS_11__tree_nodeISD_PvEElEC1B8ue170006EPNS_15__tree_end_nodeIPNS_16__tree_node_baseISF_EEEE, symObjAddr: 0x1D4B8, symBinAddr: 0x10001EB20, symSize: 0x34 }
  - { offsetInCU: 0x48AE3, offset: 0x48AE3, size: 0x8, addend: 0x0, symName: __ZNSt3__121__tree_const_iteratorINS_12__value_typeINS_12basic_stringIcNS_11char_traitsIcEENS_9allocatorIcEEEEPNS_6vectorI3barNS5_IS9_EEEEEEPNS_11__tree_nodeISD_PvEElEC2B8ue170006EPNS_15__tree_end_nodeIPNS_16__tree_node_baseISF_EEEE, symObjAddr: 0x1D4EC, symBinAddr: 0x10001EB54, symSize: 0x20 }
  - { offsetInCU: 0x48B1C, offset: 0x48B1C, size: 0x8, addend: 0x0, symName: __ZNKSt3__16__treeINS_12__value_typeINS_12basic_stringIcNS_11char_traitsIcEENS_9allocatorIcEEEEPNS_6vectorI3barNS5_IS9_EEEEEENS_19__map_value_compareIS7_SD_NS_4lessIS7_EELb1EEENS5_ISD_EEE3endB8ue170006Ev, symObjAddr: 0x1D50C, symBinAddr: 0x10001EB74, symSize: 0x34 }
  - { offsetInCU: 0x48B42, offset: 0x48B42, size: 0x8, addend: 0x0, symName: __ZNSt3__16vectorIdNS_9allocatorIdEEE22__construct_one_at_endB8ue170006IJRKdEEEvDpOT_, symObjAddr: 0x1D540, symBinAddr: 0x10001EBA8, symSize: 0x90 }
  - { offsetInCU: 0x48B91, offset: 0x48B91, size: 0x8, addend: 0x0, symName: __ZNSt3__16vectorIdNS_9allocatorIdEEE21__push_back_slow_pathIRKdEEvOT_, symObjAddr: 0x1D5D0, symBinAddr: 0x10001EC38, symSize: 0xD8 }
  - { offsetInCU: 0x48BEF, offset: 0x48BEF, size: 0x8, addend: 0x0, symName: __ZNSt3__116allocator_traitsINS_9allocatorIdEEE9constructB8ue170006IdJRKdEvEEvRS2_PT_DpOT0_, symObjAddr: 0x1D6A8, symBinAddr: 0x10001ED10, symSize: 0x34 }
  - { offsetInCU: 0x48C46, offset: 0x48C46, size: 0x8, addend: 0x0, symName: __ZNSt3__19allocatorIdE9constructB8ue170006IdJRKdEEEvPT_DpOT0_, symObjAddr: 0x1D6DC, symBinAddr: 0x10001ED44, symSize: 0x28 }
  - { offsetInCU: 0x48C9C, offset: 0x48C9C, size: 0x8, addend: 0x0, symName: __ZNSt3__114__split_bufferIdRNS_9allocatorIdEEEC1EmmS3_, symObjAddr: 0x1D704, symBinAddr: 0x10001ED6C, symSize: 0x44 }
  - { offsetInCU: 0x48CF2, offset: 0x48CF2, size: 0x8, addend: 0x0, symName: __ZNSt3__114__split_bufferIdRNS_9allocatorIdEEED1Ev, symObjAddr: 0x1D858, symBinAddr: 0x10001EEC0, symSize: 0x2C }
  - { offsetInCU: 0x48D1E, offset: 0x48D1E, size: 0x8, addend: 0x0, symName: __ZNSt3__114__split_bufferIdRNS_9allocatorIdEEEC2EmmS3_, symObjAddr: 0x1D884, symBinAddr: 0x10001EEEC, symSize: 0xD4 }
  - { offsetInCU: 0x48D91, offset: 0x48D91, size: 0x8, addend: 0x0, symName: __ZNSt3__117__compressed_pairIPdRNS_9allocatorIdEEEC1B8ue170006IDnS4_EEOT_OT0_, symObjAddr: 0x1D958, symBinAddr: 0x10001EFC0, symSize: 0x3C }
  - { offsetInCU: 0x48DE9, offset: 0x48DE9, size: 0x8, addend: 0x0, symName: __ZNSt3__114__split_bufferIdRNS_9allocatorIdEEE7__allocB8ue170006Ev, symObjAddr: 0x1D994, symBinAddr: 0x10001EFFC, symSize: 0x28 }
  - { offsetInCU: 0x48E0F, offset: 0x48E0F, size: 0x8, addend: 0x0, symName: __ZNSt3__114__split_bufferIdRNS_9allocatorIdEEE9__end_capB8ue170006Ev, symObjAddr: 0x1D9BC, symBinAddr: 0x10001F024, symSize: 0x28 }
  - { offsetInCU: 0x48E35, offset: 0x48E35, size: 0x8, addend: 0x0, symName: __ZNSt3__117__compressed_pairIPdRNS_9allocatorIdEEEC2B8ue170006IDnS4_EEOT_OT0_, symObjAddr: 0x1D9E4, symBinAddr: 0x10001F04C, symSize: 0x48 }
  - { offsetInCU: 0x48E8D, offset: 0x48E8D, size: 0x8, addend: 0x0, symName: __ZNSt3__122__compressed_pair_elemIRNS_9allocatorIdEELi1ELb0EEC2B8ue170006IS3_vEEOT_, symObjAddr: 0x1DA2C, symBinAddr: 0x10001F094, symSize: 0x20 }
  - { offsetInCU: 0x48ECF, offset: 0x48ECF, size: 0x8, addend: 0x0, symName: __ZNSt3__117__compressed_pairIPdRNS_9allocatorIdEEE6secondB8ue170006Ev, symObjAddr: 0x1DA4C, symBinAddr: 0x10001F0B4, symSize: 0x28 }
  - { offsetInCU: 0x48EF5, offset: 0x48EF5, size: 0x8, addend: 0x0, symName: __ZNSt3__122__compressed_pair_elemIRNS_9allocatorIdEELi1ELb0EE5__getB8ue170006Ev, symObjAddr: 0x1DA74, symBinAddr: 0x10001F0DC, symSize: 0x18 }
  - { offsetInCU: 0x48F1B, offset: 0x48F1B, size: 0x8, addend: 0x0, symName: __ZNSt3__117__compressed_pairIPdRNS_9allocatorIdEEE5firstB8ue170006Ev, symObjAddr: 0x1DA8C, symBinAddr: 0x10001F0F4, symSize: 0x24 }
  - { offsetInCU: 0x48F41, offset: 0x48F41, size: 0x8, addend: 0x0, symName: __ZNSt3__116reverse_iteratorIPdEC1B8ue170006ES1_, symObjAddr: 0x1DB28, symBinAddr: 0x10001F190, symSize: 0x34 }
  - { offsetInCU: 0x48F79, offset: 0x48F79, size: 0x8, addend: 0x0, symName: __ZNKSt3__116reverse_iteratorIPdE4baseB8ue170006Ev, symObjAddr: 0x1DB5C, symBinAddr: 0x10001F1C4, symSize: 0x18 }
  - { offsetInCU: 0x48FBC, offset: 0x48FBC, size: 0x8, addend: 0x0, symName: __ZNKSt3__111__move_loopINS_17_ClassicAlgPolicyEEclB8ue170006INS_16reverse_iteratorIPdEES6_S6_EENS_4pairIT_T1_EES8_T0_S9_, symObjAddr: 0x1DEA0, symBinAddr: 0x10001F508, symSize: 0xA0 }
  - { offsetInCU: 0x4902D, offset: 0x4902D, size: 0x8, addend: 0x0, symName: __ZNSt3__18_IterOpsINS_17_ClassicAlgPolicyEE11__iter_moveB8ue170006IRNS_16reverse_iteratorIPdEEEENS_9enable_ifIXsr12is_referenceIDTdeclsr3stdE7declvalIRT_EEEEE5valueEDTclsr3stdE4movedeclsr3stdE7declvalISA_EEEEE4typeEOS9_, symObjAddr: 0x1E0D4, symBinAddr: 0x10001F73C, symSize: 0x28 }
  - { offsetInCU: 0x49059, offset: 0x49059, size: 0x8, addend: 0x0, symName: __ZNKSt3__116reverse_iteratorIPdEdeB8ue170006Ev, symObjAddr: 0x1E0FC, symBinAddr: 0x10001F764, symSize: 0x28 }
  - { offsetInCU: 0x4908D, offset: 0x4908D, size: 0x8, addend: 0x0, symName: __ZNSt3__116reverse_iteratorIPdEppB8ue170006Ev, symObjAddr: 0x1E124, symBinAddr: 0x10001F78C, symSize: 0x20 }
  - { offsetInCU: 0x490B3, offset: 0x490B3, size: 0x8, addend: 0x0, symName: __ZNSt3__18_IterOpsINS_17_ClassicAlgPolicyEE25__validate_iter_referenceB8ue170006IRNS_16reverse_iteratorIPdEEEEvv, symObjAddr: 0x1E144, symBinAddr: 0x10001F7AC, symSize: 0x4 }
  - { offsetInCU: 0x490D1, offset: 0x490D1, size: 0x8, addend: 0x0, symName: __ZNSt3__118__unwrap_iter_implINS_16reverse_iteratorIPdEELb0EE8__unwrapB8ue170006ES3_, symObjAddr: 0x1E148, symBinAddr: 0x10001F7B0, symSize: 0x24 }
  - { offsetInCU: 0x490FA, offset: 0x490FA, size: 0x8, addend: 0x0, symName: __ZNSt3__14pairINS_16reverse_iteratorIPdEES3_EC1B8ue170006IS3_S3_LPv0EEEOT_OT0_, symObjAddr: 0x1E16C, symBinAddr: 0x10001F7D4, symSize: 0x3C }
  - { offsetInCU: 0x49158, offset: 0x49158, size: 0x8, addend: 0x0, symName: __ZNSt3__14pairINS_16reverse_iteratorIPdEES3_EC2B8ue170006IS3_S3_LPv0EEEOT_OT0_, symObjAddr: 0x1E1A8, symBinAddr: 0x10001F810, symSize: 0x34 }
  - { offsetInCU: 0x491B6, offset: 0x491B6, size: 0x8, addend: 0x0, symName: __ZNSt3__118__unwrap_iter_implINS_16reverse_iteratorIPdEELb0EE8__rewrapB8ue170006ES3_S3_, symObjAddr: 0x1E1DC, symBinAddr: 0x10001F844, symSize: 0x2C }
  - { offsetInCU: 0x491E3, offset: 0x491E3, size: 0x8, addend: 0x0, symName: __ZNSt3__116reverse_iteratorIPdEC2B8ue170006ES1_, symObjAddr: 0x1E208, symBinAddr: 0x10001F870, symSize: 0x28 }
  - { offsetInCU: 0x4921B, offset: 0x4921B, size: 0x8, addend: 0x0, symName: __ZNSt3__114__split_bufferIdRNS_9allocatorIdEEED2Ev, symObjAddr: 0x1E230, symBinAddr: 0x10001F898, symSize: 0x8C }
  - { offsetInCU: 0x49247, offset: 0x49247, size: 0x8, addend: 0x0, symName: __ZNSt3__114__split_bufferIdRNS_9allocatorIdEEE5clearB8ue170006Ev, symObjAddr: 0x1E2BC, symBinAddr: 0x10001F924, symSize: 0x28 }
  - { offsetInCU: 0x4926D, offset: 0x4926D, size: 0x8, addend: 0x0, symName: __ZNKSt3__114__split_bufferIdRNS_9allocatorIdEEE8capacityB8ue170006Ev, symObjAddr: 0x1E2E4, symBinAddr: 0x10001F94C, symSize: 0x40 }
  - { offsetInCU: 0x49293, offset: 0x49293, size: 0x8, addend: 0x0, symName: __ZNSt3__114__split_bufferIdRNS_9allocatorIdEEE17__destruct_at_endB8ue170006EPd, symObjAddr: 0x1E324, symBinAddr: 0x10001F98C, symSize: 0x2C }
  - { offsetInCU: 0x492C7, offset: 0x492C7, size: 0x8, addend: 0x0, symName: __ZNSt3__114__split_bufferIdRNS_9allocatorIdEEE17__destruct_at_endB8ue170006EPdNS_17integral_constantIbLb0EEE, symObjAddr: 0x1E350, symBinAddr: 0x10001F9B8, symSize: 0x80 }
  - { offsetInCU: 0x49307, offset: 0x49307, size: 0x8, addend: 0x0, symName: __ZNKSt3__114__split_bufferIdRNS_9allocatorIdEEE9__end_capB8ue170006Ev, symObjAddr: 0x1E3D0, symBinAddr: 0x10001FA38, symSize: 0x28 }
  - { offsetInCU: 0x4932D, offset: 0x4932D, size: 0x8, addend: 0x0, symName: __ZNKSt3__117__compressed_pairIPdRNS_9allocatorIdEEE5firstB8ue170006Ev, symObjAddr: 0x1E3F8, symBinAddr: 0x10001FA60, symSize: 0x24 }
  - { offsetInCU: 0x49359, offset: 0x49359, size: 0x8, addend: 0x0, symName: __ZNKSt3__16__lessIvvEclB8ue170006IiiEEbRKT_RKT0_, symObjAddr: 0x1E470, symBinAddr: 0x10001FAD8, symSize: 0x34 }
  - { offsetInCU: 0x493AD, offset: 0x493AD, size: 0x8, addend: 0x0, symName: __ZNSt3__16vectorIdNS_9allocatorIdEEE22__construct_one_at_endB8ue170006IJdEEEvDpOT_, symObjAddr: 0x1E4A4, symBinAddr: 0x10001FB0C, symSize: 0x90 }
  - { offsetInCU: 0x493FC, offset: 0x493FC, size: 0x8, addend: 0x0, symName: __ZNSt3__16vectorIdNS_9allocatorIdEEE21__push_back_slow_pathIdEEvOT_, symObjAddr: 0x1E534, symBinAddr: 0x10001FB9C, symSize: 0xD8 }
  - { offsetInCU: 0x4945A, offset: 0x4945A, size: 0x8, addend: 0x0, symName: __ZNSt3__116allocator_traitsINS_9allocatorIdEEE9constructB8ue170006IdJdEvEEvRS2_PT_DpOT0_, symObjAddr: 0x1E60C, symBinAddr: 0x10001FC74, symSize: 0x34 }
  - { offsetInCU: 0x494B1, offset: 0x494B1, size: 0x8, addend: 0x0, symName: __ZNSt3__19allocatorIdE9constructB8ue170006IdJdEEEvPT_DpOT0_, symObjAddr: 0x1E640, symBinAddr: 0x10001FCA8, symSize: 0x28 }
  - { offsetInCU: 0x49507, offset: 0x49507, size: 0x8, addend: 0x0, symName: __ZN5eventC2ERKS_, symObjAddr: 0x1E668, symBinAddr: 0x10001FCD0, symSize: 0x4C }
  - { offsetInCU: 0x4953C, offset: 0x4953C, size: 0x8, addend: 0x0, symName: __ZN11signalEventC2ERKS_, symObjAddr: 0x1E6B4, symBinAddr: 0x10001FD1C, symSize: 0x110 }
  - { offsetInCU: 0x49571, offset: 0x49571, size: 0x8, addend: 0x0, symName: __ZN11signalEventD2Ev, symObjAddr: 0x1E7C4, symBinAddr: 0x10001FE2C, symSize: 0x60 }
  - { offsetInCU: 0x4959D, offset: 0x4959D, size: 0x8, addend: 0x0, symName: __ZN10orderEventC2ERKS_, symObjAddr: 0x1E824, symBinAddr: 0x10001FE8C, symSize: 0x104 }
  - { offsetInCU: 0x495D2, offset: 0x495D2, size: 0x8, addend: 0x0, symName: __ZN10orderEventD2Ev, symObjAddr: 0x1E928, symBinAddr: 0x10001FF90, symSize: 0x60 }
  - { offsetInCU: 0x495FE, offset: 0x495FE, size: 0x8, addend: 0x0, symName: __ZN9fillEventC2ERKS_, symObjAddr: 0x1E988, symBinAddr: 0x10001FFF0, symSize: 0x11C }
  - { offsetInCU: 0x49633, offset: 0x49633, size: 0x8, addend: 0x0, symName: __ZN9fillEventD2Ev, symObjAddr: 0x1EAA4, symBinAddr: 0x10002010C, symSize: 0x60 }
  - { offsetInCU: 0x4965F, offset: 0x4965F, size: 0x8, addend: 0x0, symName: __ZN19historicDataHandlerD2Ev, symObjAddr: 0x1EB04, symBinAddr: 0x10002016C, symSize: 0x6C }
  - { offsetInCU: 0x49689, offset: 0x49689, size: 0x8, addend: 0x0, symName: __ZNSt3__119basic_istringstreamIcNS_11char_traitsIcEENS_9allocatorIcEEED2Ev, symObjAddr: 0x1EB70, symBinAddr: 0x1000201D8, symSize: 0x64 }
  - { offsetInCU: 0x496C3, offset: 0x496C3, size: 0x8, addend: 0x0, symName: __ZTv0_n24_NSt3__119basic_istringstreamIcNS_11char_traitsIcEENS_9allocatorIcEEED1Ev, symObjAddr: 0x1EBD4, symBinAddr: 0x10002023C, symSize: 0x28 }
  - { offsetInCU: 0x496DA, offset: 0x496DA, size: 0x8, addend: 0x0, symName: __ZN5WhileD2Ev, symObjAddr: 0x1EBFC, symBinAddr: 0x100020264, symSize: 0x3C }
  - { offsetInCU: 0x49706, offset: 0x49706, size: 0x8, addend: 0x0, symName: __ZNSt3__112basic_stringIcNS_11char_traitsIcEENS_9allocatorIcEEEC2B8ue170006Ev, symObjAddr: 0x1EC38, symBinAddr: 0x1000202A0, symSize: 0x44 }
  - { offsetInCU: 0x49730, offset: 0x49730, size: 0x8, addend: 0x0, symName: __ZNSt3__117__compressed_pairINS_12basic_stringIcNS_11char_traitsIcEENS_9allocatorIcEEE5__repES5_EC1B8ue170006INS_18__default_init_tagESA_EEOT_OT0_, symObjAddr: 0x1EC7C, symBinAddr: 0x1000202E4, symSize: 0x3C }
  - { offsetInCU: 0x49788, offset: 0x49788, size: 0x8, addend: 0x0, symName: __ZNSt3__117__compressed_pairINS_12basic_stringIcNS_11char_traitsIcEENS_9allocatorIcEEE5__repES5_EC2B8ue170006INS_18__default_init_tagESA_EEOT_OT0_, symObjAddr: 0x1ECB8, symBinAddr: 0x100020320, symSize: 0x3C }
  - { offsetInCU: 0x497E0, offset: 0x497E0, size: 0x8, addend: 0x0, symName: __ZNSt3__122__compressed_pair_elemINS_9allocatorIcEELi1ELb1EEC2B8ue170006ENS_18__default_init_tagE, symObjAddr: 0x1ECF4, symBinAddr: 0x10002035C, symSize: 0x2C }
  - { offsetInCU: 0x49814, offset: 0x49814, size: 0x8, addend: 0x0, symName: __ZNSt3__19allocatorIcEC2B8ue170006Ev, symObjAddr: 0x1ED20, symBinAddr: 0x100020388, symSize: 0x2C }
  - { offsetInCU: 0x4983E, offset: 0x4983E, size: 0x8, addend: 0x0, symName: __ZNSt3__116__non_trivial_ifILb1ENS_9allocatorIcEEEC2B8ue170006Ev, symObjAddr: 0x1ED4C, symBinAddr: 0x1000203B4, symSize: 0x14 }
  - { offsetInCU: 0x49868, offset: 0x49868, size: 0x8, addend: 0x0, symName: __ZNSt3__16vectorINS_12basic_stringIcNS_11char_traitsIcEENS_9allocatorIcEEEENS4_IS6_EEEC2B8ue170006Ev, symObjAddr: 0x1ED60, symBinAddr: 0x1000203C8, symSize: 0x4C }
  - { offsetInCU: 0x49892, offset: 0x49892, size: 0x8, addend: 0x0, symName: __ZNSt3__117__compressed_pairIPNS_12basic_stringIcNS_11char_traitsIcEENS_9allocatorIcEEEENS4_IS6_EEEC1B8ue170006IDnNS_18__default_init_tagEEEOT_OT0_, symObjAddr: 0x1EDAC, symBinAddr: 0x100020414, symSize: 0x3C }
  - { offsetInCU: 0x498EA, offset: 0x498EA, size: 0x8, addend: 0x0, symName: __ZNSt3__117__compressed_pairIPNS_12basic_stringIcNS_11char_traitsIcEENS_9allocatorIcEEEENS4_IS6_EEEC2B8ue170006IDnNS_18__default_init_tagEEEOT_OT0_, symObjAddr: 0x1EDE8, symBinAddr: 0x100020450, symSize: 0x40 }
  - { offsetInCU: 0x49942, offset: 0x49942, size: 0x8, addend: 0x0, symName: __ZNSt3__122__compressed_pair_elemIPNS_12basic_stringIcNS_11char_traitsIcEENS_9allocatorIcEEEELi0ELb0EEC2B8ue170006IDnvEEOT_, symObjAddr: 0x1EE28, symBinAddr: 0x100020490, symSize: 0x1C }
  - { offsetInCU: 0x49984, offset: 0x49984, size: 0x8, addend: 0x0, symName: __ZNSt3__122__compressed_pair_elemINS_9allocatorINS_12basic_stringIcNS_11char_traitsIcEENS1_IcEEEEEELi1ELb1EEC2B8ue170006ENS_18__default_init_tagE, symObjAddr: 0x1EE44, symBinAddr: 0x1000204AC, symSize: 0x2C }
  - { offsetInCU: 0x499B8, offset: 0x499B8, size: 0x8, addend: 0x0, symName: __ZNSt3__19allocatorINS_12basic_stringIcNS_11char_traitsIcEENS0_IcEEEEEC2B8ue170006Ev, symObjAddr: 0x1EE70, symBinAddr: 0x1000204D8, symSize: 0x2C }
  - { offsetInCU: 0x499E2, offset: 0x499E2, size: 0x8, addend: 0x0, symName: __ZNSt3__116__non_trivial_ifILb1ENS_9allocatorINS_12basic_stringIcNS_11char_traitsIcEENS1_IcEEEEEEEC2B8ue170006Ev, symObjAddr: 0x1EE9C, symBinAddr: 0x100020504, symSize: 0x14 }
  - { offsetInCU: 0x49A0C, offset: 0x49A0C, size: 0x8, addend: 0x0, symName: __ZNSt3__16vectorINS_12basic_stringIcNS_11char_traitsIcEENS_9allocatorIcEEEENS4_IS6_EEED2B8ue170006Ev, symObjAddr: 0x1EEB0, symBinAddr: 0x100020518, symSize: 0x44 }
  - { offsetInCU: 0x49A36, offset: 0x49A36, size: 0x8, addend: 0x0, symName: __ZNSt3__16vectorINS_12basic_stringIcNS_11char_traitsIcEENS_9allocatorIcEEEENS4_IS6_EEE16__destroy_vectorC1B8ue170006ERS8_, symObjAddr: 0x1EEF4, symBinAddr: 0x10002055C, symSize: 0x34 }
  - { offsetInCU: 0x49A6F, offset: 0x49A6F, size: 0x8, addend: 0x0, symName: __ZNSt3__16vectorINS_12basic_stringIcNS_11char_traitsIcEENS_9allocatorIcEEEENS4_IS6_EEE16__destroy_vectorclB8ue170006Ev, symObjAddr: 0x1EF28, symBinAddr: 0x100020590, symSize: 0x90 }
  - { offsetInCU: 0x49A95, offset: 0x49A95, size: 0x8, addend: 0x0, symName: __ZNSt3__16vectorINS_12basic_stringIcNS_11char_traitsIcEENS_9allocatorIcEEEENS4_IS6_EEE16__destroy_vectorC2B8ue170006ERS8_, symObjAddr: 0x1EFB8, symBinAddr: 0x100020620, symSize: 0x20 }
  - { offsetInCU: 0x49AD4, offset: 0x49AD4, size: 0x8, addend: 0x0, symName: __ZNSt3__18__iom_t9IcEC1B8ue170006EP2tmPKc, symObjAddr: 0x1EFD8, symBinAddr: 0x100020640, symSize: 0x3C }
  - { offsetInCU: 0x49B1C, offset: 0x49B1C, size: 0x8, addend: 0x0, symName: __ZNSt3__18__iom_t9IcEC2B8ue170006EP2tmPKc, symObjAddr: 0x1F014, symBinAddr: 0x10002067C, symSize: 0x2C }
  - { offsetInCU: 0x49B64, offset: 0x49B64, size: 0x8, addend: 0x0, symName: __ZNSt3__119istreambuf_iteratorIcNS_11char_traitsIcEEEC1B8ue170006ERNS_13basic_istreamIcS2_EE, symObjAddr: 0x1F06C, symBinAddr: 0x1000206D4, symSize: 0x34 }
  - { offsetInCU: 0x49B9C, offset: 0x49B9C, size: 0x8, addend: 0x0, symName: __ZNSt3__119istreambuf_iteratorIcNS_11char_traitsIcEEEC1B8ue170006Ev, symObjAddr: 0x1F0A0, symBinAddr: 0x100020708, symSize: 0x2C }
  - { offsetInCU: 0x49BC6, offset: 0x49BC6, size: 0x8, addend: 0x0, symName: __ZNSt3__111char_traitsIcE6lengthB8ue170006EPKc, symObjAddr: 0x1F0CC, symBinAddr: 0x100020734, symSize: 0x34 }
  - { offsetInCU: 0x49BE9, offset: 0x49BE9, size: 0x8, addend: 0x0, symName: __ZNSt3__119istreambuf_iteratorIcNS_11char_traitsIcEEEC2B8ue170006ERNS_13basic_istreamIcS2_EE, symObjAddr: 0x1F100, symBinAddr: 0x100020768, symSize: 0x54 }
  - { offsetInCU: 0x49C21, offset: 0x49C21, size: 0x8, addend: 0x0, symName: __ZNSt3__119istreambuf_iteratorIcNS_11char_traitsIcEEEC2B8ue170006Ev, symObjAddr: 0x1F154, symBinAddr: 0x1000207BC, symSize: 0x18 }
  - { offsetInCU: 0x49C4B, offset: 0x49C4B, size: 0x8, addend: 0x0, symName: __ZNSt3__112basic_stringIcNS_11char_traitsIcEENS_9allocatorIcEEEC2B8ue170006ILi0EEEPKc, symObjAddr: 0x1F190, symBinAddr: 0x1000207F8, symSize: 0x58 }
  - { offsetInCU: 0x49C8A, offset: 0x49C8A, size: 0x8, addend: 0x0, symName: __ZNSt3__16__treeINS_12__value_typeINS_12basic_stringIcNS_11char_traitsIcEENS_9allocatorIcEEEEdEENS_19__map_value_compareIS7_S8_NS_4lessIS7_EELb1EEENS5_IS8_EEE25__emplace_unique_key_argsIS7_JRKNS_21piecewise_construct_tENS_5tupleIJOS7_EEENSJ_IJEEEEEENS_4pairINS_15__tree_iteratorIS8_PNS_11__tree_nodeIS8_PvEElEEbEERKT_DpOT0_, symObjAddr: 0x1F1E8, symBinAddr: 0x100020850, symSize: 0x100 }
  - { offsetInCU: 0x49D60, offset: 0x49D60, size: 0x8, addend: 0x0, symName: __ZNSt3__16__treeINS_12__value_typeINS_12basic_stringIcNS_11char_traitsIcEENS_9allocatorIcEEEEdEENS_19__map_value_compareIS7_S8_NS_4lessIS7_EELb1EEENS5_IS8_EEE16__construct_nodeIJRKNS_21piecewise_construct_tENS_5tupleIJOS7_EEENSJ_IJEEEEEENS_10unique_ptrINS_11__tree_nodeIS8_PvEENS_22__tree_node_destructorINS5_ISQ_EEEEEEDpOT_, symObjAddr: 0x1F314, symBinAddr: 0x10002097C, symSize: 0x120 }
  - { offsetInCU: 0x49DE9, offset: 0x49DE9, size: 0x8, addend: 0x0, symName: __ZNSt3__116allocator_traitsINS_9allocatorINS_11__tree_nodeINS_12__value_typeINS_12basic_stringIcNS_11char_traitsIcEENS1_IcEEEEdEEPvEEEEE9constructB8ue170006INS_4pairIKS8_dEEJRKNS_21piecewise_construct_tENS_5tupleIJOS8_EEENSL_IJEEEEvEEvRSC_PT_DpOT0_, symObjAddr: 0x1F434, symBinAddr: 0x100020A9C, symSize: 0x44 }
  - { offsetInCU: 0x49E68, offset: 0x49E68, size: 0x8, addend: 0x0, symName: __ZNSt3__19allocatorINS_11__tree_nodeINS_12__value_typeINS_12basic_stringIcNS_11char_traitsIcEENS0_IcEEEEdEEPvEEE9constructB8ue170006INS_4pairIKS7_dEEJRKNS_21piecewise_construct_tENS_5tupleIJOS7_EEENSJ_IJEEEEEEvPT_DpOT0_, symObjAddr: 0x1F478, symBinAddr: 0x100020AE0, symSize: 0x44 }
  - { offsetInCU: 0x49EE4, offset: 0x49EE4, size: 0x8, addend: 0x0, symName: __ZNSt3__14pairIKNS_12basic_stringIcNS_11char_traitsIcEENS_9allocatorIcEEEEdEC1B8ue170006IJOS6_EJEEENS_21piecewise_construct_tENS_5tupleIJDpT_EEENSC_IJDpT0_EEE, symObjAddr: 0x1F4BC, symBinAddr: 0x100020B24, symSize: 0x44 }
  - { offsetInCU: 0x49F4B, offset: 0x49F4B, size: 0x8, addend: 0x0, symName: __ZNSt3__14pairIKNS_12basic_stringIcNS_11char_traitsIcEENS_9allocatorIcEEEEdEC1B8ue170006IJOS6_EJEJLm0EEJEEENS_21piecewise_construct_tERNS_5tupleIJDpT_EEERNSC_IJDpT0_EEENS_15__tuple_indicesIJXspT1_EEEENSL_IJXspT2_EEEE, symObjAddr: 0x1F500, symBinAddr: 0x100020B68, symSize: 0x3C }
  - { offsetInCU: 0x49FD8, offset: 0x49FD8, size: 0x8, addend: 0x0, symName: __ZNSt3__14pairIKNS_12basic_stringIcNS_11char_traitsIcEENS_9allocatorIcEEEEdEC2B8ue170006IJOS6_EJEJLm0EEJEEENS_21piecewise_construct_tERNS_5tupleIJDpT_EEERNSC_IJDpT0_EEENS_15__tuple_indicesIJXspT1_EEEENSL_IJXspT2_EEEE, symObjAddr: 0x1F53C, symBinAddr: 0x100020BA4, symSize: 0x4C }
  - { offsetInCU: 0x4A065, offset: 0x4A065, size: 0x8, addend: 0x0, symName: __ZNSt3__112basic_stringIcNS_11char_traitsIcEENS_9allocatorIcEEEC1B8ue170006EOS5_, symObjAddr: 0x1F5AC, symBinAddr: 0x100020C14, symSize: 0x34 }
  - { offsetInCU: 0x4A09E, offset: 0x4A09E, size: 0x8, addend: 0x0, symName: __ZNSt3__112__tuple_leafILm0EONS_12basic_stringIcNS_11char_traitsIcEENS_9allocatorIcEEEELb0EE3getB8ue170006Ev, symObjAddr: 0x1F5E0, symBinAddr: 0x100020C48, symSize: 0x18 }
  - { offsetInCU: 0x4A0C4, offset: 0x4A0C4, size: 0x8, addend: 0x0, symName: __ZNSt3__112basic_stringIcNS_11char_traitsIcEENS_9allocatorIcEEEC2B8ue170006EOS5_, symObjAddr: 0x1F5F8, symBinAddr: 0x100020C60, symSize: 0x48 }
  - { offsetInCU: 0x4A0FD, offset: 0x4A0FD, size: 0x8, addend: 0x0, symName: __ZNSt3__15tupleIJONS_12basic_stringIcNS_11char_traitsIcEENS_9allocatorIcEEEEEEC1B8ue170006IJS6_ELi0EEEDpOT_, symObjAddr: 0x1F640, symBinAddr: 0x100020CA8, symSize: 0x34 }
  - { offsetInCU: 0x4A147, offset: 0x4A147, size: 0x8, addend: 0x0, symName: __ZNSt3__15tupleIJONS_12basic_stringIcNS_11char_traitsIcEENS_9allocatorIcEEEEEEC2B8ue170006IJS6_ELi0EEEDpOT_, symObjAddr: 0x1F674, symBinAddr: 0x100020CDC, symSize: 0x34 }
  - { offsetInCU: 0x4A191, offset: 0x4A191, size: 0x8, addend: 0x0, symName: __ZNSt3__112__tuple_implINS_15__tuple_indicesIJLm0EEEEJONS_12basic_stringIcNS_11char_traitsIcEENS_9allocatorIcEEEEEEC1B8ue170006IJLm0EEJS9_EJEJEJS8_EEENS1_IJXspT_EEEENS_13__tuple_typesIJDpT0_EEENS1_IJXspT1_EEEENSD_IJDpT2_EEEDpOT3_, symObjAddr: 0x1F6A8, symBinAddr: 0x100020D10, symSize: 0x34 }
  - { offsetInCU: 0x4A222, offset: 0x4A222, size: 0x8, addend: 0x0, symName: __ZNSt3__112__tuple_implINS_15__tuple_indicesIJLm0EEEEJONS_12basic_stringIcNS_11char_traitsIcEENS_9allocatorIcEEEEEEC2B8ue170006IJLm0EEJS9_EJEJEJS8_EEENS1_IJXspT_EEEENS_13__tuple_typesIJDpT0_EEENS1_IJXspT1_EEEENSD_IJDpT2_EEEDpOT3_, symObjAddr: 0x1F6DC, symBinAddr: 0x100020D44, symSize: 0x34 }
  - { offsetInCU: 0x4A2B3, offset: 0x4A2B3, size: 0x8, addend: 0x0, symName: __ZNSt3__112__tuple_leafILm0EONS_12basic_stringIcNS_11char_traitsIcEENS_9allocatorIcEEEELb0EEC2B8ue170006IS6_vEEOT_, symObjAddr: 0x1F710, symBinAddr: 0x100020D78, symSize: 0x20 }
  - { offsetInCU: 0x4A2F6, offset: 0x4A2F6, size: 0x8, addend: 0x0, symName: __ZNSt3__16vectorINS_12basic_stringIcNS_11char_traitsIcEENS_9allocatorIcEEEENS4_IS6_EEE11__make_iterB8ue170006EPS6_, symObjAddr: 0x1F730, symBinAddr: 0x100020D98, symSize: 0x30 }
  - { offsetInCU: 0x4A32B, offset: 0x4A32B, size: 0x8, addend: 0x0, symName: __ZNSt3__111__wrap_iterIPNS_12basic_stringIcNS_11char_traitsIcEENS_9allocatorIcEEEEEC1B8ue170006ES7_, symObjAddr: 0x1F760, symBinAddr: 0x100020DC8, symSize: 0x34 }
  - { offsetInCU: 0x4A363, offset: 0x4A363, size: 0x8, addend: 0x0, symName: __ZNSt3__111__wrap_iterIPNS_12basic_stringIcNS_11char_traitsIcEENS_9allocatorIcEEEEEC2B8ue170006ES7_, symObjAddr: 0x1F794, symBinAddr: 0x100020DFC, symSize: 0x20 }
  - { offsetInCU: 0x4A39B, offset: 0x4A39B, size: 0x8, addend: 0x0, symName: __ZNSt3__16__treeINS_12__value_typeINS_12basic_stringIcNS_11char_traitsIcEENS_9allocatorIcEEEEPNS_6vectorI3barNS5_IS9_EEEEEENS_19__map_value_compareIS7_SD_NS_4lessIS7_EELb1EEENS5_ISD_EEE25__emplace_unique_key_argsIS7_JRKNS_21piecewise_construct_tENS_5tupleIJRKS7_EEENSO_IJEEEEEENS_4pairINS_15__tree_iteratorISD_PNS_11__tree_nodeISD_PvEElEEbEERKT_DpOT0_, symObjAddr: 0x1F7B4, symBinAddr: 0x100020E1C, symSize: 0x100 }
  - { offsetInCU: 0x4A471, offset: 0x4A471, size: 0x8, addend: 0x0, symName: __ZNKSt3__115__tree_iteratorINS_12__value_typeINS_12basic_stringIcNS_11char_traitsIcEENS_9allocatorIcEEEEPNS_6vectorI3barNS5_IS9_EEEEEEPNS_11__tree_nodeISD_PvEElEptB8ue170006Ev, symObjAddr: 0x1F8B4, symBinAddr: 0x100020F1C, symSize: 0x2C }
  - { offsetInCU: 0x4A497, offset: 0x4A497, size: 0x8, addend: 0x0, symName: __ZNSt3__16__treeINS_12__value_typeINS_12basic_stringIcNS_11char_traitsIcEENS_9allocatorIcEEEEPNS_6vectorI3barNS5_IS9_EEEEEENS_19__map_value_compareIS7_SD_NS_4lessIS7_EELb1EEENS5_ISD_EEE16__construct_nodeIJRKNS_21piecewise_construct_tENS_5tupleIJRKS7_EEENSO_IJEEEEEENS_10unique_ptrINS_11__tree_nodeISD_PvEENS_22__tree_node_destructorINS5_ISW_EEEEEEDpOT_, symObjAddr: 0x1F8E0, symBinAddr: 0x100020F48, symSize: 0x120 }
  - { offsetInCU: 0x4A520, offset: 0x4A520, size: 0x8, addend: 0x0, symName: __ZNSt3__116allocator_traitsINS_9allocatorINS_11__tree_nodeINS_12__value_typeINS_12basic_stringIcNS_11char_traitsIcEENS1_IcEEEEPNS_6vectorI3barNS1_ISA_EEEEEEPvEEEEE9constructB8ue170006INS_4pairIKS8_SD_EEJRKNS_21piecewise_construct_tENS_5tupleIJRSL_EEENSQ_IJEEEEvEEvRSH_PT_DpOT0_, symObjAddr: 0x1FA00, symBinAddr: 0x100021068, symSize: 0x44 }
  - { offsetInCU: 0x4A59F, offset: 0x4A59F, size: 0x8, addend: 0x0, symName: __ZNSt3__19allocatorINS_11__tree_nodeINS_12__value_typeINS_12basic_stringIcNS_11char_traitsIcEENS0_IcEEEEPNS_6vectorI3barNS0_IS9_EEEEEEPvEEE9constructB8ue170006INS_4pairIKS7_SC_EEJRKNS_21piecewise_construct_tENS_5tupleIJRSJ_EEENSO_IJEEEEEEvPT_DpOT0_, symObjAddr: 0x1FA44, symBinAddr: 0x1000210AC, symSize: 0x44 }
  - { offsetInCU: 0x4A61B, offset: 0x4A61B, size: 0x8, addend: 0x0, symName: __ZNSt3__14pairIKNS_12basic_stringIcNS_11char_traitsIcEENS_9allocatorIcEEEEPNS_6vectorI3barNS4_IS9_EEEEEC1B8ue170006IJRS7_EJEEENS_21piecewise_construct_tENS_5tupleIJDpT_EEENSH_IJDpT0_EEE, symObjAddr: 0x1FA88, symBinAddr: 0x1000210F0, symSize: 0x3C }
  - { offsetInCU: 0x4A682, offset: 0x4A682, size: 0x8, addend: 0x0, symName: __ZNSt3__14pairIKNS_12basic_stringIcNS_11char_traitsIcEENS_9allocatorIcEEEEPNS_6vectorI3barNS4_IS9_EEEEEC1B8ue170006IJRS7_EJEJLm0EEJEEENS_21piecewise_construct_tERNS_5tupleIJDpT_EEERNSH_IJDpT0_EEENS_15__tuple_indicesIJXspT1_EEEENSQ_IJXspT2_EEEE, symObjAddr: 0x1FAC4, symBinAddr: 0x10002112C, symSize: 0x3C }
  - { offsetInCU: 0x4A70F, offset: 0x4A70F, size: 0x8, addend: 0x0, symName: __ZNSt3__14pairIKNS_12basic_stringIcNS_11char_traitsIcEENS_9allocatorIcEEEEPNS_6vectorI3barNS4_IS9_EEEEEC2B8ue170006IJRS7_EJEJLm0EEJEEENS_21piecewise_construct_tERNS_5tupleIJDpT_EEERNSH_IJDpT0_EEENS_15__tuple_indicesIJXspT1_EEEENSQ_IJXspT2_EEEE, symObjAddr: 0x1FB00, symBinAddr: 0x100021168, symSize: 0x48 }
  - { offsetInCU: 0x4A79C, offset: 0x4A79C, size: 0x8, addend: 0x0, symName: __ZNSt3__114pointer_traitsIPNS_12__value_typeINS_12basic_stringIcNS_11char_traitsIcEENS_9allocatorIcEEEEPNS_6vectorI3barNS5_IS9_EEEEEEE10pointer_toB8ue170006ERSD_, symObjAddr: 0x1FB48, symBinAddr: 0x1000211B0, symSize: 0x14 }
  - { offsetInCU: 0x4A7BF, offset: 0x4A7BF, size: 0x8, addend: 0x0, symName: __ZNKSt3__115__tree_iteratorINS_12__value_typeINS_12basic_stringIcNS_11char_traitsIcEENS_9allocatorIcEEEEPNS_6vectorI3barNS5_IS9_EEEEEEPNS_11__tree_nodeISD_PvEElE8__get_npB8ue170006Ev, symObjAddr: 0x1FB5C, symBinAddr: 0x1000211C4, symSize: 0x18 }
  - { offsetInCU: 0x4A7E5, offset: 0x4A7E5, size: 0x8, addend: 0x0, symName: __ZNSt3__16vectorI3barNS_9allocatorIS1_EEEC2B8ue170006Ev, symObjAddr: 0x1FB74, symBinAddr: 0x1000211DC, symSize: 0x4C }
  - { offsetInCU: 0x4A80F, offset: 0x4A80F, size: 0x8, addend: 0x0, symName: __ZNSt3__117__compressed_pairIP3barNS_9allocatorIS1_EEEC1B8ue170006IDnNS_18__default_init_tagEEEOT_OT0_, symObjAddr: 0x1FBC0, symBinAddr: 0x100021228, symSize: 0x3C }
  - { offsetInCU: 0x4A867, offset: 0x4A867, size: 0x8, addend: 0x0, symName: __ZNSt3__117__compressed_pairIP3barNS_9allocatorIS1_EEEC2B8ue170006IDnNS_18__default_init_tagEEEOT_OT0_, symObjAddr: 0x1FBFC, symBinAddr: 0x100021264, symSize: 0x40 }
  - { offsetInCU: 0x4A8BF, offset: 0x4A8BF, size: 0x8, addend: 0x0, symName: __ZNSt3__122__compressed_pair_elemIP3barLi0ELb0EEC2B8ue170006IDnvEEOT_, symObjAddr: 0x1FC3C, symBinAddr: 0x1000212A4, symSize: 0x1C }
  - { offsetInCU: 0x4A901, offset: 0x4A901, size: 0x8, addend: 0x0, symName: __ZNSt3__122__compressed_pair_elemINS_9allocatorI3barEELi1ELb1EEC2B8ue170006ENS_18__default_init_tagE, symObjAddr: 0x1FC58, symBinAddr: 0x1000212C0, symSize: 0x2C }
  - { offsetInCU: 0x4A935, offset: 0x4A935, size: 0x8, addend: 0x0, symName: __ZNSt3__19allocatorI3barEC2B8ue170006Ev, symObjAddr: 0x1FC84, symBinAddr: 0x1000212EC, symSize: 0x2C }
  - { offsetInCU: 0x4A95F, offset: 0x4A95F, size: 0x8, addend: 0x0, symName: __ZNSt3__116__non_trivial_ifILb1ENS_9allocatorI3barEEEC2B8ue170006Ev, symObjAddr: 0x1FCB0, symBinAddr: 0x100021318, symSize: 0x14 }
  - { offsetInCU: 0x4A989, offset: 0x4A989, size: 0x8, addend: 0x0, symName: __ZNSt3__16vectorI3barNS_9allocatorIS1_EEED2B8ue170006Ev, symObjAddr: 0x1FCC4, symBinAddr: 0x10002132C, symSize: 0x44 }
  - { offsetInCU: 0x4A9B3, offset: 0x4A9B3, size: 0x8, addend: 0x0, symName: __ZNSt3__16vectorI3barNS_9allocatorIS1_EEE16__destroy_vectorC1B8ue170006ERS4_, symObjAddr: 0x1FD08, symBinAddr: 0x100021370, symSize: 0x34 }
  - { offsetInCU: 0x4A9EC, offset: 0x4A9EC, size: 0x8, addend: 0x0, symName: __ZNSt3__16vectorI3barNS_9allocatorIS1_EEE16__destroy_vectorclB8ue170006Ev, symObjAddr: 0x1FD3C, symBinAddr: 0x1000213A4, symSize: 0x90 }
  - { offsetInCU: 0x4AA12, offset: 0x4AA12, size: 0x8, addend: 0x0, symName: __ZNSt3__16vectorI3barNS_9allocatorIS1_EEE16__destroy_vectorC2B8ue170006ERS4_, symObjAddr: 0x1FDCC, symBinAddr: 0x100021434, symSize: 0x20 }
  - { offsetInCU: 0x4AA4B, offset: 0x4AA4B, size: 0x8, addend: 0x0, symName: __ZNSt3__16vectorI3barNS_9allocatorIS1_EEE7__clearB8ue170006Ev, symObjAddr: 0x1FDEC, symBinAddr: 0x100021454, symSize: 0x28 }
  - { offsetInCU: 0x4AA71, offset: 0x4AA71, size: 0x8, addend: 0x0, symName: __ZNKSt3__16vectorI3barNS_9allocatorIS1_EEE17__annotate_deleteB8ue170006Ev, symObjAddr: 0x1FE14, symBinAddr: 0x10002147C, symSize: 0xD4 }
  - { offsetInCU: 0x4AA97, offset: 0x4AA97, size: 0x8, addend: 0x0, symName: __ZNSt3__116allocator_traitsINS_9allocatorI3barEEE10deallocateB8ue170006ERS3_PS2_m, symObjAddr: 0x1FEE8, symBinAddr: 0x100021550, symSize: 0x34 }
  - { offsetInCU: 0x4AAD9, offset: 0x4AAD9, size: 0x8, addend: 0x0, symName: __ZNSt3__16vectorI3barNS_9allocatorIS1_EEE7__allocB8ue170006Ev, symObjAddr: 0x1FF1C, symBinAddr: 0x100021584, symSize: 0x28 }
  - { offsetInCU: 0x4AAFF, offset: 0x4AAFF, size: 0x8, addend: 0x0, symName: __ZNKSt3__16vectorI3barNS_9allocatorIS1_EEE8capacityB8ue170006Ev, symObjAddr: 0x1FF44, symBinAddr: 0x1000215AC, symSize: 0x40 }
  - { offsetInCU: 0x4AB25, offset: 0x4AB25, size: 0x8, addend: 0x0, symName: __ZNSt3__16vectorI3barNS_9allocatorIS1_EEE22__base_destruct_at_endB8ue170006EPS1_, symObjAddr: 0x1FF84, symBinAddr: 0x1000215EC, symSize: 0x8C }
  - { offsetInCU: 0x4AB69, offset: 0x4AB69, size: 0x8, addend: 0x0, symName: __ZNSt3__116allocator_traitsINS_9allocatorI3barEEE7destroyB8ue170006IS2_vEEvRS3_PT_, symObjAddr: 0x20010, symBinAddr: 0x100021678, symSize: 0x2C }
  - { offsetInCU: 0x4ABA6, offset: 0x4ABA6, size: 0x8, addend: 0x0, symName: __ZNSt3__19allocatorI3barE7destroyB8ue170006EPS1_, symObjAddr: 0x20050, symBinAddr: 0x1000216B8, symSize: 0x14 }
  - { offsetInCU: 0x4ABDA, offset: 0x4ABDA, size: 0x8, addend: 0x0, symName: __ZNKSt3__16vectorI3barNS_9allocatorIS1_EEE31__annotate_contiguous_containerB8ue170006EPKvS6_S6_S6_, symObjAddr: 0x20064, symBinAddr: 0x1000216CC, symSize: 0x20 }
  - { offsetInCU: 0x4AC2C, offset: 0x4AC2C, size: 0x8, addend: 0x0, symName: __ZNKSt3__16vectorI3barNS_9allocatorIS1_EEE4dataB8ue170006Ev, symObjAddr: 0x20084, symBinAddr: 0x1000216EC, symSize: 0x28 }
  - { offsetInCU: 0x4AC52, offset: 0x4AC52, size: 0x8, addend: 0x0, symName: __ZNSt3__19allocatorI3barE10deallocateB8ue170006EPS1_m, symObjAddr: 0x200AC, symBinAddr: 0x100021714, symSize: 0x44 }
  - { offsetInCU: 0x4AC94, offset: 0x4AC94, size: 0x8, addend: 0x0, symName: __ZNSt3__117__compressed_pairIP3barNS_9allocatorIS1_EEE6secondB8ue170006Ev, symObjAddr: 0x200F0, symBinAddr: 0x100021758, symSize: 0x24 }
  - { offsetInCU: 0x4ACBA, offset: 0x4ACBA, size: 0x8, addend: 0x0, symName: __ZNSt3__122__compressed_pair_elemINS_9allocatorI3barEELi1ELb1EE5__getB8ue170006Ev, symObjAddr: 0x20114, symBinAddr: 0x10002177C, symSize: 0x14 }
  - { offsetInCU: 0x4ACE0, offset: 0x4ACE0, size: 0x8, addend: 0x0, symName: __ZNKSt3__16vectorI3barNS_9allocatorIS1_EEE9__end_capB8ue170006Ev, symObjAddr: 0x20128, symBinAddr: 0x100021790, symSize: 0x28 }
  - { offsetInCU: 0x4AD06, offset: 0x4AD06, size: 0x8, addend: 0x0, symName: __ZNKSt3__117__compressed_pairIP3barNS_9allocatorIS1_EEE5firstB8ue170006Ev, symObjAddr: 0x20150, symBinAddr: 0x1000217B8, symSize: 0x24 }
  - { offsetInCU: 0x4AD2C, offset: 0x4AD2C, size: 0x8, addend: 0x0, symName: __ZNKSt3__122__compressed_pair_elemIP3barLi0ELb0EE5__getB8ue170006Ev, symObjAddr: 0x20174, symBinAddr: 0x1000217DC, symSize: 0x14 }
  - { offsetInCU: 0x4AD52, offset: 0x4AD52, size: 0x8, addend: 0x0, symName: __ZNKSt3__16vectorI3barNS_9allocatorIS1_EEE20__throw_out_of_rangeB8ue170006Ev, symObjAddr: 0x20188, symBinAddr: 0x1000217F0, symSize: 0x1C }
  - { offsetInCU: 0x4AD78, offset: 0x4AD78, size: 0x8, addend: 0x0, symName: __ZNSt3__16vectorI3barNS_9allocatorIS1_EEE9__end_capB8ue170006Ev, symObjAddr: 0x201A4, symBinAddr: 0x10002180C, symSize: 0x28 }
